
./bin/kernel.elf:     file format elf64-littleriscv


Disassembly of section .text:

ffffffff80200000 <__KernelStartAddr>:
ffffffff80200000:	04c000ef          	jal	ra,ffffffff8020004c <_clear_bss>
ffffffff80200004:	802312b7          	lui	t0,0x80231
ffffffff80200008:	fff0031b          	addiw	t1,zero,-1
ffffffff8020000c:	02031313          	slli	t1,t1,0x20
ffffffff80200010:	406282b3          	sub	t0,t0,t1
ffffffff80200014:	00c2d293          	srli	t0,t0,0xc
ffffffff80200018:	00800313          	li	t1,8
ffffffff8020001c:	03c31313          	slli	t1,t1,0x3c
ffffffff80200020:	0062e2b3          	or	t0,t0,t1
ffffffff80200024:	18029073          	csrw	satp,t0
ffffffff80200028:	12000073          	sfence.vma
ffffffff8020002c:	00051c63          	bnez	a0,ffffffff80200044 <loop+0xc>
ffffffff80200030:	8023e137          	lui	sp,0x8023e
ffffffff80200034:	00010113          	mv	sp,sp

ffffffff80200038 <loop>:
ffffffff80200038:	802022b7          	lui	t0,0x80202
ffffffff8020003c:	35028293          	addi	t0,t0,848 # ffffffff80202350 <kentry>
ffffffff80200040:	00028067          	jr	t0
ffffffff80200044:	10500073          	wfi
ffffffff80200048:	ffdff06f          	j	ffffffff80200044 <loop+0xc>

ffffffff8020004c <_clear_bss>:
ffffffff8020004c:	00033617          	auipc	a2,0x33
ffffffff80200050:	fb460613          	addi	a2,a2,-76 # ffffffff80233000 <PrintBuf>
ffffffff80200054:	0003e597          	auipc	a1,0x3e
ffffffff80200058:	fac58593          	addi	a1,a1,-84 # ffffffff8023e000 <__KernelEndAddr>
ffffffff8020005c:	00062023          	sw	zero,0(a2)
ffffffff80200060:	00460613          	addi	a2,a2,4
ffffffff80200064:	fec5ece3          	bltu	a1,a2,ffffffff8020005c <_clear_bss+0x10>
ffffffff80200068:	00008067          	ret
ffffffff8020006c:	00000013          	nop
ffffffff80200070:	00000013          	nop
ffffffff80200074:	00000013          	nop
ffffffff80200078:	00000013          	nop
ffffffff8020007c:	00000013          	nop
ffffffff80200080:	00000013          	nop
ffffffff80200084:	00000013          	nop
ffffffff80200088:	00000013          	nop
ffffffff8020008c:	00000013          	nop
ffffffff80200090:	00000013          	nop
ffffffff80200094:	00000013          	nop
ffffffff80200098:	00000013          	nop
ffffffff8020009c:	00000013          	nop
ffffffff802000a0:	00000013          	nop
ffffffff802000a4:	00000013          	nop
ffffffff802000a8:	00000013          	nop
ffffffff802000ac:	00000013          	nop
ffffffff802000b0:	00000013          	nop
ffffffff802000b4:	00000013          	nop
ffffffff802000b8:	00000013          	nop
ffffffff802000bc:	00000013          	nop
ffffffff802000c0:	00000013          	nop
ffffffff802000c4:	00000013          	nop
ffffffff802000c8:	00000013          	nop
ffffffff802000cc:	00000013          	nop
ffffffff802000d0:	00000013          	nop
ffffffff802000d4:	00000013          	nop
ffffffff802000d8:	00000013          	nop
ffffffff802000dc:	00000013          	nop
ffffffff802000e0:	00000013          	nop
ffffffff802000e4:	00000013          	nop
ffffffff802000e8:	00000013          	nop
ffffffff802000ec:	00000013          	nop
ffffffff802000f0:	00000013          	nop
ffffffff802000f4:	00000013          	nop
ffffffff802000f8:	00000013          	nop
ffffffff802000fc:	00000013          	nop
ffffffff80200100:	00000013          	nop
ffffffff80200104:	00000013          	nop
ffffffff80200108:	00000013          	nop
ffffffff8020010c:	00000013          	nop
ffffffff80200110:	00000013          	nop
ffffffff80200114:	00000013          	nop
ffffffff80200118:	00000013          	nop
ffffffff8020011c:	00000013          	nop
ffffffff80200120:	00000013          	nop
ffffffff80200124:	00000013          	nop
ffffffff80200128:	00000013          	nop
ffffffff8020012c:	00000013          	nop
ffffffff80200130:	00000013          	nop
ffffffff80200134:	00000013          	nop
ffffffff80200138:	00000013          	nop
ffffffff8020013c:	00000013          	nop
ffffffff80200140:	00000013          	nop
ffffffff80200144:	00000013          	nop
ffffffff80200148:	00000013          	nop
ffffffff8020014c:	00000013          	nop
ffffffff80200150:	00000013          	nop
ffffffff80200154:	00000013          	nop
ffffffff80200158:	00000013          	nop
ffffffff8020015c:	00000013          	nop
ffffffff80200160:	00000013          	nop
ffffffff80200164:	00000013          	nop
ffffffff80200168:	00000013          	nop
ffffffff8020016c:	00000013          	nop
ffffffff80200170:	00000013          	nop
ffffffff80200174:	00000013          	nop
ffffffff80200178:	00000013          	nop
ffffffff8020017c:	00000013          	nop
ffffffff80200180:	00000013          	nop
ffffffff80200184:	00000013          	nop
ffffffff80200188:	00000013          	nop
ffffffff8020018c:	00000013          	nop
ffffffff80200190:	00000013          	nop
ffffffff80200194:	00000013          	nop
ffffffff80200198:	00000013          	nop
ffffffff8020019c:	00000013          	nop
ffffffff802001a0:	00000013          	nop
ffffffff802001a4:	00000013          	nop
ffffffff802001a8:	00000013          	nop
ffffffff802001ac:	00000013          	nop
ffffffff802001b0:	00000013          	nop
ffffffff802001b4:	00000013          	nop
ffffffff802001b8:	00000013          	nop
ffffffff802001bc:	00000013          	nop
ffffffff802001c0:	00000013          	nop
ffffffff802001c4:	00000013          	nop
ffffffff802001c8:	00000013          	nop
ffffffff802001cc:	00000013          	nop
ffffffff802001d0:	00000013          	nop
ffffffff802001d4:	00000013          	nop
ffffffff802001d8:	00000013          	nop
ffffffff802001dc:	00000013          	nop
ffffffff802001e0:	00000013          	nop
ffffffff802001e4:	00000013          	nop
ffffffff802001e8:	00000013          	nop
ffffffff802001ec:	00000013          	nop
ffffffff802001f0:	00000013          	nop
ffffffff802001f4:	00000013          	nop
ffffffff802001f8:	00000013          	nop
ffffffff802001fc:	00000013          	nop
ffffffff80200200:	00000013          	nop
ffffffff80200204:	00000013          	nop
ffffffff80200208:	00000013          	nop
ffffffff8020020c:	00000013          	nop
ffffffff80200210:	00000013          	nop
ffffffff80200214:	00000013          	nop
ffffffff80200218:	00000013          	nop
ffffffff8020021c:	00000013          	nop
ffffffff80200220:	00000013          	nop
ffffffff80200224:	00000013          	nop
ffffffff80200228:	00000013          	nop
ffffffff8020022c:	00000013          	nop
ffffffff80200230:	00000013          	nop
ffffffff80200234:	00000013          	nop
ffffffff80200238:	00000013          	nop
ffffffff8020023c:	00000013          	nop
ffffffff80200240:	00000013          	nop
ffffffff80200244:	00000013          	nop
ffffffff80200248:	00000013          	nop
ffffffff8020024c:	00000013          	nop
ffffffff80200250:	00000013          	nop
ffffffff80200254:	00000013          	nop
ffffffff80200258:	00000013          	nop
ffffffff8020025c:	00000013          	nop
ffffffff80200260:	00000013          	nop
ffffffff80200264:	00000013          	nop
ffffffff80200268:	00000013          	nop
ffffffff8020026c:	00000013          	nop
ffffffff80200270:	00000013          	nop
ffffffff80200274:	00000013          	nop
ffffffff80200278:	00000013          	nop
ffffffff8020027c:	00000013          	nop
ffffffff80200280:	00000013          	nop
ffffffff80200284:	00000013          	nop
ffffffff80200288:	00000013          	nop
ffffffff8020028c:	00000013          	nop
ffffffff80200290:	00000013          	nop
ffffffff80200294:	00000013          	nop
ffffffff80200298:	00000013          	nop
ffffffff8020029c:	00000013          	nop
ffffffff802002a0:	00000013          	nop
ffffffff802002a4:	00000013          	nop
ffffffff802002a8:	00000013          	nop
ffffffff802002ac:	00000013          	nop
ffffffff802002b0:	00000013          	nop
ffffffff802002b4:	00000013          	nop
ffffffff802002b8:	00000013          	nop
ffffffff802002bc:	00000013          	nop
ffffffff802002c0:	00000013          	nop
ffffffff802002c4:	00000013          	nop
ffffffff802002c8:	00000013          	nop
ffffffff802002cc:	00000013          	nop
ffffffff802002d0:	00000013          	nop
ffffffff802002d4:	00000013          	nop
ffffffff802002d8:	00000013          	nop
ffffffff802002dc:	00000013          	nop
ffffffff802002e0:	00000013          	nop
ffffffff802002e4:	00000013          	nop
ffffffff802002e8:	00000013          	nop
ffffffff802002ec:	00000013          	nop
ffffffff802002f0:	00000013          	nop
ffffffff802002f4:	00000013          	nop
ffffffff802002f8:	00000013          	nop
ffffffff802002fc:	00000013          	nop
ffffffff80200300:	00000013          	nop
ffffffff80200304:	00000013          	nop
ffffffff80200308:	00000013          	nop
ffffffff8020030c:	00000013          	nop
ffffffff80200310:	00000013          	nop
ffffffff80200314:	00000013          	nop
ffffffff80200318:	00000013          	nop
ffffffff8020031c:	00000013          	nop
ffffffff80200320:	00000013          	nop
ffffffff80200324:	00000013          	nop
ffffffff80200328:	00000013          	nop
ffffffff8020032c:	00000013          	nop
ffffffff80200330:	00000013          	nop
ffffffff80200334:	00000013          	nop
ffffffff80200338:	00000013          	nop
ffffffff8020033c:	00000013          	nop
ffffffff80200340:	00000013          	nop
ffffffff80200344:	00000013          	nop
ffffffff80200348:	00000013          	nop
ffffffff8020034c:	00000013          	nop
ffffffff80200350:	00000013          	nop
ffffffff80200354:	00000013          	nop
ffffffff80200358:	00000013          	nop
ffffffff8020035c:	00000013          	nop
ffffffff80200360:	00000013          	nop
ffffffff80200364:	00000013          	nop
ffffffff80200368:	00000013          	nop
ffffffff8020036c:	00000013          	nop
ffffffff80200370:	00000013          	nop
ffffffff80200374:	00000013          	nop
ffffffff80200378:	00000013          	nop
ffffffff8020037c:	00000013          	nop
ffffffff80200380:	00000013          	nop
ffffffff80200384:	00000013          	nop
ffffffff80200388:	00000013          	nop
ffffffff8020038c:	00000013          	nop
ffffffff80200390:	00000013          	nop
ffffffff80200394:	00000013          	nop
ffffffff80200398:	00000013          	nop
ffffffff8020039c:	00000013          	nop
ffffffff802003a0:	00000013          	nop
ffffffff802003a4:	00000013          	nop
ffffffff802003a8:	00000013          	nop
ffffffff802003ac:	00000013          	nop
ffffffff802003b0:	00000013          	nop
ffffffff802003b4:	00000013          	nop
ffffffff802003b8:	00000013          	nop
ffffffff802003bc:	00000013          	nop
ffffffff802003c0:	00000013          	nop
ffffffff802003c4:	00000013          	nop
ffffffff802003c8:	00000013          	nop
ffffffff802003cc:	00000013          	nop
ffffffff802003d0:	00000013          	nop
ffffffff802003d4:	00000013          	nop
ffffffff802003d8:	00000013          	nop
ffffffff802003dc:	00000013          	nop
ffffffff802003e0:	00000013          	nop
ffffffff802003e4:	00000013          	nop
ffffffff802003e8:	00000013          	nop
ffffffff802003ec:	00000013          	nop
ffffffff802003f0:	00000013          	nop
ffffffff802003f4:	00000013          	nop
ffffffff802003f8:	00000013          	nop
ffffffff802003fc:	00000013          	nop
ffffffff80200400:	00000013          	nop
ffffffff80200404:	00000013          	nop
ffffffff80200408:	00000013          	nop
ffffffff8020040c:	00000013          	nop
ffffffff80200410:	00000013          	nop
ffffffff80200414:	00000013          	nop
ffffffff80200418:	00000013          	nop
ffffffff8020041c:	00000013          	nop
ffffffff80200420:	00000013          	nop
ffffffff80200424:	00000013          	nop
ffffffff80200428:	00000013          	nop
ffffffff8020042c:	00000013          	nop
ffffffff80200430:	00000013          	nop
ffffffff80200434:	00000013          	nop
ffffffff80200438:	00000013          	nop
ffffffff8020043c:	00000013          	nop
ffffffff80200440:	00000013          	nop
ffffffff80200444:	00000013          	nop
ffffffff80200448:	00000013          	nop
ffffffff8020044c:	00000013          	nop
ffffffff80200450:	00000013          	nop
ffffffff80200454:	00000013          	nop
ffffffff80200458:	00000013          	nop
ffffffff8020045c:	00000013          	nop
ffffffff80200460:	00000013          	nop
ffffffff80200464:	00000013          	nop
ffffffff80200468:	00000013          	nop
ffffffff8020046c:	00000013          	nop
ffffffff80200470:	00000013          	nop
ffffffff80200474:	00000013          	nop
ffffffff80200478:	00000013          	nop
ffffffff8020047c:	00000013          	nop
ffffffff80200480:	00000013          	nop
ffffffff80200484:	00000013          	nop
ffffffff80200488:	00000013          	nop
ffffffff8020048c:	00000013          	nop
ffffffff80200490:	00000013          	nop
ffffffff80200494:	00000013          	nop
ffffffff80200498:	00000013          	nop
ffffffff8020049c:	00000013          	nop
ffffffff802004a0:	00000013          	nop
ffffffff802004a4:	00000013          	nop
ffffffff802004a8:	00000013          	nop
ffffffff802004ac:	00000013          	nop
ffffffff802004b0:	00000013          	nop
ffffffff802004b4:	00000013          	nop
ffffffff802004b8:	00000013          	nop
ffffffff802004bc:	00000013          	nop
ffffffff802004c0:	00000013          	nop
ffffffff802004c4:	00000013          	nop
ffffffff802004c8:	00000013          	nop
ffffffff802004cc:	00000013          	nop
ffffffff802004d0:	00000013          	nop
ffffffff802004d4:	00000013          	nop
ffffffff802004d8:	00000013          	nop
ffffffff802004dc:	00000013          	nop
ffffffff802004e0:	00000013          	nop
ffffffff802004e4:	00000013          	nop
ffffffff802004e8:	00000013          	nop
ffffffff802004ec:	00000013          	nop
ffffffff802004f0:	00000013          	nop
ffffffff802004f4:	00000013          	nop
ffffffff802004f8:	00000013          	nop
ffffffff802004fc:	00000013          	nop
ffffffff80200500:	00000013          	nop
ffffffff80200504:	00000013          	nop
ffffffff80200508:	00000013          	nop
ffffffff8020050c:	00000013          	nop
ffffffff80200510:	00000013          	nop
ffffffff80200514:	00000013          	nop
ffffffff80200518:	00000013          	nop
ffffffff8020051c:	00000013          	nop
ffffffff80200520:	00000013          	nop
ffffffff80200524:	00000013          	nop
ffffffff80200528:	00000013          	nop
ffffffff8020052c:	00000013          	nop
ffffffff80200530:	00000013          	nop
ffffffff80200534:	00000013          	nop
ffffffff80200538:	00000013          	nop
ffffffff8020053c:	00000013          	nop
ffffffff80200540:	00000013          	nop
ffffffff80200544:	00000013          	nop
ffffffff80200548:	00000013          	nop
ffffffff8020054c:	00000013          	nop
ffffffff80200550:	00000013          	nop
ffffffff80200554:	00000013          	nop
ffffffff80200558:	00000013          	nop
ffffffff8020055c:	00000013          	nop
ffffffff80200560:	00000013          	nop
ffffffff80200564:	00000013          	nop
ffffffff80200568:	00000013          	nop
ffffffff8020056c:	00000013          	nop
ffffffff80200570:	00000013          	nop
ffffffff80200574:	00000013          	nop
ffffffff80200578:	00000013          	nop
ffffffff8020057c:	00000013          	nop
ffffffff80200580:	00000013          	nop
ffffffff80200584:	00000013          	nop
ffffffff80200588:	00000013          	nop
ffffffff8020058c:	00000013          	nop
ffffffff80200590:	00000013          	nop
ffffffff80200594:	00000013          	nop
ffffffff80200598:	00000013          	nop
ffffffff8020059c:	00000013          	nop
ffffffff802005a0:	00000013          	nop
ffffffff802005a4:	00000013          	nop
ffffffff802005a8:	00000013          	nop
ffffffff802005ac:	00000013          	nop
ffffffff802005b0:	00000013          	nop
ffffffff802005b4:	00000013          	nop
ffffffff802005b8:	00000013          	nop
ffffffff802005bc:	00000013          	nop
ffffffff802005c0:	00000013          	nop
ffffffff802005c4:	00000013          	nop
ffffffff802005c8:	00000013          	nop
ffffffff802005cc:	00000013          	nop
ffffffff802005d0:	00000013          	nop
ffffffff802005d4:	00000013          	nop
ffffffff802005d8:	00000013          	nop
ffffffff802005dc:	00000013          	nop
ffffffff802005e0:	00000013          	nop
ffffffff802005e4:	00000013          	nop
ffffffff802005e8:	00000013          	nop
ffffffff802005ec:	00000013          	nop
ffffffff802005f0:	00000013          	nop
ffffffff802005f4:	00000013          	nop
ffffffff802005f8:	00000013          	nop
ffffffff802005fc:	00000013          	nop
ffffffff80200600:	00000013          	nop
ffffffff80200604:	00000013          	nop
ffffffff80200608:	00000013          	nop
ffffffff8020060c:	00000013          	nop
ffffffff80200610:	00000013          	nop
ffffffff80200614:	00000013          	nop
ffffffff80200618:	00000013          	nop
ffffffff8020061c:	00000013          	nop
ffffffff80200620:	00000013          	nop
ffffffff80200624:	00000013          	nop
ffffffff80200628:	00000013          	nop
ffffffff8020062c:	00000013          	nop
ffffffff80200630:	00000013          	nop
ffffffff80200634:	00000013          	nop
ffffffff80200638:	00000013          	nop
ffffffff8020063c:	00000013          	nop
ffffffff80200640:	00000013          	nop
ffffffff80200644:	00000013          	nop
ffffffff80200648:	00000013          	nop
ffffffff8020064c:	00000013          	nop
ffffffff80200650:	00000013          	nop
ffffffff80200654:	00000013          	nop
ffffffff80200658:	00000013          	nop
ffffffff8020065c:	00000013          	nop
ffffffff80200660:	00000013          	nop
ffffffff80200664:	00000013          	nop
ffffffff80200668:	00000013          	nop
ffffffff8020066c:	00000013          	nop
ffffffff80200670:	00000013          	nop
ffffffff80200674:	00000013          	nop
ffffffff80200678:	00000013          	nop
ffffffff8020067c:	00000013          	nop
ffffffff80200680:	00000013          	nop
ffffffff80200684:	00000013          	nop
ffffffff80200688:	00000013          	nop
ffffffff8020068c:	00000013          	nop
ffffffff80200690:	00000013          	nop
ffffffff80200694:	00000013          	nop
ffffffff80200698:	00000013          	nop
ffffffff8020069c:	00000013          	nop
ffffffff802006a0:	00000013          	nop
ffffffff802006a4:	00000013          	nop
ffffffff802006a8:	00000013          	nop
ffffffff802006ac:	00000013          	nop
ffffffff802006b0:	00000013          	nop
ffffffff802006b4:	00000013          	nop
ffffffff802006b8:	00000013          	nop
ffffffff802006bc:	00000013          	nop
ffffffff802006c0:	00000013          	nop
ffffffff802006c4:	00000013          	nop
ffffffff802006c8:	00000013          	nop
ffffffff802006cc:	00000013          	nop
ffffffff802006d0:	00000013          	nop
ffffffff802006d4:	00000013          	nop
ffffffff802006d8:	00000013          	nop
ffffffff802006dc:	00000013          	nop
ffffffff802006e0:	00000013          	nop
ffffffff802006e4:	00000013          	nop
ffffffff802006e8:	00000013          	nop
ffffffff802006ec:	00000013          	nop
ffffffff802006f0:	00000013          	nop
ffffffff802006f4:	00000013          	nop
ffffffff802006f8:	00000013          	nop
ffffffff802006fc:	00000013          	nop
ffffffff80200700:	00000013          	nop
ffffffff80200704:	00000013          	nop
ffffffff80200708:	00000013          	nop
ffffffff8020070c:	00000013          	nop
ffffffff80200710:	00000013          	nop
ffffffff80200714:	00000013          	nop
ffffffff80200718:	00000013          	nop
ffffffff8020071c:	00000013          	nop
ffffffff80200720:	00000013          	nop
ffffffff80200724:	00000013          	nop
ffffffff80200728:	00000013          	nop
ffffffff8020072c:	00000013          	nop
ffffffff80200730:	00000013          	nop
ffffffff80200734:	00000013          	nop
ffffffff80200738:	00000013          	nop
ffffffff8020073c:	00000013          	nop
ffffffff80200740:	00000013          	nop
ffffffff80200744:	00000013          	nop
ffffffff80200748:	00000013          	nop
ffffffff8020074c:	00000013          	nop
ffffffff80200750:	00000013          	nop
ffffffff80200754:	00000013          	nop
ffffffff80200758:	00000013          	nop
ffffffff8020075c:	00000013          	nop
ffffffff80200760:	00000013          	nop
ffffffff80200764:	00000013          	nop
ffffffff80200768:	00000013          	nop
ffffffff8020076c:	00000013          	nop
ffffffff80200770:	00000013          	nop
ffffffff80200774:	00000013          	nop
ffffffff80200778:	00000013          	nop
ffffffff8020077c:	00000013          	nop
ffffffff80200780:	00000013          	nop
ffffffff80200784:	00000013          	nop
ffffffff80200788:	00000013          	nop
ffffffff8020078c:	00000013          	nop
ffffffff80200790:	00000013          	nop
ffffffff80200794:	00000013          	nop
ffffffff80200798:	00000013          	nop
ffffffff8020079c:	00000013          	nop
ffffffff802007a0:	00000013          	nop
ffffffff802007a4:	00000013          	nop
ffffffff802007a8:	00000013          	nop
ffffffff802007ac:	00000013          	nop
ffffffff802007b0:	00000013          	nop
ffffffff802007b4:	00000013          	nop
ffffffff802007b8:	00000013          	nop
ffffffff802007bc:	00000013          	nop
ffffffff802007c0:	00000013          	nop
ffffffff802007c4:	00000013          	nop
ffffffff802007c8:	00000013          	nop
ffffffff802007cc:	00000013          	nop
ffffffff802007d0:	00000013          	nop
ffffffff802007d4:	00000013          	nop
ffffffff802007d8:	00000013          	nop
ffffffff802007dc:	00000013          	nop
ffffffff802007e0:	00000013          	nop
ffffffff802007e4:	00000013          	nop
ffffffff802007e8:	00000013          	nop
ffffffff802007ec:	00000013          	nop
ffffffff802007f0:	00000013          	nop
ffffffff802007f4:	00000013          	nop
ffffffff802007f8:	00000013          	nop
ffffffff802007fc:	00000013          	nop
ffffffff80200800:	00000013          	nop
ffffffff80200804:	00000013          	nop
ffffffff80200808:	00000013          	nop
ffffffff8020080c:	00000013          	nop
ffffffff80200810:	00000013          	nop
ffffffff80200814:	00000013          	nop
ffffffff80200818:	00000013          	nop
ffffffff8020081c:	00000013          	nop
ffffffff80200820:	00000013          	nop
ffffffff80200824:	00000013          	nop
ffffffff80200828:	00000013          	nop
ffffffff8020082c:	00000013          	nop
ffffffff80200830:	00000013          	nop
ffffffff80200834:	00000013          	nop
ffffffff80200838:	00000013          	nop
ffffffff8020083c:	00000013          	nop
ffffffff80200840:	00000013          	nop
ffffffff80200844:	00000013          	nop
ffffffff80200848:	00000013          	nop
ffffffff8020084c:	00000013          	nop
ffffffff80200850:	00000013          	nop
ffffffff80200854:	00000013          	nop
ffffffff80200858:	00000013          	nop
ffffffff8020085c:	00000013          	nop
ffffffff80200860:	00000013          	nop
ffffffff80200864:	00000013          	nop
ffffffff80200868:	00000013          	nop
ffffffff8020086c:	00000013          	nop
ffffffff80200870:	00000013          	nop
ffffffff80200874:	00000013          	nop
ffffffff80200878:	00000013          	nop
ffffffff8020087c:	00000013          	nop
ffffffff80200880:	00000013          	nop
ffffffff80200884:	00000013          	nop
ffffffff80200888:	00000013          	nop
ffffffff8020088c:	00000013          	nop
ffffffff80200890:	00000013          	nop
ffffffff80200894:	00000013          	nop
ffffffff80200898:	00000013          	nop
ffffffff8020089c:	00000013          	nop
ffffffff802008a0:	00000013          	nop
ffffffff802008a4:	00000013          	nop
ffffffff802008a8:	00000013          	nop
ffffffff802008ac:	00000013          	nop
ffffffff802008b0:	00000013          	nop
ffffffff802008b4:	00000013          	nop
ffffffff802008b8:	00000013          	nop
ffffffff802008bc:	00000013          	nop
ffffffff802008c0:	00000013          	nop
ffffffff802008c4:	00000013          	nop
ffffffff802008c8:	00000013          	nop
ffffffff802008cc:	00000013          	nop
ffffffff802008d0:	00000013          	nop
ffffffff802008d4:	00000013          	nop
ffffffff802008d8:	00000013          	nop
ffffffff802008dc:	00000013          	nop
ffffffff802008e0:	00000013          	nop
ffffffff802008e4:	00000013          	nop
ffffffff802008e8:	00000013          	nop
ffffffff802008ec:	00000013          	nop
ffffffff802008f0:	00000013          	nop
ffffffff802008f4:	00000013          	nop
ffffffff802008f8:	00000013          	nop
ffffffff802008fc:	00000013          	nop
ffffffff80200900:	00000013          	nop
ffffffff80200904:	00000013          	nop
ffffffff80200908:	00000013          	nop
ffffffff8020090c:	00000013          	nop
ffffffff80200910:	00000013          	nop
ffffffff80200914:	00000013          	nop
ffffffff80200918:	00000013          	nop
ffffffff8020091c:	00000013          	nop
ffffffff80200920:	00000013          	nop
ffffffff80200924:	00000013          	nop
ffffffff80200928:	00000013          	nop
ffffffff8020092c:	00000013          	nop
ffffffff80200930:	00000013          	nop
ffffffff80200934:	00000013          	nop
ffffffff80200938:	00000013          	nop
ffffffff8020093c:	00000013          	nop
ffffffff80200940:	00000013          	nop
ffffffff80200944:	00000013          	nop
ffffffff80200948:	00000013          	nop
ffffffff8020094c:	00000013          	nop
ffffffff80200950:	00000013          	nop
ffffffff80200954:	00000013          	nop
ffffffff80200958:	00000013          	nop
ffffffff8020095c:	00000013          	nop
ffffffff80200960:	00000013          	nop
ffffffff80200964:	00000013          	nop
ffffffff80200968:	00000013          	nop
ffffffff8020096c:	00000013          	nop
ffffffff80200970:	00000013          	nop
ffffffff80200974:	00000013          	nop
ffffffff80200978:	00000013          	nop
ffffffff8020097c:	00000013          	nop
ffffffff80200980:	00000013          	nop
ffffffff80200984:	00000013          	nop
ffffffff80200988:	00000013          	nop
ffffffff8020098c:	00000013          	nop
ffffffff80200990:	00000013          	nop
ffffffff80200994:	00000013          	nop
ffffffff80200998:	00000013          	nop
ffffffff8020099c:	00000013          	nop
ffffffff802009a0:	00000013          	nop
ffffffff802009a4:	00000013          	nop
ffffffff802009a8:	00000013          	nop
ffffffff802009ac:	00000013          	nop
ffffffff802009b0:	00000013          	nop
ffffffff802009b4:	00000013          	nop
ffffffff802009b8:	00000013          	nop
ffffffff802009bc:	00000013          	nop
ffffffff802009c0:	00000013          	nop
ffffffff802009c4:	00000013          	nop
ffffffff802009c8:	00000013          	nop
ffffffff802009cc:	00000013          	nop
ffffffff802009d0:	00000013          	nop
ffffffff802009d4:	00000013          	nop
ffffffff802009d8:	00000013          	nop
ffffffff802009dc:	00000013          	nop
ffffffff802009e0:	00000013          	nop
ffffffff802009e4:	00000013          	nop
ffffffff802009e8:	00000013          	nop
ffffffff802009ec:	00000013          	nop
ffffffff802009f0:	00000013          	nop
ffffffff802009f4:	00000013          	nop
ffffffff802009f8:	00000013          	nop
ffffffff802009fc:	00000013          	nop
ffffffff80200a00:	00000013          	nop
ffffffff80200a04:	00000013          	nop
ffffffff80200a08:	00000013          	nop
ffffffff80200a0c:	00000013          	nop
ffffffff80200a10:	00000013          	nop
ffffffff80200a14:	00000013          	nop
ffffffff80200a18:	00000013          	nop
ffffffff80200a1c:	00000013          	nop
ffffffff80200a20:	00000013          	nop
ffffffff80200a24:	00000013          	nop
ffffffff80200a28:	00000013          	nop
ffffffff80200a2c:	00000013          	nop
ffffffff80200a30:	00000013          	nop
ffffffff80200a34:	00000013          	nop
ffffffff80200a38:	00000013          	nop
ffffffff80200a3c:	00000013          	nop
ffffffff80200a40:	00000013          	nop
ffffffff80200a44:	00000013          	nop
ffffffff80200a48:	00000013          	nop
ffffffff80200a4c:	00000013          	nop
ffffffff80200a50:	00000013          	nop
ffffffff80200a54:	00000013          	nop
ffffffff80200a58:	00000013          	nop
ffffffff80200a5c:	00000013          	nop
ffffffff80200a60:	00000013          	nop
ffffffff80200a64:	00000013          	nop
ffffffff80200a68:	00000013          	nop
ffffffff80200a6c:	00000013          	nop
ffffffff80200a70:	00000013          	nop
ffffffff80200a74:	00000013          	nop
ffffffff80200a78:	00000013          	nop
ffffffff80200a7c:	00000013          	nop
ffffffff80200a80:	00000013          	nop
ffffffff80200a84:	00000013          	nop
ffffffff80200a88:	00000013          	nop
ffffffff80200a8c:	00000013          	nop
ffffffff80200a90:	00000013          	nop
ffffffff80200a94:	00000013          	nop
ffffffff80200a98:	00000013          	nop
ffffffff80200a9c:	00000013          	nop
ffffffff80200aa0:	00000013          	nop
ffffffff80200aa4:	00000013          	nop
ffffffff80200aa8:	00000013          	nop
ffffffff80200aac:	00000013          	nop
ffffffff80200ab0:	00000013          	nop
ffffffff80200ab4:	00000013          	nop
ffffffff80200ab8:	00000013          	nop
ffffffff80200abc:	00000013          	nop
ffffffff80200ac0:	00000013          	nop
ffffffff80200ac4:	00000013          	nop
ffffffff80200ac8:	00000013          	nop
ffffffff80200acc:	00000013          	nop
ffffffff80200ad0:	00000013          	nop
ffffffff80200ad4:	00000013          	nop
ffffffff80200ad8:	00000013          	nop
ffffffff80200adc:	00000013          	nop
ffffffff80200ae0:	00000013          	nop
ffffffff80200ae4:	00000013          	nop
ffffffff80200ae8:	00000013          	nop
ffffffff80200aec:	00000013          	nop
ffffffff80200af0:	00000013          	nop
ffffffff80200af4:	00000013          	nop
ffffffff80200af8:	00000013          	nop
ffffffff80200afc:	00000013          	nop
ffffffff80200b00:	00000013          	nop
ffffffff80200b04:	00000013          	nop
ffffffff80200b08:	00000013          	nop
ffffffff80200b0c:	00000013          	nop
ffffffff80200b10:	00000013          	nop
ffffffff80200b14:	00000013          	nop
ffffffff80200b18:	00000013          	nop
ffffffff80200b1c:	00000013          	nop
ffffffff80200b20:	00000013          	nop
ffffffff80200b24:	00000013          	nop
ffffffff80200b28:	00000013          	nop
ffffffff80200b2c:	00000013          	nop
ffffffff80200b30:	00000013          	nop
ffffffff80200b34:	00000013          	nop
ffffffff80200b38:	00000013          	nop
ffffffff80200b3c:	00000013          	nop
ffffffff80200b40:	00000013          	nop
ffffffff80200b44:	00000013          	nop
ffffffff80200b48:	00000013          	nop
ffffffff80200b4c:	00000013          	nop
ffffffff80200b50:	00000013          	nop
ffffffff80200b54:	00000013          	nop
ffffffff80200b58:	00000013          	nop
ffffffff80200b5c:	00000013          	nop
ffffffff80200b60:	00000013          	nop
ffffffff80200b64:	00000013          	nop
ffffffff80200b68:	00000013          	nop
ffffffff80200b6c:	00000013          	nop
ffffffff80200b70:	00000013          	nop
ffffffff80200b74:	00000013          	nop
ffffffff80200b78:	00000013          	nop
ffffffff80200b7c:	00000013          	nop
ffffffff80200b80:	00000013          	nop
ffffffff80200b84:	00000013          	nop
ffffffff80200b88:	00000013          	nop
ffffffff80200b8c:	00000013          	nop
ffffffff80200b90:	00000013          	nop
ffffffff80200b94:	00000013          	nop
ffffffff80200b98:	00000013          	nop
ffffffff80200b9c:	00000013          	nop
ffffffff80200ba0:	00000013          	nop
ffffffff80200ba4:	00000013          	nop
ffffffff80200ba8:	00000013          	nop
ffffffff80200bac:	00000013          	nop
ffffffff80200bb0:	00000013          	nop
ffffffff80200bb4:	00000013          	nop
ffffffff80200bb8:	00000013          	nop
ffffffff80200bbc:	00000013          	nop
ffffffff80200bc0:	00000013          	nop
ffffffff80200bc4:	00000013          	nop
ffffffff80200bc8:	00000013          	nop
ffffffff80200bcc:	00000013          	nop
ffffffff80200bd0:	00000013          	nop
ffffffff80200bd4:	00000013          	nop
ffffffff80200bd8:	00000013          	nop
ffffffff80200bdc:	00000013          	nop
ffffffff80200be0:	00000013          	nop
ffffffff80200be4:	00000013          	nop
ffffffff80200be8:	00000013          	nop
ffffffff80200bec:	00000013          	nop
ffffffff80200bf0:	00000013          	nop
ffffffff80200bf4:	00000013          	nop
ffffffff80200bf8:	00000013          	nop
ffffffff80200bfc:	00000013          	nop
ffffffff80200c00:	00000013          	nop
ffffffff80200c04:	00000013          	nop
ffffffff80200c08:	00000013          	nop
ffffffff80200c0c:	00000013          	nop
ffffffff80200c10:	00000013          	nop
ffffffff80200c14:	00000013          	nop
ffffffff80200c18:	00000013          	nop
ffffffff80200c1c:	00000013          	nop
ffffffff80200c20:	00000013          	nop
ffffffff80200c24:	00000013          	nop
ffffffff80200c28:	00000013          	nop
ffffffff80200c2c:	00000013          	nop
ffffffff80200c30:	00000013          	nop
ffffffff80200c34:	00000013          	nop
ffffffff80200c38:	00000013          	nop
ffffffff80200c3c:	00000013          	nop
ffffffff80200c40:	00000013          	nop
ffffffff80200c44:	00000013          	nop
ffffffff80200c48:	00000013          	nop
ffffffff80200c4c:	00000013          	nop
ffffffff80200c50:	00000013          	nop
ffffffff80200c54:	00000013          	nop
ffffffff80200c58:	00000013          	nop
ffffffff80200c5c:	00000013          	nop
ffffffff80200c60:	00000013          	nop
ffffffff80200c64:	00000013          	nop
ffffffff80200c68:	00000013          	nop
ffffffff80200c6c:	00000013          	nop
ffffffff80200c70:	00000013          	nop
ffffffff80200c74:	00000013          	nop
ffffffff80200c78:	00000013          	nop
ffffffff80200c7c:	00000013          	nop
ffffffff80200c80:	00000013          	nop
ffffffff80200c84:	00000013          	nop
ffffffff80200c88:	00000013          	nop
ffffffff80200c8c:	00000013          	nop
ffffffff80200c90:	00000013          	nop
ffffffff80200c94:	00000013          	nop
ffffffff80200c98:	00000013          	nop
ffffffff80200c9c:	00000013          	nop
ffffffff80200ca0:	00000013          	nop
ffffffff80200ca4:	00000013          	nop
ffffffff80200ca8:	00000013          	nop
ffffffff80200cac:	00000013          	nop
ffffffff80200cb0:	00000013          	nop
ffffffff80200cb4:	00000013          	nop
ffffffff80200cb8:	00000013          	nop
ffffffff80200cbc:	00000013          	nop
ffffffff80200cc0:	00000013          	nop
ffffffff80200cc4:	00000013          	nop
ffffffff80200cc8:	00000013          	nop
ffffffff80200ccc:	00000013          	nop
ffffffff80200cd0:	00000013          	nop
ffffffff80200cd4:	00000013          	nop
ffffffff80200cd8:	00000013          	nop
ffffffff80200cdc:	00000013          	nop
ffffffff80200ce0:	00000013          	nop
ffffffff80200ce4:	00000013          	nop
ffffffff80200ce8:	00000013          	nop
ffffffff80200cec:	00000013          	nop
ffffffff80200cf0:	00000013          	nop
ffffffff80200cf4:	00000013          	nop
ffffffff80200cf8:	00000013          	nop
ffffffff80200cfc:	00000013          	nop
ffffffff80200d00:	00000013          	nop
ffffffff80200d04:	00000013          	nop
ffffffff80200d08:	00000013          	nop
ffffffff80200d0c:	00000013          	nop
ffffffff80200d10:	00000013          	nop
ffffffff80200d14:	00000013          	nop
ffffffff80200d18:	00000013          	nop
ffffffff80200d1c:	00000013          	nop
ffffffff80200d20:	00000013          	nop
ffffffff80200d24:	00000013          	nop
ffffffff80200d28:	00000013          	nop
ffffffff80200d2c:	00000013          	nop
ffffffff80200d30:	00000013          	nop
ffffffff80200d34:	00000013          	nop
ffffffff80200d38:	00000013          	nop
ffffffff80200d3c:	00000013          	nop
ffffffff80200d40:	00000013          	nop
ffffffff80200d44:	00000013          	nop
ffffffff80200d48:	00000013          	nop
ffffffff80200d4c:	00000013          	nop
ffffffff80200d50:	00000013          	nop
ffffffff80200d54:	00000013          	nop
ffffffff80200d58:	00000013          	nop
ffffffff80200d5c:	00000013          	nop
ffffffff80200d60:	00000013          	nop
ffffffff80200d64:	00000013          	nop
ffffffff80200d68:	00000013          	nop
ffffffff80200d6c:	00000013          	nop
ffffffff80200d70:	00000013          	nop
ffffffff80200d74:	00000013          	nop
ffffffff80200d78:	00000013          	nop
ffffffff80200d7c:	00000013          	nop
ffffffff80200d80:	00000013          	nop
ffffffff80200d84:	00000013          	nop
ffffffff80200d88:	00000013          	nop
ffffffff80200d8c:	00000013          	nop
ffffffff80200d90:	00000013          	nop
ffffffff80200d94:	00000013          	nop
ffffffff80200d98:	00000013          	nop
ffffffff80200d9c:	00000013          	nop
ffffffff80200da0:	00000013          	nop
ffffffff80200da4:	00000013          	nop
ffffffff80200da8:	00000013          	nop
ffffffff80200dac:	00000013          	nop
ffffffff80200db0:	00000013          	nop
ffffffff80200db4:	00000013          	nop
ffffffff80200db8:	00000013          	nop
ffffffff80200dbc:	00000013          	nop
ffffffff80200dc0:	00000013          	nop
ffffffff80200dc4:	00000013          	nop
ffffffff80200dc8:	00000013          	nop
ffffffff80200dcc:	00000013          	nop
ffffffff80200dd0:	00000013          	nop
ffffffff80200dd4:	00000013          	nop
ffffffff80200dd8:	00000013          	nop
ffffffff80200ddc:	00000013          	nop
ffffffff80200de0:	00000013          	nop
ffffffff80200de4:	00000013          	nop
ffffffff80200de8:	00000013          	nop
ffffffff80200dec:	00000013          	nop
ffffffff80200df0:	00000013          	nop
ffffffff80200df4:	00000013          	nop
ffffffff80200df8:	00000013          	nop
ffffffff80200dfc:	00000013          	nop
ffffffff80200e00:	00000013          	nop
ffffffff80200e04:	00000013          	nop
ffffffff80200e08:	00000013          	nop
ffffffff80200e0c:	00000013          	nop
ffffffff80200e10:	00000013          	nop
ffffffff80200e14:	00000013          	nop
ffffffff80200e18:	00000013          	nop
ffffffff80200e1c:	00000013          	nop
ffffffff80200e20:	00000013          	nop
ffffffff80200e24:	00000013          	nop
ffffffff80200e28:	00000013          	nop
ffffffff80200e2c:	00000013          	nop
ffffffff80200e30:	00000013          	nop
ffffffff80200e34:	00000013          	nop
ffffffff80200e38:	00000013          	nop
ffffffff80200e3c:	00000013          	nop
ffffffff80200e40:	00000013          	nop
ffffffff80200e44:	00000013          	nop
ffffffff80200e48:	00000013          	nop
ffffffff80200e4c:	00000013          	nop
ffffffff80200e50:	00000013          	nop
ffffffff80200e54:	00000013          	nop
ffffffff80200e58:	00000013          	nop
ffffffff80200e5c:	00000013          	nop
ffffffff80200e60:	00000013          	nop
ffffffff80200e64:	00000013          	nop
ffffffff80200e68:	00000013          	nop
ffffffff80200e6c:	00000013          	nop
ffffffff80200e70:	00000013          	nop
ffffffff80200e74:	00000013          	nop
ffffffff80200e78:	00000013          	nop
ffffffff80200e7c:	00000013          	nop
ffffffff80200e80:	00000013          	nop
ffffffff80200e84:	00000013          	nop
ffffffff80200e88:	00000013          	nop
ffffffff80200e8c:	00000013          	nop
ffffffff80200e90:	00000013          	nop
ffffffff80200e94:	00000013          	nop
ffffffff80200e98:	00000013          	nop
ffffffff80200e9c:	00000013          	nop
ffffffff80200ea0:	00000013          	nop
ffffffff80200ea4:	00000013          	nop
ffffffff80200ea8:	00000013          	nop
ffffffff80200eac:	00000013          	nop
ffffffff80200eb0:	00000013          	nop
ffffffff80200eb4:	00000013          	nop
ffffffff80200eb8:	00000013          	nop
ffffffff80200ebc:	00000013          	nop
ffffffff80200ec0:	00000013          	nop
ffffffff80200ec4:	00000013          	nop
ffffffff80200ec8:	00000013          	nop
ffffffff80200ecc:	00000013          	nop
ffffffff80200ed0:	00000013          	nop
ffffffff80200ed4:	00000013          	nop
ffffffff80200ed8:	00000013          	nop
ffffffff80200edc:	00000013          	nop
ffffffff80200ee0:	00000013          	nop
ffffffff80200ee4:	00000013          	nop
ffffffff80200ee8:	00000013          	nop
ffffffff80200eec:	00000013          	nop
ffffffff80200ef0:	00000013          	nop
ffffffff80200ef4:	00000013          	nop
ffffffff80200ef8:	00000013          	nop
ffffffff80200efc:	00000013          	nop
ffffffff80200f00:	00000013          	nop
ffffffff80200f04:	00000013          	nop
ffffffff80200f08:	00000013          	nop
ffffffff80200f0c:	00000013          	nop
ffffffff80200f10:	00000013          	nop
ffffffff80200f14:	00000013          	nop
ffffffff80200f18:	00000013          	nop
ffffffff80200f1c:	00000013          	nop
ffffffff80200f20:	00000013          	nop
ffffffff80200f24:	00000013          	nop
ffffffff80200f28:	00000013          	nop
ffffffff80200f2c:	00000013          	nop
ffffffff80200f30:	00000013          	nop
ffffffff80200f34:	00000013          	nop
ffffffff80200f38:	00000013          	nop
ffffffff80200f3c:	00000013          	nop
ffffffff80200f40:	00000013          	nop
ffffffff80200f44:	00000013          	nop
ffffffff80200f48:	00000013          	nop
ffffffff80200f4c:	00000013          	nop
ffffffff80200f50:	00000013          	nop
ffffffff80200f54:	00000013          	nop
ffffffff80200f58:	00000013          	nop
ffffffff80200f5c:	00000013          	nop
ffffffff80200f60:	00000013          	nop
ffffffff80200f64:	00000013          	nop
ffffffff80200f68:	00000013          	nop
ffffffff80200f6c:	00000013          	nop
ffffffff80200f70:	00000013          	nop
ffffffff80200f74:	00000013          	nop
ffffffff80200f78:	00000013          	nop
ffffffff80200f7c:	00000013          	nop
ffffffff80200f80:	00000013          	nop
ffffffff80200f84:	00000013          	nop
ffffffff80200f88:	00000013          	nop
ffffffff80200f8c:	00000013          	nop
ffffffff80200f90:	00000013          	nop
ffffffff80200f94:	00000013          	nop
ffffffff80200f98:	00000013          	nop
ffffffff80200f9c:	00000013          	nop
ffffffff80200fa0:	00000013          	nop
ffffffff80200fa4:	00000013          	nop
ffffffff80200fa8:	00000013          	nop
ffffffff80200fac:	00000013          	nop
ffffffff80200fb0:	00000013          	nop
ffffffff80200fb4:	00000013          	nop
ffffffff80200fb8:	00000013          	nop
ffffffff80200fbc:	00000013          	nop
ffffffff80200fc0:	00000013          	nop
ffffffff80200fc4:	00000013          	nop
ffffffff80200fc8:	00000013          	nop
ffffffff80200fcc:	00000013          	nop
ffffffff80200fd0:	00000013          	nop
ffffffff80200fd4:	00000013          	nop
ffffffff80200fd8:	00000013          	nop
ffffffff80200fdc:	00000013          	nop
ffffffff80200fe0:	00000013          	nop
ffffffff80200fe4:	00000013          	nop
ffffffff80200fe8:	00000013          	nop
ffffffff80200fec:	00000013          	nop
ffffffff80200ff0:	00000013          	nop
ffffffff80200ff4:	00000013          	nop
ffffffff80200ff8:	00000013          	nop
ffffffff80200ffc:	00000013          	nop
	...

ffffffff80201f94 <fnTimerInit>:
ffffffff80201f94:	ff010113          	addi	sp,sp,-16 # ffffffff8023dff0 <_main_stack+0x9ff0>
ffffffff80201f98:	00113423          	sd	ra,8(sp)
ffffffff80201f9c:	00813023          	sd	s0,0(sp)
ffffffff80201fa0:	01010413          	addi	s0,sp,16
ffffffff80201fa4:	00031797          	auipc	a5,0x31
ffffffff80201fa8:	4fc78793          	addi	a5,a5,1276 # ffffffff802334a0 <TimerControl>
ffffffff80201fac:	00000717          	auipc	a4,0x0
ffffffff80201fb0:	0ac70713          	addi	a4,a4,172 # ffffffff80202058 <fnEnableTimerIntr>
ffffffff80201fb4:	00e7b823          	sd	a4,16(a5)
ffffffff80201fb8:	00031797          	auipc	a5,0x31
ffffffff80201fbc:	4e878793          	addi	a5,a5,1256 # ffffffff802334a0 <TimerControl>
ffffffff80201fc0:	00000717          	auipc	a4,0x0
ffffffff80201fc4:	12470713          	addi	a4,a4,292 # ffffffff802020e4 <fnAddTick>
ffffffff80201fc8:	02e7b023          	sd	a4,32(a5)
ffffffff80201fcc:	00031797          	auipc	a5,0x31
ffffffff80201fd0:	4d478793          	addi	a5,a5,1236 # ffffffff802334a0 <TimerControl>
ffffffff80201fd4:	00000717          	auipc	a4,0x0
ffffffff80201fd8:	12c70713          	addi	a4,a4,300 # ffffffff80202100 <fnClearTick>
ffffffff80201fdc:	00e7bc23          	sd	a4,24(a5)
ffffffff80201fe0:	00031797          	auipc	a5,0x31
ffffffff80201fe4:	4c078793          	addi	a5,a5,1216 # ffffffff802334a0 <TimerControl>
ffffffff80201fe8:	0007b423          	sd	zero,8(a5)
ffffffff80201fec:	00031797          	auipc	a5,0x31
ffffffff80201ff0:	4b478793          	addi	a5,a5,1204 # ffffffff802334a0 <TimerControl>
ffffffff80201ff4:	0107b783          	ld	a5,16(a5)
ffffffff80201ff8:	000780e7          	jalr	a5
ffffffff80201ffc:	00000013          	nop
ffffffff80202000:	00813083          	ld	ra,8(sp)
ffffffff80202004:	00013403          	ld	s0,0(sp)
ffffffff80202008:	01010113          	addi	sp,sp,16
ffffffff8020200c:	00008067          	ret

ffffffff80202010 <fnSetTimerInterval>:
ffffffff80202010:	ff010113          	addi	sp,sp,-16
ffffffff80202014:	00813423          	sd	s0,8(sp)
ffffffff80202018:	01010413          	addi	s0,sp,16
ffffffff8020201c:	00000893          	li	a7,0
ffffffff80202020:	00031797          	auipc	a5,0x31
ffffffff80202024:	48078793          	addi	a5,a5,1152 # ffffffff802334a0 <TimerControl>
ffffffff80202028:	0007b703          	ld	a4,0(a5)
ffffffff8020202c:	000187b7          	lui	a5,0x18
ffffffff80202030:	6a078793          	addi	a5,a5,1696 # 186a0 <CONTEXT_SZ+0x1867c>
ffffffff80202034:	00f707b3          	add	a5,a4,a5
ffffffff80202038:	00078513          	mv	a0,a5
ffffffff8020203c:	00000593          	li	a1,0
ffffffff80202040:	00000613          	li	a2,0
ffffffff80202044:	00000073          	ecall
ffffffff80202048:	00000013          	nop
ffffffff8020204c:	00813403          	ld	s0,8(sp)
ffffffff80202050:	01010113          	addi	sp,sp,16
ffffffff80202054:	00008067          	ret

ffffffff80202058 <fnEnableTimerIntr>:
ffffffff80202058:	fe010113          	addi	sp,sp,-32
ffffffff8020205c:	00113c23          	sd	ra,24(sp)
ffffffff80202060:	00813823          	sd	s0,16(sp)
ffffffff80202064:	02010413          	addi	s0,sp,32
ffffffff80202068:	02000793          	li	a5,32
ffffffff8020206c:	fef43423          	sd	a5,-24(s0)
ffffffff80202070:	fe043023          	sd	zero,-32(s0)
ffffffff80202074:	00031797          	auipc	a5,0x31
ffffffff80202078:	38c78793          	addi	a5,a5,908 # ffffffff80233400 <RegisterAccess>
ffffffff8020207c:	0207b703          	ld	a4,32(a5)
ffffffff80202080:	fe040793          	addi	a5,s0,-32
ffffffff80202084:	00078513          	mv	a0,a5
ffffffff80202088:	000700e7          	jalr	a4
ffffffff8020208c:	fe043703          	ld	a4,-32(s0)
ffffffff80202090:	fe843783          	ld	a5,-24(s0)
ffffffff80202094:	00f767b3          	or	a5,a4,a5
ffffffff80202098:	fef43023          	sd	a5,-32(s0)
ffffffff8020209c:	00031797          	auipc	a5,0x31
ffffffff802020a0:	36478793          	addi	a5,a5,868 # ffffffff80233400 <RegisterAccess>
ffffffff802020a4:	0487b703          	ld	a4,72(a5)
ffffffff802020a8:	fe043783          	ld	a5,-32(s0)
ffffffff802020ac:	00078513          	mv	a0,a5
ffffffff802020b0:	000700e7          	jalr	a4
ffffffff802020b4:	00031797          	auipc	a5,0x31
ffffffff802020b8:	34c78793          	addi	a5,a5,844 # ffffffff80233400 <RegisterAccess>
ffffffff802020bc:	0287b783          	ld	a5,40(a5)
ffffffff802020c0:	00031517          	auipc	a0,0x31
ffffffff802020c4:	3e050513          	addi	a0,a0,992 # ffffffff802334a0 <TimerControl>
ffffffff802020c8:	000780e7          	jalr	a5
ffffffff802020cc:	f45ff0ef          	jal	ra,ffffffff80202010 <fnSetTimerInterval>
ffffffff802020d0:	00000013          	nop
ffffffff802020d4:	01813083          	ld	ra,24(sp)
ffffffff802020d8:	01013403          	ld	s0,16(sp)
ffffffff802020dc:	02010113          	addi	sp,sp,32
ffffffff802020e0:	00008067          	ret

ffffffff802020e4 <fnAddTick>:
ffffffff802020e4:	ff010113          	addi	sp,sp,-16
ffffffff802020e8:	00813423          	sd	s0,8(sp)
ffffffff802020ec:	01010413          	addi	s0,sp,16
ffffffff802020f0:	00000013          	nop
ffffffff802020f4:	00813403          	ld	s0,8(sp)
ffffffff802020f8:	01010113          	addi	sp,sp,16
ffffffff802020fc:	00008067          	ret

ffffffff80202100 <fnClearTick>:
ffffffff80202100:	ff010113          	addi	sp,sp,-16
ffffffff80202104:	00813423          	sd	s0,8(sp)
ffffffff80202108:	01010413          	addi	s0,sp,16
ffffffff8020210c:	00000013          	nop
ffffffff80202110:	00813403          	ld	s0,8(sp)
ffffffff80202114:	01010113          	addi	sp,sp,16
ffffffff80202118:	00008067          	ret

ffffffff8020211c <fnUartInit>:
ffffffff8020211c:	ff010113          	addi	sp,sp,-16
ffffffff80202120:	00113423          	sd	ra,8(sp)
ffffffff80202124:	00813023          	sd	s0,0(sp)
ffffffff80202128:	01010413          	addi	s0,sp,16
ffffffff8020212c:	00000597          	auipc	a1,0x0
ffffffff80202130:	15c58593          	addi	a1,a1,348 # ffffffff80202288 <fnUartPutCharWrap>
ffffffff80202134:	00031517          	auipc	a0,0x31
ffffffff80202138:	ecc50513          	addi	a0,a0,-308 # ffffffff80233000 <PrintBuf>
ffffffff8020213c:	138020ef          	jal	ra,ffffffff80204274 <fnStdoutInit>
ffffffff80202140:	018000ef          	jal	ra,ffffffff80202158 <fnUartHwInit>
ffffffff80202144:	00000013          	nop
ffffffff80202148:	00813083          	ld	ra,8(sp)
ffffffff8020214c:	00013403          	ld	s0,0(sp)
ffffffff80202150:	01010113          	addi	sp,sp,16
ffffffff80202154:	00008067          	ret

ffffffff80202158 <fnUartHwInit>:
ffffffff80202158:	fc010113          	addi	sp,sp,-64
ffffffff8020215c:	02813c23          	sd	s0,56(sp)
ffffffff80202160:	04010413          	addi	s0,sp,64
ffffffff80202164:	100007b7          	lui	a5,0x10000
ffffffff80202168:	fef43423          	sd	a5,-24(s0)
ffffffff8020216c:	100007b7          	lui	a5,0x10000
ffffffff80202170:	00278793          	addi	a5,a5,2 # 10000002 <CONTEXT_SZ+0xfffffde>
ffffffff80202174:	fef43023          	sd	a5,-32(s0)
ffffffff80202178:	100007b7          	lui	a5,0x10000
ffffffff8020217c:	00178793          	addi	a5,a5,1 # 10000001 <CONTEXT_SZ+0xfffffdd>
ffffffff80202180:	fcf43c23          	sd	a5,-40(s0)
ffffffff80202184:	100007b7          	lui	a5,0x10000
ffffffff80202188:	00378793          	addi	a5,a5,3 # 10000003 <CONTEXT_SZ+0xfffffdf>
ffffffff8020218c:	fcf43823          	sd	a5,-48(s0)
ffffffff80202190:	00300793          	li	a5,3
ffffffff80202194:	fcf407a3          	sb	a5,-49(s0)
ffffffff80202198:	fd043783          	ld	a5,-48(s0)
ffffffff8020219c:	fcf44703          	lbu	a4,-49(s0)
ffffffff802021a0:	00e78023          	sb	a4,0(a5)
ffffffff802021a4:	00100793          	li	a5,1
ffffffff802021a8:	fcf407a3          	sb	a5,-49(s0)
ffffffff802021ac:	fe043783          	ld	a5,-32(s0)
ffffffff802021b0:	fcf44703          	lbu	a4,-49(s0)
ffffffff802021b4:	00e78023          	sb	a4,0(a5)
ffffffff802021b8:	fd843783          	ld	a5,-40(s0)
ffffffff802021bc:	fcf44703          	lbu	a4,-49(s0)
ffffffff802021c0:	00e78023          	sb	a4,0(a5)
ffffffff802021c4:	25000793          	li	a5,592
ffffffff802021c8:	fcf41623          	sh	a5,-52(s0)
ffffffff802021cc:	fcc45783          	lhu	a5,-52(s0)
ffffffff802021d0:	fcf405a3          	sb	a5,-53(s0)
ffffffff802021d4:	fcb44783          	lbu	a5,-53(s0)
ffffffff802021d8:	fcf40523          	sb	a5,-54(s0)
ffffffff802021dc:	fcc45783          	lhu	a5,-52(s0)
ffffffff802021e0:	0087d79b          	srliw	a5,a5,0x8
ffffffff802021e4:	03079793          	slli	a5,a5,0x30
ffffffff802021e8:	0307d793          	srli	a5,a5,0x30
ffffffff802021ec:	fcf404a3          	sb	a5,-55(s0)
ffffffff802021f0:	fc944783          	lbu	a5,-55(s0)
ffffffff802021f4:	fcf40423          	sb	a5,-56(s0)
ffffffff802021f8:	fd043783          	ld	a5,-48(s0)
ffffffff802021fc:	0007c783          	lbu	a5,0(a5)
ffffffff80202200:	fcf403a3          	sb	a5,-57(s0)
ffffffff80202204:	fc744783          	lbu	a5,-57(s0)
ffffffff80202208:	f807e793          	ori	a5,a5,-128
ffffffff8020220c:	0ff7f713          	zext.b	a4,a5
ffffffff80202210:	fd043783          	ld	a5,-48(s0)
ffffffff80202214:	00e78023          	sb	a4,0(a5)
ffffffff80202218:	fe843783          	ld	a5,-24(s0)
ffffffff8020221c:	fca44703          	lbu	a4,-54(s0)
ffffffff80202220:	00e78023          	sb	a4,0(a5)
ffffffff80202224:	fd843783          	ld	a5,-40(s0)
ffffffff80202228:	fc844703          	lbu	a4,-56(s0)
ffffffff8020222c:	00e78023          	sb	a4,0(a5)
ffffffff80202230:	fd043783          	ld	a5,-48(s0)
ffffffff80202234:	fc744703          	lbu	a4,-57(s0)
ffffffff80202238:	00e78023          	sb	a4,0(a5)
ffffffff8020223c:	00000013          	nop
ffffffff80202240:	03813403          	ld	s0,56(sp)
ffffffff80202244:	04010113          	addi	sp,sp,64
ffffffff80202248:	00008067          	ret

ffffffff8020224c <fnUartPutChar>:
ffffffff8020224c:	fe010113          	addi	sp,sp,-32
ffffffff80202250:	00113c23          	sd	ra,24(sp)
ffffffff80202254:	00813823          	sd	s0,16(sp)
ffffffff80202258:	02010413          	addi	s0,sp,32
ffffffff8020225c:	00050793          	mv	a5,a0
ffffffff80202260:	fef407a3          	sb	a5,-17(s0)
ffffffff80202264:	fef44783          	lbu	a5,-17(s0)
ffffffff80202268:	00078593          	mv	a1,a5
ffffffff8020226c:	10000537          	lui	a0,0x10000
ffffffff80202270:	044010ef          	jal	ra,ffffffff802032b4 <fnMmioWriteByte>
ffffffff80202274:	00000013          	nop
ffffffff80202278:	01813083          	ld	ra,24(sp)
ffffffff8020227c:	01013403          	ld	s0,16(sp)
ffffffff80202280:	02010113          	addi	sp,sp,32
ffffffff80202284:	00008067          	ret

ffffffff80202288 <fnUartPutCharWrap>:
ffffffff80202288:	fe010113          	addi	sp,sp,-32
ffffffff8020228c:	00113c23          	sd	ra,24(sp)
ffffffff80202290:	00813823          	sd	s0,16(sp)
ffffffff80202294:	02010413          	addi	s0,sp,32
ffffffff80202298:	fea43423          	sd	a0,-24(s0)
ffffffff8020229c:	00058793          	mv	a5,a1
ffffffff802022a0:	fef403a3          	sb	a5,-25(s0)
ffffffff802022a4:	fe744783          	lbu	a5,-25(s0)
ffffffff802022a8:	00078513          	mv	a0,a5
ffffffff802022ac:	794010ef          	jal	ra,ffffffff80203a40 <fnConsolePucharSbi>
ffffffff802022b0:	00000013          	nop
ffffffff802022b4:	01813083          	ld	ra,24(sp)
ffffffff802022b8:	01013403          	ld	s0,16(sp)
ffffffff802022bc:	02010113          	addi	sp,sp,32
ffffffff802022c0:	00008067          	ret

ffffffff802022c4 <fnUartGetChar>:
ffffffff802022c4:	ff010113          	addi	sp,sp,-16
ffffffff802022c8:	00813423          	sd	s0,8(sp)
ffffffff802022cc:	01010413          	addi	s0,sp,16
ffffffff802022d0:	00000013          	nop
ffffffff802022d4:	00078513          	mv	a0,a5
ffffffff802022d8:	00813403          	ld	s0,8(sp)
ffffffff802022dc:	01010113          	addi	sp,sp,16
ffffffff802022e0:	00008067          	ret

ffffffff802022e4 <fnUartPrint>:
ffffffff802022e4:	fd010113          	addi	sp,sp,-48
ffffffff802022e8:	02813423          	sd	s0,40(sp)
ffffffff802022ec:	03010413          	addi	s0,sp,48
ffffffff802022f0:	fca43c23          	sd	a0,-40(s0)
ffffffff802022f4:	fe0407a3          	sb	zero,-17(s0)
ffffffff802022f8:	00000013          	nop
ffffffff802022fc:	fef44783          	lbu	a5,-17(s0)
ffffffff80202300:	fd843703          	ld	a4,-40(s0)
ffffffff80202304:	00f707b3          	add	a5,a4,a5
ffffffff80202308:	00078023          	sb	zero,0(a5)
ffffffff8020230c:	00000013          	nop
ffffffff80202310:	02813403          	ld	s0,40(sp)
ffffffff80202314:	03010113          	addi	sp,sp,48
ffffffff80202318:	00008067          	ret

ffffffff8020231c <putc>:
ffffffff8020231c:	fe010113          	addi	sp,sp,-32
ffffffff80202320:	00813c23          	sd	s0,24(sp)
ffffffff80202324:	02010413          	addi	s0,sp,32
ffffffff80202328:	00050793          	mv	a5,a0
ffffffff8020232c:	fef407a3          	sb	a5,-17(s0)
ffffffff80202330:	00000813          	li	a6,0
ffffffff80202334:	00100893          	li	a7,1
ffffffff80202338:	fef44503          	lbu	a0,-17(s0)
ffffffff8020233c:	00000073          	ecall
ffffffff80202340:	00000013          	nop
ffffffff80202344:	01813403          	ld	s0,24(sp)
ffffffff80202348:	02010113          	addi	sp,sp,32
ffffffff8020234c:	00008067          	ret

ffffffff80202350 <kentry>:
ffffffff80202350:	ff010113          	addi	sp,sp,-16
ffffffff80202354:	00113423          	sd	ra,8(sp)
ffffffff80202358:	00813023          	sd	s0,0(sp)
ffffffff8020235c:	01010413          	addi	s0,sp,16
ffffffff80202360:	00000597          	auipc	a1,0x0
ffffffff80202364:	f2858593          	addi	a1,a1,-216 # ffffffff80202288 <fnUartPutCharWrap>
ffffffff80202368:	00031517          	auipc	a0,0x31
ffffffff8020236c:	c9850513          	addi	a0,a0,-872 # ffffffff80233000 <PrintBuf>
ffffffff80202370:	705010ef          	jal	ra,ffffffff80204274 <fnStdoutInit>
ffffffff80202374:	431000ef          	jal	ra,ffffffff80202fa4 <fnRegisterAccessInit>
ffffffff80202378:	034000ef          	jal	ra,ffffffff802023ac <fnCoremap_init>
ffffffff8020237c:	189000ef          	jal	ra,ffffffff80202d04 <fnVmInit>
ffffffff80202380:	174010ef          	jal	ra,ffffffff802034f4 <fnTrapInit>
ffffffff80202384:	c11ff0ef          	jal	ra,ffffffff80201f94 <fnTimerInit>
ffffffff80202388:	3a0000ef          	jal	ra,ffffffff80202728 <fnMallocTest>
ffffffff8020238c:	62c000ef          	jal	ra,ffffffff802029b8 <fnFreeTest>
ffffffff80202390:	38c010ef          	jal	ra,ffffffff8020371c <fnInterruptTest>
ffffffff80202394:	715010ef          	jal	ra,ffffffff802042a8 <fnGreetingPrint>
ffffffff80202398:	00031797          	auipc	a5,0x31
ffffffff8020239c:	13078793          	addi	a5,a5,304 # ffffffff802334c8 <VmControl>
ffffffff802023a0:	0107b783          	ld	a5,16(a5)
ffffffff802023a4:	000780e7          	jalr	a5
ffffffff802023a8:	0000006f          	j	ffffffff802023a8 <kentry+0x58>

ffffffff802023ac <fnCoremap_init>:
ffffffff802023ac:	ff010113          	addi	sp,sp,-16
ffffffff802023b0:	00113423          	sd	ra,8(sp)
ffffffff802023b4:	00813023          	sd	s0,0(sp)
ffffffff802023b8:	01010413          	addi	s0,sp,16
ffffffff802023bc:	00031797          	auipc	a5,0x31
ffffffff802023c0:	09c78793          	addi	a5,a5,156 # ffffffff80233458 <CoreMapControl>
ffffffff802023c4:	00000717          	auipc	a4,0x0
ffffffff802023c8:	32c70713          	addi	a4,a4,812 # ffffffff802026f0 <__coremapDump>
ffffffff802023cc:	00e7b823          	sd	a4,16(a5)
ffffffff802023d0:	00031797          	auipc	a5,0x31
ffffffff802023d4:	08878793          	addi	a5,a5,136 # ffffffff80233458 <CoreMapControl>
ffffffff802023d8:	00000717          	auipc	a4,0x0
ffffffff802023dc:	0ec70713          	addi	a4,a4,236 # ffffffff802024c4 <__coremapInit>
ffffffff802023e0:	00e7bc23          	sd	a4,24(a5)
ffffffff802023e4:	00031797          	auipc	a5,0x31
ffffffff802023e8:	07478793          	addi	a5,a5,116 # ffffffff80233458 <CoreMapControl>
ffffffff802023ec:	00000717          	auipc	a4,0x0
ffffffff802023f0:	22c70713          	addi	a4,a4,556 # ffffffff80202618 <__kfree>
ffffffff802023f4:	00e7b423          	sd	a4,8(a5)
ffffffff802023f8:	00031797          	auipc	a5,0x31
ffffffff802023fc:	06078793          	addi	a5,a5,96 # ffffffff80233458 <CoreMapControl>
ffffffff80202400:	00000717          	auipc	a4,0x0
ffffffff80202404:	14470713          	addi	a4,a4,324 # ffffffff80202544 <__kmalloc>
ffffffff80202408:	00e7b023          	sd	a4,0(a5)
ffffffff8020240c:	00031797          	auipc	a5,0x31
ffffffff80202410:	04c78793          	addi	a5,a5,76 # ffffffff80233458 <CoreMapControl>
ffffffff80202414:	0187b783          	ld	a5,24(a5)
ffffffff80202418:	000780e7          	jalr	a5
ffffffff8020241c:	0002e517          	auipc	a0,0x2e
ffffffff80202420:	be450513          	addi	a0,a0,-1052 # ffffffff80230000 <_rodata_start>
ffffffff80202424:	5cd010ef          	jal	ra,ffffffff802041f0 <_tfpPrintf>
ffffffff80202428:	0002e517          	auipc	a0,0x2e
ffffffff8020242c:	c0050513          	addi	a0,a0,-1024 # ffffffff80230028 <_rodata_start+0x28>
ffffffff80202430:	5c1010ef          	jal	ra,ffffffff802041f0 <_tfpPrintf>
ffffffff80202434:	00031797          	auipc	a5,0x31
ffffffff80202438:	02478793          	addi	a5,a5,36 # ffffffff80233458 <CoreMapControl>
ffffffff8020243c:	0207b783          	ld	a5,32(a5)
ffffffff80202440:	00078593          	mv	a1,a5
ffffffff80202444:	0002e517          	auipc	a0,0x2e
ffffffff80202448:	c0450513          	addi	a0,a0,-1020 # ffffffff80230048 <_rodata_start+0x48>
ffffffff8020244c:	5a5010ef          	jal	ra,ffffffff802041f0 <_tfpPrintf>
ffffffff80202450:	00031797          	auipc	a5,0x31
ffffffff80202454:	00878793          	addi	a5,a5,8 # ffffffff80233458 <CoreMapControl>
ffffffff80202458:	0287b783          	ld	a5,40(a5)
ffffffff8020245c:	00078593          	mv	a1,a5
ffffffff80202460:	0002e517          	auipc	a0,0x2e
ffffffff80202464:	c1050513          	addi	a0,a0,-1008 # ffffffff80230070 <_rodata_start+0x70>
ffffffff80202468:	589010ef          	jal	ra,ffffffff802041f0 <_tfpPrintf>
ffffffff8020246c:	00031797          	auipc	a5,0x31
ffffffff80202470:	fec78793          	addi	a5,a5,-20 # ffffffff80233458 <CoreMapControl>
ffffffff80202474:	0307b783          	ld	a5,48(a5)
ffffffff80202478:	00078593          	mv	a1,a5
ffffffff8020247c:	0002e517          	auipc	a0,0x2e
ffffffff80202480:	c1c50513          	addi	a0,a0,-996 # ffffffff80230098 <_rodata_start+0x98>
ffffffff80202484:	56d010ef          	jal	ra,ffffffff802041f0 <_tfpPrintf>
ffffffff80202488:	00031797          	auipc	a5,0x31
ffffffff8020248c:	fd078793          	addi	a5,a5,-48 # ffffffff80233458 <CoreMapControl>
ffffffff80202490:	0387b783          	ld	a5,56(a5)
ffffffff80202494:	00078593          	mv	a1,a5
ffffffff80202498:	0002e517          	auipc	a0,0x2e
ffffffff8020249c:	c2850513          	addi	a0,a0,-984 # ffffffff802300c0 <_rodata_start+0xc0>
ffffffff802024a0:	551010ef          	jal	ra,ffffffff802041f0 <_tfpPrintf>
ffffffff802024a4:	0002e517          	auipc	a0,0x2e
ffffffff802024a8:	b5c50513          	addi	a0,a0,-1188 # ffffffff80230000 <_rodata_start>
ffffffff802024ac:	545010ef          	jal	ra,ffffffff802041f0 <_tfpPrintf>
ffffffff802024b0:	00000013          	nop
ffffffff802024b4:	00813083          	ld	ra,8(sp)
ffffffff802024b8:	00013403          	ld	s0,0(sp)
ffffffff802024bc:	01010113          	addi	sp,sp,16
ffffffff802024c0:	00008067          	ret

ffffffff802024c4 <__coremapInit>:
ffffffff802024c4:	ff010113          	addi	sp,sp,-16
ffffffff802024c8:	00813423          	sd	s0,8(sp)
ffffffff802024cc:	01010413          	addi	s0,sp,16
ffffffff802024d0:	ffffe717          	auipc	a4,0xffffe
ffffffff802024d4:	b3070713          	addi	a4,a4,-1232 # ffffffff80200000 <__KernelStartAddr>
ffffffff802024d8:	00031797          	auipc	a5,0x31
ffffffff802024dc:	f8078793          	addi	a5,a5,-128 # ffffffff80233458 <CoreMapControl>
ffffffff802024e0:	02e7b023          	sd	a4,32(a5)
ffffffff802024e4:	0003c717          	auipc	a4,0x3c
ffffffff802024e8:	b1c70713          	addi	a4,a4,-1252 # ffffffff8023e000 <__KernelEndAddr>
ffffffff802024ec:	00031797          	auipc	a5,0x31
ffffffff802024f0:	f6c78793          	addi	a5,a5,-148 # ffffffff80233458 <CoreMapControl>
ffffffff802024f4:	02e7b423          	sd	a4,40(a5)
ffffffff802024f8:	0003c717          	auipc	a4,0x3c
ffffffff802024fc:	b0870713          	addi	a4,a4,-1272 # ffffffff8023e000 <__KernelEndAddr>
ffffffff80202500:	000017b7          	lui	a5,0x1
ffffffff80202504:	00f70733          	add	a4,a4,a5
ffffffff80202508:	00031797          	auipc	a5,0x31
ffffffff8020250c:	f5078793          	addi	a5,a5,-176 # ffffffff80233458 <CoreMapControl>
ffffffff80202510:	02e7b823          	sd	a4,48(a5)
ffffffff80202514:	00031797          	auipc	a5,0x31
ffffffff80202518:	f4478793          	addi	a5,a5,-188 # ffffffff80233458 <CoreMapControl>
ffffffff8020251c:	00010737          	lui	a4,0x10
ffffffff80202520:	fff70713          	addi	a4,a4,-1 # ffff <CONTEXT_SZ+0xffdb>
ffffffff80202524:	02e7bc23          	sd	a4,56(a5)
ffffffff80202528:	00031797          	auipc	a5,0x31
ffffffff8020252c:	f3078793          	addi	a5,a5,-208 # ffffffff80233458 <CoreMapControl>
ffffffff80202530:	0407b023          	sd	zero,64(a5)
ffffffff80202534:	00000013          	nop
ffffffff80202538:	00813403          	ld	s0,8(sp)
ffffffff8020253c:	01010113          	addi	sp,sp,16
ffffffff80202540:	00008067          	ret

ffffffff80202544 <__kmalloc>:
ffffffff80202544:	f9010113          	addi	sp,sp,-112
ffffffff80202548:	02813423          	sd	s0,40(sp)
ffffffff8020254c:	03010413          	addi	s0,sp,48
ffffffff80202550:	fca43c23          	sd	a0,-40(s0)
ffffffff80202554:	00b43423          	sd	a1,8(s0)
ffffffff80202558:	00c43823          	sd	a2,16(s0)
ffffffff8020255c:	00d43c23          	sd	a3,24(s0)
ffffffff80202560:	02e43023          	sd	a4,32(s0)
ffffffff80202564:	02f43423          	sd	a5,40(s0)
ffffffff80202568:	03043823          	sd	a6,48(s0)
ffffffff8020256c:	03143c23          	sd	a7,56(s0)
ffffffff80202570:	fe043423          	sd	zero,-24(s0)
ffffffff80202574:	00031797          	auipc	a5,0x31
ffffffff80202578:	ee478793          	addi	a5,a5,-284 # ffffffff80233458 <CoreMapControl>
ffffffff8020257c:	0407b703          	ld	a4,64(a5)
ffffffff80202580:	00031797          	auipc	a5,0x31
ffffffff80202584:	ed878793          	addi	a5,a5,-296 # ffffffff80233458 <CoreMapControl>
ffffffff80202588:	0387b783          	ld	a5,56(a5)
ffffffff8020258c:	00f76663          	bltu	a4,a5,ffffffff80202598 <__kmalloc+0x54>
ffffffff80202590:	00100073          	ebreak
ffffffff80202594:	0700006f          	j	ffffffff80202604 <__kmalloc+0xc0>
ffffffff80202598:	fd843783          	ld	a5,-40(s0)
ffffffff8020259c:	fef43023          	sd	a5,-32(s0)
ffffffff802025a0:	00031797          	auipc	a5,0x31
ffffffff802025a4:	eb878793          	addi	a5,a5,-328 # ffffffff80233458 <CoreMapControl>
ffffffff802025a8:	0307b703          	ld	a4,48(a5)
ffffffff802025ac:	00031797          	auipc	a5,0x31
ffffffff802025b0:	eac78793          	addi	a5,a5,-340 # ffffffff80233458 <CoreMapControl>
ffffffff802025b4:	0407b783          	ld	a5,64(a5)
ffffffff802025b8:	00c79793          	slli	a5,a5,0xc
ffffffff802025bc:	00f707b3          	add	a5,a4,a5
ffffffff802025c0:	fef43423          	sd	a5,-24(s0)
ffffffff802025c4:	00031797          	auipc	a5,0x31
ffffffff802025c8:	e9478793          	addi	a5,a5,-364 # ffffffff80233458 <CoreMapControl>
ffffffff802025cc:	0407b703          	ld	a4,64(a5)
ffffffff802025d0:	fe043783          	ld	a5,-32(s0)
ffffffff802025d4:	0007b783          	ld	a5,0(a5)
ffffffff802025d8:	00078693          	mv	a3,a5
ffffffff802025dc:	001007b7          	lui	a5,0x100
ffffffff802025e0:	fff78793          	addi	a5,a5,-1 # fffff <CONTEXT_SZ+0xfffdb>
ffffffff802025e4:	00f6f7b3          	and	a5,a3,a5
ffffffff802025e8:	0007879b          	sext.w	a5,a5
ffffffff802025ec:	02079793          	slli	a5,a5,0x20
ffffffff802025f0:	0207d793          	srli	a5,a5,0x20
ffffffff802025f4:	00f70733          	add	a4,a4,a5
ffffffff802025f8:	00031797          	auipc	a5,0x31
ffffffff802025fc:	e6078793          	addi	a5,a5,-416 # ffffffff80233458 <CoreMapControl>
ffffffff80202600:	04e7b023          	sd	a4,64(a5)
ffffffff80202604:	fe843783          	ld	a5,-24(s0)
ffffffff80202608:	00078513          	mv	a0,a5
ffffffff8020260c:	02813403          	ld	s0,40(sp)
ffffffff80202610:	07010113          	addi	sp,sp,112
ffffffff80202614:	00008067          	ret

ffffffff80202618 <__kfree>:
ffffffff80202618:	f9010113          	addi	sp,sp,-112
ffffffff8020261c:	02813423          	sd	s0,40(sp)
ffffffff80202620:	03010413          	addi	s0,sp,48
ffffffff80202624:	fca43c23          	sd	a0,-40(s0)
ffffffff80202628:	00b43423          	sd	a1,8(s0)
ffffffff8020262c:	00c43823          	sd	a2,16(s0)
ffffffff80202630:	00d43c23          	sd	a3,24(s0)
ffffffff80202634:	02e43023          	sd	a4,32(s0)
ffffffff80202638:	02f43423          	sd	a5,40(s0)
ffffffff8020263c:	03043823          	sd	a6,48(s0)
ffffffff80202640:	03143c23          	sd	a7,56(s0)
ffffffff80202644:	00031797          	auipc	a5,0x31
ffffffff80202648:	e1478793          	addi	a5,a5,-492 # ffffffff80233458 <CoreMapControl>
ffffffff8020264c:	0407b783          	ld	a5,64(a5)
ffffffff80202650:	00079663          	bnez	a5,ffffffff8020265c <__kfree+0x44>
ffffffff80202654:	00100073          	ebreak
ffffffff80202658:	0880006f          	j	ffffffff802026e0 <__kfree+0xc8>
ffffffff8020265c:	fd843783          	ld	a5,-40(s0)
ffffffff80202660:	fef43423          	sd	a5,-24(s0)
ffffffff80202664:	fe843783          	ld	a5,-24(s0)
ffffffff80202668:	0007b783          	ld	a5,0(a5)
ffffffff8020266c:	00078713          	mv	a4,a5
ffffffff80202670:	001007b7          	lui	a5,0x100
ffffffff80202674:	fff78793          	addi	a5,a5,-1 # fffff <CONTEXT_SZ+0xfffdb>
ffffffff80202678:	00f777b3          	and	a5,a4,a5
ffffffff8020267c:	0007879b          	sext.w	a5,a5
ffffffff80202680:	02079713          	slli	a4,a5,0x20
ffffffff80202684:	02075713          	srli	a4,a4,0x20
ffffffff80202688:	00031797          	auipc	a5,0x31
ffffffff8020268c:	dd078793          	addi	a5,a5,-560 # ffffffff80233458 <CoreMapControl>
ffffffff80202690:	0407b783          	ld	a5,64(a5)
ffffffff80202694:	00e7f663          	bgeu	a5,a4,ffffffff802026a0 <__kfree+0x88>
ffffffff80202698:	00100073          	ebreak
ffffffff8020269c:	0440006f          	j	ffffffff802026e0 <__kfree+0xc8>
ffffffff802026a0:	00031797          	auipc	a5,0x31
ffffffff802026a4:	db878793          	addi	a5,a5,-584 # ffffffff80233458 <CoreMapControl>
ffffffff802026a8:	0407b703          	ld	a4,64(a5)
ffffffff802026ac:	fe843783          	ld	a5,-24(s0)
ffffffff802026b0:	0007b783          	ld	a5,0(a5)
ffffffff802026b4:	00078693          	mv	a3,a5
ffffffff802026b8:	001007b7          	lui	a5,0x100
ffffffff802026bc:	fff78793          	addi	a5,a5,-1 # fffff <CONTEXT_SZ+0xfffdb>
ffffffff802026c0:	00f6f7b3          	and	a5,a3,a5
ffffffff802026c4:	0007879b          	sext.w	a5,a5
ffffffff802026c8:	02079793          	slli	a5,a5,0x20
ffffffff802026cc:	0207d793          	srli	a5,a5,0x20
ffffffff802026d0:	40f70733          	sub	a4,a4,a5
ffffffff802026d4:	00031797          	auipc	a5,0x31
ffffffff802026d8:	d8478793          	addi	a5,a5,-636 # ffffffff80233458 <CoreMapControl>
ffffffff802026dc:	04e7b023          	sd	a4,64(a5)
ffffffff802026e0:	00000013          	nop
ffffffff802026e4:	02813403          	ld	s0,40(sp)
ffffffff802026e8:	07010113          	addi	sp,sp,112
ffffffff802026ec:	00008067          	ret

ffffffff802026f0 <__coremapDump>:
ffffffff802026f0:	ff010113          	addi	sp,sp,-16
ffffffff802026f4:	00813423          	sd	s0,8(sp)
ffffffff802026f8:	01010413          	addi	s0,sp,16
ffffffff802026fc:	00000013          	nop
ffffffff80202700:	00813403          	ld	s0,8(sp)
ffffffff80202704:	01010113          	addi	sp,sp,16
ffffffff80202708:	00008067          	ret

ffffffff8020270c <__freelistMgnt>:
ffffffff8020270c:	ff010113          	addi	sp,sp,-16
ffffffff80202710:	00813423          	sd	s0,8(sp)
ffffffff80202714:	01010413          	addi	s0,sp,16
ffffffff80202718:	00000013          	nop
ffffffff8020271c:	00813403          	ld	s0,8(sp)
ffffffff80202720:	01010113          	addi	sp,sp,16
ffffffff80202724:	00008067          	ret

ffffffff80202728 <fnMallocTest>:
ffffffff80202728:	fd010113          	addi	sp,sp,-48
ffffffff8020272c:	02113423          	sd	ra,40(sp)
ffffffff80202730:	02813023          	sd	s0,32(sp)
ffffffff80202734:	00913c23          	sd	s1,24(sp)
ffffffff80202738:	03010413          	addi	s0,sp,48
ffffffff8020273c:	0002e517          	auipc	a0,0x2e
ffffffff80202740:	8c450513          	addi	a0,a0,-1852 # ffffffff80230000 <_rodata_start>
ffffffff80202744:	2ad010ef          	jal	ra,ffffffff802041f0 <_tfpPrintf>
ffffffff80202748:	0002e517          	auipc	a0,0x2e
ffffffff8020274c:	9a050513          	addi	a0,a0,-1632 # ffffffff802300e8 <_rodata_start+0xe8>
ffffffff80202750:	2a1010ef          	jal	ra,ffffffff802041f0 <_tfpPrintf>
ffffffff80202754:	fd843703          	ld	a4,-40(s0)
ffffffff80202758:	fff007b7          	lui	a5,0xfff00
ffffffff8020275c:	00f777b3          	and	a5,a4,a5
ffffffff80202760:	0017e793          	ori	a5,a5,1
ffffffff80202764:	fcf43c23          	sd	a5,-40(s0)
ffffffff80202768:	fd843783          	ld	a5,-40(s0)
ffffffff8020276c:	00078713          	mv	a4,a5
ffffffff80202770:	001007b7          	lui	a5,0x100
ffffffff80202774:	fff78793          	addi	a5,a5,-1 # fffff <CONTEXT_SZ+0xfffdb>
ffffffff80202778:	00f777b3          	and	a5,a4,a5
ffffffff8020277c:	0007879b          	sext.w	a5,a5
ffffffff80202780:	0007849b          	sext.w	s1,a5
ffffffff80202784:	00031797          	auipc	a5,0x31
ffffffff80202788:	cd478793          	addi	a5,a5,-812 # ffffffff80233458 <CoreMapControl>
ffffffff8020278c:	0007b703          	ld	a4,0(a5)
ffffffff80202790:	fd840793          	addi	a5,s0,-40
ffffffff80202794:	00078513          	mv	a0,a5
ffffffff80202798:	000700e7          	jalr	a4
ffffffff8020279c:	00050793          	mv	a5,a0
ffffffff802027a0:	00078613          	mv	a2,a5
ffffffff802027a4:	00048593          	mv	a1,s1
ffffffff802027a8:	0002e517          	auipc	a0,0x2e
ffffffff802027ac:	96050513          	addi	a0,a0,-1696 # ffffffff80230108 <_rodata_start+0x108>
ffffffff802027b0:	241010ef          	jal	ra,ffffffff802041f0 <_tfpPrintf>
ffffffff802027b4:	fd843783          	ld	a5,-40(s0)
ffffffff802027b8:	00078713          	mv	a4,a5
ffffffff802027bc:	001007b7          	lui	a5,0x100
ffffffff802027c0:	fff78793          	addi	a5,a5,-1 # fffff <CONTEXT_SZ+0xfffdb>
ffffffff802027c4:	00f777b3          	and	a5,a4,a5
ffffffff802027c8:	0007879b          	sext.w	a5,a5
ffffffff802027cc:	0017871b          	addiw	a4,a5,1
ffffffff802027d0:	001007b7          	lui	a5,0x100
ffffffff802027d4:	fff78793          	addi	a5,a5,-1 # fffff <CONTEXT_SZ+0xfffdb>
ffffffff802027d8:	00f777b3          	and	a5,a4,a5
ffffffff802027dc:	0007879b          	sext.w	a5,a5
ffffffff802027e0:	02079713          	slli	a4,a5,0x20
ffffffff802027e4:	02075713          	srli	a4,a4,0x20
ffffffff802027e8:	001007b7          	lui	a5,0x100
ffffffff802027ec:	fff78793          	addi	a5,a5,-1 # fffff <CONTEXT_SZ+0xfffdb>
ffffffff802027f0:	00f777b3          	and	a5,a4,a5
ffffffff802027f4:	fd843683          	ld	a3,-40(s0)
ffffffff802027f8:	fff00737          	lui	a4,0xfff00
ffffffff802027fc:	00e6f733          	and	a4,a3,a4
ffffffff80202800:	00f767b3          	or	a5,a4,a5
ffffffff80202804:	fcf43c23          	sd	a5,-40(s0)
ffffffff80202808:	fd843783          	ld	a5,-40(s0)
ffffffff8020280c:	00078713          	mv	a4,a5
ffffffff80202810:	001007b7          	lui	a5,0x100
ffffffff80202814:	fff78793          	addi	a5,a5,-1 # fffff <CONTEXT_SZ+0xfffdb>
ffffffff80202818:	00f777b3          	and	a5,a4,a5
ffffffff8020281c:	0007879b          	sext.w	a5,a5
ffffffff80202820:	0007849b          	sext.w	s1,a5
ffffffff80202824:	00031797          	auipc	a5,0x31
ffffffff80202828:	c3478793          	addi	a5,a5,-972 # ffffffff80233458 <CoreMapControl>
ffffffff8020282c:	0007b703          	ld	a4,0(a5)
ffffffff80202830:	fd840793          	addi	a5,s0,-40
ffffffff80202834:	00078513          	mv	a0,a5
ffffffff80202838:	000700e7          	jalr	a4 # fffffffffff00000 <__KernelEndAddr+0x7fcc2000>
ffffffff8020283c:	00050793          	mv	a5,a0
ffffffff80202840:	00078613          	mv	a2,a5
ffffffff80202844:	00048593          	mv	a1,s1
ffffffff80202848:	0002e517          	auipc	a0,0x2e
ffffffff8020284c:	8c050513          	addi	a0,a0,-1856 # ffffffff80230108 <_rodata_start+0x108>
ffffffff80202850:	1a1010ef          	jal	ra,ffffffff802041f0 <_tfpPrintf>
ffffffff80202854:	fd843783          	ld	a5,-40(s0)
ffffffff80202858:	00078713          	mv	a4,a5
ffffffff8020285c:	001007b7          	lui	a5,0x100
ffffffff80202860:	fff78793          	addi	a5,a5,-1 # fffff <CONTEXT_SZ+0xfffdb>
ffffffff80202864:	00f777b3          	and	a5,a4,a5
ffffffff80202868:	0007879b          	sext.w	a5,a5
ffffffff8020286c:	0017871b          	addiw	a4,a5,1
ffffffff80202870:	001007b7          	lui	a5,0x100
ffffffff80202874:	fff78793          	addi	a5,a5,-1 # fffff <CONTEXT_SZ+0xfffdb>
ffffffff80202878:	00f777b3          	and	a5,a4,a5
ffffffff8020287c:	0007879b          	sext.w	a5,a5
ffffffff80202880:	02079713          	slli	a4,a5,0x20
ffffffff80202884:	02075713          	srli	a4,a4,0x20
ffffffff80202888:	001007b7          	lui	a5,0x100
ffffffff8020288c:	fff78793          	addi	a5,a5,-1 # fffff <CONTEXT_SZ+0xfffdb>
ffffffff80202890:	00f777b3          	and	a5,a4,a5
ffffffff80202894:	fd843683          	ld	a3,-40(s0)
ffffffff80202898:	fff00737          	lui	a4,0xfff00
ffffffff8020289c:	00e6f733          	and	a4,a3,a4
ffffffff802028a0:	00f767b3          	or	a5,a4,a5
ffffffff802028a4:	fcf43c23          	sd	a5,-40(s0)
ffffffff802028a8:	fd843783          	ld	a5,-40(s0)
ffffffff802028ac:	00078713          	mv	a4,a5
ffffffff802028b0:	001007b7          	lui	a5,0x100
ffffffff802028b4:	fff78793          	addi	a5,a5,-1 # fffff <CONTEXT_SZ+0xfffdb>
ffffffff802028b8:	00f777b3          	and	a5,a4,a5
ffffffff802028bc:	0007879b          	sext.w	a5,a5
ffffffff802028c0:	0007849b          	sext.w	s1,a5
ffffffff802028c4:	00031797          	auipc	a5,0x31
ffffffff802028c8:	b9478793          	addi	a5,a5,-1132 # ffffffff80233458 <CoreMapControl>
ffffffff802028cc:	0007b703          	ld	a4,0(a5)
ffffffff802028d0:	fd840793          	addi	a5,s0,-40
ffffffff802028d4:	00078513          	mv	a0,a5
ffffffff802028d8:	000700e7          	jalr	a4 # fffffffffff00000 <__KernelEndAddr+0x7fcc2000>
ffffffff802028dc:	00050793          	mv	a5,a0
ffffffff802028e0:	00078613          	mv	a2,a5
ffffffff802028e4:	00048593          	mv	a1,s1
ffffffff802028e8:	0002e517          	auipc	a0,0x2e
ffffffff802028ec:	82050513          	addi	a0,a0,-2016 # ffffffff80230108 <_rodata_start+0x108>
ffffffff802028f0:	101010ef          	jal	ra,ffffffff802041f0 <_tfpPrintf>
ffffffff802028f4:	fd843783          	ld	a5,-40(s0)
ffffffff802028f8:	00078713          	mv	a4,a5
ffffffff802028fc:	001007b7          	lui	a5,0x100
ffffffff80202900:	fff78793          	addi	a5,a5,-1 # fffff <CONTEXT_SZ+0xfffdb>
ffffffff80202904:	00f777b3          	and	a5,a4,a5
ffffffff80202908:	0007879b          	sext.w	a5,a5
ffffffff8020290c:	0017871b          	addiw	a4,a5,1
ffffffff80202910:	001007b7          	lui	a5,0x100
ffffffff80202914:	fff78793          	addi	a5,a5,-1 # fffff <CONTEXT_SZ+0xfffdb>
ffffffff80202918:	00f777b3          	and	a5,a4,a5
ffffffff8020291c:	0007879b          	sext.w	a5,a5
ffffffff80202920:	02079713          	slli	a4,a5,0x20
ffffffff80202924:	02075713          	srli	a4,a4,0x20
ffffffff80202928:	001007b7          	lui	a5,0x100
ffffffff8020292c:	fff78793          	addi	a5,a5,-1 # fffff <CONTEXT_SZ+0xfffdb>
ffffffff80202930:	00f777b3          	and	a5,a4,a5
ffffffff80202934:	fd843683          	ld	a3,-40(s0)
ffffffff80202938:	fff00737          	lui	a4,0xfff00
ffffffff8020293c:	00e6f733          	and	a4,a3,a4
ffffffff80202940:	00f767b3          	or	a5,a4,a5
ffffffff80202944:	fcf43c23          	sd	a5,-40(s0)
ffffffff80202948:	fd843783          	ld	a5,-40(s0)
ffffffff8020294c:	00078713          	mv	a4,a5
ffffffff80202950:	001007b7          	lui	a5,0x100
ffffffff80202954:	fff78793          	addi	a5,a5,-1 # fffff <CONTEXT_SZ+0xfffdb>
ffffffff80202958:	00f777b3          	and	a5,a4,a5
ffffffff8020295c:	0007879b          	sext.w	a5,a5
ffffffff80202960:	0007849b          	sext.w	s1,a5
ffffffff80202964:	00031797          	auipc	a5,0x31
ffffffff80202968:	af478793          	addi	a5,a5,-1292 # ffffffff80233458 <CoreMapControl>
ffffffff8020296c:	0007b703          	ld	a4,0(a5)
ffffffff80202970:	fd840793          	addi	a5,s0,-40
ffffffff80202974:	00078513          	mv	a0,a5
ffffffff80202978:	000700e7          	jalr	a4 # fffffffffff00000 <__KernelEndAddr+0x7fcc2000>
ffffffff8020297c:	00050793          	mv	a5,a0
ffffffff80202980:	00078613          	mv	a2,a5
ffffffff80202984:	00048593          	mv	a1,s1
ffffffff80202988:	0002d517          	auipc	a0,0x2d
ffffffff8020298c:	78050513          	addi	a0,a0,1920 # ffffffff80230108 <_rodata_start+0x108>
ffffffff80202990:	061010ef          	jal	ra,ffffffff802041f0 <_tfpPrintf>
ffffffff80202994:	0002d517          	auipc	a0,0x2d
ffffffff80202998:	7a450513          	addi	a0,a0,1956 # ffffffff80230138 <_rodata_start+0x138>
ffffffff8020299c:	055010ef          	jal	ra,ffffffff802041f0 <_tfpPrintf>
ffffffff802029a0:	00000013          	nop
ffffffff802029a4:	02813083          	ld	ra,40(sp)
ffffffff802029a8:	02013403          	ld	s0,32(sp)
ffffffff802029ac:	01813483          	ld	s1,24(sp)
ffffffff802029b0:	03010113          	addi	sp,sp,48
ffffffff802029b4:	00008067          	ret

ffffffff802029b8 <fnFreeTest>:
ffffffff802029b8:	fe010113          	addi	sp,sp,-32
ffffffff802029bc:	00113c23          	sd	ra,24(sp)
ffffffff802029c0:	00813823          	sd	s0,16(sp)
ffffffff802029c4:	02010413          	addi	s0,sp,32
ffffffff802029c8:	0002d517          	auipc	a0,0x2d
ffffffff802029cc:	63850513          	addi	a0,a0,1592 # ffffffff80230000 <_rodata_start>
ffffffff802029d0:	021010ef          	jal	ra,ffffffff802041f0 <_tfpPrintf>
ffffffff802029d4:	0002d517          	auipc	a0,0x2d
ffffffff802029d8:	78450513          	addi	a0,a0,1924 # ffffffff80230158 <_rodata_start+0x158>
ffffffff802029dc:	015010ef          	jal	ra,ffffffff802041f0 <_tfpPrintf>
ffffffff802029e0:	fe843703          	ld	a4,-24(s0)
ffffffff802029e4:	fff007b7          	lui	a5,0xfff00
ffffffff802029e8:	00f777b3          	and	a5,a4,a5
ffffffff802029ec:	0017e793          	ori	a5,a5,1
ffffffff802029f0:	fef43423          	sd	a5,-24(s0)
ffffffff802029f4:	00031797          	auipc	a5,0x31
ffffffff802029f8:	a6478793          	addi	a5,a5,-1436 # ffffffff80233458 <CoreMapControl>
ffffffff802029fc:	0087b703          	ld	a4,8(a5)
ffffffff80202a00:	fe840793          	addi	a5,s0,-24
ffffffff80202a04:	00078513          	mv	a0,a5
ffffffff80202a08:	000700e7          	jalr	a4
ffffffff80202a0c:	fe843783          	ld	a5,-24(s0)
ffffffff80202a10:	00078713          	mv	a4,a5
ffffffff80202a14:	001007b7          	lui	a5,0x100
ffffffff80202a18:	fff78793          	addi	a5,a5,-1 # fffff <CONTEXT_SZ+0xfffdb>
ffffffff80202a1c:	00f777b3          	and	a5,a4,a5
ffffffff80202a20:	0007879b          	sext.w	a5,a5
ffffffff80202a24:	0007869b          	sext.w	a3,a5
ffffffff80202a28:	00031797          	auipc	a5,0x31
ffffffff80202a2c:	a3078793          	addi	a5,a5,-1488 # ffffffff80233458 <CoreMapControl>
ffffffff80202a30:	0307b703          	ld	a4,48(a5)
ffffffff80202a34:	00031797          	auipc	a5,0x31
ffffffff80202a38:	a2478793          	addi	a5,a5,-1500 # ffffffff80233458 <CoreMapControl>
ffffffff80202a3c:	0407b783          	ld	a5,64(a5)
ffffffff80202a40:	00c79793          	slli	a5,a5,0xc
ffffffff80202a44:	00f707b3          	add	a5,a4,a5
ffffffff80202a48:	00078613          	mv	a2,a5
ffffffff80202a4c:	00068593          	mv	a1,a3
ffffffff80202a50:	0002d517          	auipc	a0,0x2d
ffffffff80202a54:	72850513          	addi	a0,a0,1832 # ffffffff80230178 <_rodata_start+0x178>
ffffffff80202a58:	798010ef          	jal	ra,ffffffff802041f0 <_tfpPrintf>
ffffffff80202a5c:	fe843783          	ld	a5,-24(s0)
ffffffff80202a60:	00078713          	mv	a4,a5
ffffffff80202a64:	001007b7          	lui	a5,0x100
ffffffff80202a68:	fff78793          	addi	a5,a5,-1 # fffff <CONTEXT_SZ+0xfffdb>
ffffffff80202a6c:	00f777b3          	and	a5,a4,a5
ffffffff80202a70:	0007879b          	sext.w	a5,a5
ffffffff80202a74:	0017871b          	addiw	a4,a5,1
ffffffff80202a78:	001007b7          	lui	a5,0x100
ffffffff80202a7c:	fff78793          	addi	a5,a5,-1 # fffff <CONTEXT_SZ+0xfffdb>
ffffffff80202a80:	00f777b3          	and	a5,a4,a5
ffffffff80202a84:	0007879b          	sext.w	a5,a5
ffffffff80202a88:	02079713          	slli	a4,a5,0x20
ffffffff80202a8c:	02075713          	srli	a4,a4,0x20
ffffffff80202a90:	001007b7          	lui	a5,0x100
ffffffff80202a94:	fff78793          	addi	a5,a5,-1 # fffff <CONTEXT_SZ+0xfffdb>
ffffffff80202a98:	00f777b3          	and	a5,a4,a5
ffffffff80202a9c:	fe843683          	ld	a3,-24(s0)
ffffffff80202aa0:	fff00737          	lui	a4,0xfff00
ffffffff80202aa4:	00e6f733          	and	a4,a3,a4
ffffffff80202aa8:	00f767b3          	or	a5,a4,a5
ffffffff80202aac:	fef43423          	sd	a5,-24(s0)
ffffffff80202ab0:	00031797          	auipc	a5,0x31
ffffffff80202ab4:	9a878793          	addi	a5,a5,-1624 # ffffffff80233458 <CoreMapControl>
ffffffff80202ab8:	0087b703          	ld	a4,8(a5)
ffffffff80202abc:	fe840793          	addi	a5,s0,-24
ffffffff80202ac0:	00078513          	mv	a0,a5
ffffffff80202ac4:	000700e7          	jalr	a4 # fffffffffff00000 <__KernelEndAddr+0x7fcc2000>
ffffffff80202ac8:	fe843783          	ld	a5,-24(s0)
ffffffff80202acc:	00078713          	mv	a4,a5
ffffffff80202ad0:	001007b7          	lui	a5,0x100
ffffffff80202ad4:	fff78793          	addi	a5,a5,-1 # fffff <CONTEXT_SZ+0xfffdb>
ffffffff80202ad8:	00f777b3          	and	a5,a4,a5
ffffffff80202adc:	0007879b          	sext.w	a5,a5
ffffffff80202ae0:	0007869b          	sext.w	a3,a5
ffffffff80202ae4:	00031797          	auipc	a5,0x31
ffffffff80202ae8:	97478793          	addi	a5,a5,-1676 # ffffffff80233458 <CoreMapControl>
ffffffff80202aec:	0307b703          	ld	a4,48(a5)
ffffffff80202af0:	00031797          	auipc	a5,0x31
ffffffff80202af4:	96878793          	addi	a5,a5,-1688 # ffffffff80233458 <CoreMapControl>
ffffffff80202af8:	0407b783          	ld	a5,64(a5)
ffffffff80202afc:	00c79793          	slli	a5,a5,0xc
ffffffff80202b00:	00f707b3          	add	a5,a4,a5
ffffffff80202b04:	00078613          	mv	a2,a5
ffffffff80202b08:	00068593          	mv	a1,a3
ffffffff80202b0c:	0002d517          	auipc	a0,0x2d
ffffffff80202b10:	66c50513          	addi	a0,a0,1644 # ffffffff80230178 <_rodata_start+0x178>
ffffffff80202b14:	6dc010ef          	jal	ra,ffffffff802041f0 <_tfpPrintf>
ffffffff80202b18:	fe843783          	ld	a5,-24(s0)
ffffffff80202b1c:	00078713          	mv	a4,a5
ffffffff80202b20:	001007b7          	lui	a5,0x100
ffffffff80202b24:	fff78793          	addi	a5,a5,-1 # fffff <CONTEXT_SZ+0xfffdb>
ffffffff80202b28:	00f777b3          	and	a5,a4,a5
ffffffff80202b2c:	0007879b          	sext.w	a5,a5
ffffffff80202b30:	0017871b          	addiw	a4,a5,1
ffffffff80202b34:	001007b7          	lui	a5,0x100
ffffffff80202b38:	fff78793          	addi	a5,a5,-1 # fffff <CONTEXT_SZ+0xfffdb>
ffffffff80202b3c:	00f777b3          	and	a5,a4,a5
ffffffff80202b40:	0007879b          	sext.w	a5,a5
ffffffff80202b44:	02079713          	slli	a4,a5,0x20
ffffffff80202b48:	02075713          	srli	a4,a4,0x20
ffffffff80202b4c:	001007b7          	lui	a5,0x100
ffffffff80202b50:	fff78793          	addi	a5,a5,-1 # fffff <CONTEXT_SZ+0xfffdb>
ffffffff80202b54:	00f777b3          	and	a5,a4,a5
ffffffff80202b58:	fe843683          	ld	a3,-24(s0)
ffffffff80202b5c:	fff00737          	lui	a4,0xfff00
ffffffff80202b60:	00e6f733          	and	a4,a3,a4
ffffffff80202b64:	00f767b3          	or	a5,a4,a5
ffffffff80202b68:	fef43423          	sd	a5,-24(s0)
ffffffff80202b6c:	00031797          	auipc	a5,0x31
ffffffff80202b70:	8ec78793          	addi	a5,a5,-1812 # ffffffff80233458 <CoreMapControl>
ffffffff80202b74:	0087b703          	ld	a4,8(a5)
ffffffff80202b78:	fe840793          	addi	a5,s0,-24
ffffffff80202b7c:	00078513          	mv	a0,a5
ffffffff80202b80:	000700e7          	jalr	a4 # fffffffffff00000 <__KernelEndAddr+0x7fcc2000>
ffffffff80202b84:	fe843783          	ld	a5,-24(s0)
ffffffff80202b88:	00078713          	mv	a4,a5
ffffffff80202b8c:	001007b7          	lui	a5,0x100
ffffffff80202b90:	fff78793          	addi	a5,a5,-1 # fffff <CONTEXT_SZ+0xfffdb>
ffffffff80202b94:	00f777b3          	and	a5,a4,a5
ffffffff80202b98:	0007879b          	sext.w	a5,a5
ffffffff80202b9c:	0007869b          	sext.w	a3,a5
ffffffff80202ba0:	00031797          	auipc	a5,0x31
ffffffff80202ba4:	8b878793          	addi	a5,a5,-1864 # ffffffff80233458 <CoreMapControl>
ffffffff80202ba8:	0307b703          	ld	a4,48(a5)
ffffffff80202bac:	00031797          	auipc	a5,0x31
ffffffff80202bb0:	8ac78793          	addi	a5,a5,-1876 # ffffffff80233458 <CoreMapControl>
ffffffff80202bb4:	0407b783          	ld	a5,64(a5)
ffffffff80202bb8:	00c79793          	slli	a5,a5,0xc
ffffffff80202bbc:	00f707b3          	add	a5,a4,a5
ffffffff80202bc0:	00078613          	mv	a2,a5
ffffffff80202bc4:	00068593          	mv	a1,a3
ffffffff80202bc8:	0002d517          	auipc	a0,0x2d
ffffffff80202bcc:	5b050513          	addi	a0,a0,1456 # ffffffff80230178 <_rodata_start+0x178>
ffffffff80202bd0:	620010ef          	jal	ra,ffffffff802041f0 <_tfpPrintf>
ffffffff80202bd4:	fe843783          	ld	a5,-24(s0)
ffffffff80202bd8:	00078713          	mv	a4,a5
ffffffff80202bdc:	001007b7          	lui	a5,0x100
ffffffff80202be0:	fff78793          	addi	a5,a5,-1 # fffff <CONTEXT_SZ+0xfffdb>
ffffffff80202be4:	00f777b3          	and	a5,a4,a5
ffffffff80202be8:	0007879b          	sext.w	a5,a5
ffffffff80202bec:	0017871b          	addiw	a4,a5,1
ffffffff80202bf0:	001007b7          	lui	a5,0x100
ffffffff80202bf4:	fff78793          	addi	a5,a5,-1 # fffff <CONTEXT_SZ+0xfffdb>
ffffffff80202bf8:	00f777b3          	and	a5,a4,a5
ffffffff80202bfc:	0007879b          	sext.w	a5,a5
ffffffff80202c00:	02079713          	slli	a4,a5,0x20
ffffffff80202c04:	02075713          	srli	a4,a4,0x20
ffffffff80202c08:	001007b7          	lui	a5,0x100
ffffffff80202c0c:	fff78793          	addi	a5,a5,-1 # fffff <CONTEXT_SZ+0xfffdb>
ffffffff80202c10:	00f777b3          	and	a5,a4,a5
ffffffff80202c14:	fe843683          	ld	a3,-24(s0)
ffffffff80202c18:	fff00737          	lui	a4,0xfff00
ffffffff80202c1c:	00e6f733          	and	a4,a3,a4
ffffffff80202c20:	00f767b3          	or	a5,a4,a5
ffffffff80202c24:	fef43423          	sd	a5,-24(s0)
ffffffff80202c28:	00031797          	auipc	a5,0x31
ffffffff80202c2c:	83078793          	addi	a5,a5,-2000 # ffffffff80233458 <CoreMapControl>
ffffffff80202c30:	0087b703          	ld	a4,8(a5)
ffffffff80202c34:	fe840793          	addi	a5,s0,-24
ffffffff80202c38:	00078513          	mv	a0,a5
ffffffff80202c3c:	000700e7          	jalr	a4 # fffffffffff00000 <__KernelEndAddr+0x7fcc2000>
ffffffff80202c40:	fe843783          	ld	a5,-24(s0)
ffffffff80202c44:	00078713          	mv	a4,a5
ffffffff80202c48:	001007b7          	lui	a5,0x100
ffffffff80202c4c:	fff78793          	addi	a5,a5,-1 # fffff <CONTEXT_SZ+0xfffdb>
ffffffff80202c50:	00f777b3          	and	a5,a4,a5
ffffffff80202c54:	0007879b          	sext.w	a5,a5
ffffffff80202c58:	0007869b          	sext.w	a3,a5
ffffffff80202c5c:	00030797          	auipc	a5,0x30
ffffffff80202c60:	7fc78793          	addi	a5,a5,2044 # ffffffff80233458 <CoreMapControl>
ffffffff80202c64:	0307b703          	ld	a4,48(a5)
ffffffff80202c68:	00030797          	auipc	a5,0x30
ffffffff80202c6c:	7f078793          	addi	a5,a5,2032 # ffffffff80233458 <CoreMapControl>
ffffffff80202c70:	0407b783          	ld	a5,64(a5)
ffffffff80202c74:	00c79793          	slli	a5,a5,0xc
ffffffff80202c78:	00f707b3          	add	a5,a4,a5
ffffffff80202c7c:	00078613          	mv	a2,a5
ffffffff80202c80:	00068593          	mv	a1,a3
ffffffff80202c84:	0002d517          	auipc	a0,0x2d
ffffffff80202c88:	4f450513          	addi	a0,a0,1268 # ffffffff80230178 <_rodata_start+0x178>
ffffffff80202c8c:	564010ef          	jal	ra,ffffffff802041f0 <_tfpPrintf>
ffffffff80202c90:	0002d517          	auipc	a0,0x2d
ffffffff80202c94:	4c850513          	addi	a0,a0,1224 # ffffffff80230158 <_rodata_start+0x158>
ffffffff80202c98:	558010ef          	jal	ra,ffffffff802041f0 <_tfpPrintf>
ffffffff80202c9c:	0002d517          	auipc	a0,0x2d
ffffffff80202ca0:	36450513          	addi	a0,a0,868 # ffffffff80230000 <_rodata_start>
ffffffff80202ca4:	54c010ef          	jal	ra,ffffffff802041f0 <_tfpPrintf>
ffffffff80202ca8:	00000013          	nop
ffffffff80202cac:	01813083          	ld	ra,24(sp)
ffffffff80202cb0:	01013403          	ld	s0,16(sp)
ffffffff80202cb4:	02010113          	addi	sp,sp,32
ffffffff80202cb8:	00008067          	ret

ffffffff80202cbc <_kmap>:
ffffffff80202cbc:	fe010113          	addi	sp,sp,-32
ffffffff80202cc0:	00813c23          	sd	s0,24(sp)
ffffffff80202cc4:	02010413          	addi	s0,sp,32
ffffffff80202cc8:	fea43423          	sd	a0,-24(s0)
ffffffff80202ccc:	00100793          	li	a5,1
ffffffff80202cd0:	00078513          	mv	a0,a5
ffffffff80202cd4:	01813403          	ld	s0,24(sp)
ffffffff80202cd8:	02010113          	addi	sp,sp,32
ffffffff80202cdc:	00008067          	ret

ffffffff80202ce0 <_kunmap>:
ffffffff80202ce0:	fe010113          	addi	sp,sp,-32
ffffffff80202ce4:	00813c23          	sd	s0,24(sp)
ffffffff80202ce8:	02010413          	addi	s0,sp,32
ffffffff80202cec:	fea43423          	sd	a0,-24(s0)
ffffffff80202cf0:	00100793          	li	a5,1
ffffffff80202cf4:	00078513          	mv	a0,a5
ffffffff80202cf8:	01813403          	ld	s0,24(sp)
ffffffff80202cfc:	02010113          	addi	sp,sp,32
ffffffff80202d00:	00008067          	ret

ffffffff80202d04 <fnVmInit>:
ffffffff80202d04:	ff010113          	addi	sp,sp,-16
ffffffff80202d08:	00813423          	sd	s0,8(sp)
ffffffff80202d0c:	01010413          	addi	s0,sp,16
ffffffff80202d10:	00030797          	auipc	a5,0x30
ffffffff80202d14:	7b878793          	addi	a5,a5,1976 # ffffffff802334c8 <VmControl>
ffffffff80202d18:	00000717          	auipc	a4,0x0
ffffffff80202d1c:	07070713          	addi	a4,a4,112 # ffffffff80202d88 <_buildPageTable>
ffffffff80202d20:	00e7b823          	sd	a4,16(a5)
ffffffff80202d24:	00030797          	auipc	a5,0x30
ffffffff80202d28:	7a478793          	addi	a5,a5,1956 # ffffffff802334c8 <VmControl>
ffffffff80202d2c:	00000717          	auipc	a4,0x0
ffffffff80202d30:	f9070713          	addi	a4,a4,-112 # ffffffff80202cbc <_kmap>
ffffffff80202d34:	00e7b023          	sd	a4,0(a5)
ffffffff80202d38:	00030797          	auipc	a5,0x30
ffffffff80202d3c:	79078793          	addi	a5,a5,1936 # ffffffff802334c8 <VmControl>
ffffffff80202d40:	00000717          	auipc	a4,0x0
ffffffff80202d44:	fa070713          	addi	a4,a4,-96 # ffffffff80202ce0 <_kunmap>
ffffffff80202d48:	00e7b423          	sd	a4,8(a5)
ffffffff80202d4c:	00030797          	auipc	a5,0x30
ffffffff80202d50:	77c78793          	addi	a5,a5,1916 # ffffffff802334c8 <VmControl>
ffffffff80202d54:	00000717          	auipc	a4,0x0
ffffffff80202d58:	23470713          	addi	a4,a4,564 # ffffffff80202f88 <_registerPageTable>
ffffffff80202d5c:	02e7b023          	sd	a4,32(a5)
ffffffff80202d60:	00030797          	auipc	a5,0x30
ffffffff80202d64:	76878793          	addi	a5,a5,1896 # ffffffff802334c8 <VmControl>
ffffffff80202d68:	0207b823          	sd	zero,48(a5)
ffffffff80202d6c:	00030797          	auipc	a5,0x30
ffffffff80202d70:	75c78793          	addi	a5,a5,1884 # ffffffff802334c8 <VmControl>
ffffffff80202d74:	0207bc23          	sd	zero,56(a5)
ffffffff80202d78:	00000013          	nop
ffffffff80202d7c:	00813403          	ld	s0,8(sp)
ffffffff80202d80:	01010113          	addi	sp,sp,16
ffffffff80202d84:	00008067          	ret

ffffffff80202d88 <_buildPageTable>:
ffffffff80202d88:	fd010113          	addi	sp,sp,-48
ffffffff80202d8c:	02113423          	sd	ra,40(sp)
ffffffff80202d90:	02813023          	sd	s0,32(sp)
ffffffff80202d94:	03010413          	addi	s0,sp,48
ffffffff80202d98:	fc043c23          	sd	zero,-40(s0)
ffffffff80202d9c:	fd843703          	ld	a4,-40(s0)
ffffffff80202da0:	fff007b7          	lui	a5,0xfff00
ffffffff80202da4:	00f777b3          	and	a5,a4,a5
ffffffff80202da8:	0017e793          	ori	a5,a5,1
ffffffff80202dac:	fcf43c23          	sd	a5,-40(s0)
ffffffff80202db0:	00030797          	auipc	a5,0x30
ffffffff80202db4:	6a878793          	addi	a5,a5,1704 # ffffffff80233458 <CoreMapControl>
ffffffff80202db8:	0007b703          	ld	a4,0(a5)
ffffffff80202dbc:	fd840793          	addi	a5,s0,-40
ffffffff80202dc0:	00078513          	mv	a0,a5
ffffffff80202dc4:	000700e7          	jalr	a4
ffffffff80202dc8:	fea43423          	sd	a0,-24(s0)
ffffffff80202dcc:	00030797          	auipc	a5,0x30
ffffffff80202dd0:	6fc78793          	addi	a5,a5,1788 # ffffffff802334c8 <VmControl>
ffffffff80202dd4:	fe843703          	ld	a4,-24(s0)
ffffffff80202dd8:	02e7bc23          	sd	a4,56(a5)
ffffffff80202ddc:	fe843703          	ld	a4,-24(s0)
ffffffff80202de0:	fff00793          	li	a5,-1
ffffffff80202de4:	02079793          	slli	a5,a5,0x20
ffffffff80202de8:	00f767b3          	or	a5,a4,a5
ffffffff80202dec:	fef43023          	sd	a5,-32(s0)
ffffffff80202df0:	00030797          	auipc	a5,0x30
ffffffff80202df4:	6d878793          	addi	a5,a5,1752 # ffffffff802334c8 <VmControl>
ffffffff80202df8:	fe043703          	ld	a4,-32(s0)
ffffffff80202dfc:	02e7b823          	sd	a4,48(a5)
ffffffff80202e00:	fe043783          	ld	a5,-32(s0)
ffffffff80202e04:	01f7d713          	srli	a4,a5,0x1f
ffffffff80202e08:	fff00793          	li	a5,-1
ffffffff80202e0c:	0207d793          	srli	a5,a5,0x20
ffffffff80202e10:	00f776b3          	and	a3,a4,a5
ffffffff80202e14:	fe043703          	ld	a4,-32(s0)
ffffffff80202e18:	fff00793          	li	a5,-1
ffffffff80202e1c:	0207d793          	srli	a5,a5,0x20
ffffffff80202e20:	00f777b3          	and	a5,a4,a5
ffffffff80202e24:	00078613          	mv	a2,a5
ffffffff80202e28:	00068593          	mv	a1,a3
ffffffff80202e2c:	0002d517          	auipc	a0,0x2d
ffffffff80202e30:	38c50513          	addi	a0,a0,908 # ffffffff802301b8 <_rodata_start+0x1b8>
ffffffff80202e34:	3bc010ef          	jal	ra,ffffffff802041f0 <_tfpPrintf>
ffffffff80202e38:	00030797          	auipc	a5,0x30
ffffffff80202e3c:	69078793          	addi	a5,a5,1680 # ffffffff802334c8 <VmControl>
ffffffff80202e40:	0307b703          	ld	a4,48(a5)
ffffffff80202e44:	00030797          	auipc	a5,0x30
ffffffff80202e48:	68478793          	addi	a5,a5,1668 # ffffffff802334c8 <VmControl>
ffffffff80202e4c:	0387b783          	ld	a5,56(a5)
ffffffff80202e50:	00300613          	li	a2,3
ffffffff80202e54:	00078593          	mv	a1,a5
ffffffff80202e58:	00070513          	mv	a0,a4
ffffffff80202e5c:	018000ef          	jal	ra,ffffffff80202e74 <_updatePageTable>
ffffffff80202e60:	00000013          	nop
ffffffff80202e64:	02813083          	ld	ra,40(sp)
ffffffff80202e68:	02013403          	ld	s0,32(sp)
ffffffff80202e6c:	03010113          	addi	sp,sp,48
ffffffff80202e70:	00008067          	ret

ffffffff80202e74 <_updatePageTable>:
ffffffff80202e74:	f9010113          	addi	sp,sp,-112
ffffffff80202e78:	06113423          	sd	ra,104(sp)
ffffffff80202e7c:	06813023          	sd	s0,96(sp)
ffffffff80202e80:	07010413          	addi	s0,sp,112
ffffffff80202e84:	faa43423          	sd	a0,-88(s0)
ffffffff80202e88:	fab43023          	sd	a1,-96(s0)
ffffffff80202e8c:	00060793          	mv	a5,a2
ffffffff80202e90:	f8f40fa3          	sb	a5,-97(s0)
ffffffff80202e94:	fa843783          	ld	a5,-88(s0)
ffffffff80202e98:	00c7d793          	srli	a5,a5,0xc
ffffffff80202e9c:	1ff7f793          	andi	a5,a5,511
ffffffff80202ea0:	fcf43823          	sd	a5,-48(s0)
ffffffff80202ea4:	fa843783          	ld	a5,-88(s0)
ffffffff80202ea8:	0157d793          	srli	a5,a5,0x15
ffffffff80202eac:	1ff7f793          	andi	a5,a5,511
ffffffff80202eb0:	fcf43c23          	sd	a5,-40(s0)
ffffffff80202eb4:	fa843783          	ld	a5,-88(s0)
ffffffff80202eb8:	01e7d793          	srli	a5,a5,0x1e
ffffffff80202ebc:	1ff7f793          	andi	a5,a5,511
ffffffff80202ec0:	fef43023          	sd	a5,-32(s0)
ffffffff80202ec4:	fa043783          	ld	a5,-96(s0)
ffffffff80202ec8:	00c7d793          	srli	a5,a5,0xc
ffffffff80202ecc:	1ff7f793          	andi	a5,a5,511
ffffffff80202ed0:	faf43c23          	sd	a5,-72(s0)
ffffffff80202ed4:	fa043783          	ld	a5,-96(s0)
ffffffff80202ed8:	0157d793          	srli	a5,a5,0x15
ffffffff80202edc:	1ff7f793          	andi	a5,a5,511
ffffffff80202ee0:	fcf43023          	sd	a5,-64(s0)
ffffffff80202ee4:	fa043783          	ld	a5,-96(s0)
ffffffff80202ee8:	01e7d713          	srli	a4,a5,0x1e
ffffffff80202eec:	040007b7          	lui	a5,0x4000
ffffffff80202ef0:	fff78793          	addi	a5,a5,-1 # 3ffffff <CONTEXT_SZ+0x3ffffdb>
ffffffff80202ef4:	00f777b3          	and	a5,a4,a5
ffffffff80202ef8:	fcf43423          	sd	a5,-56(s0)
ffffffff80202efc:	00030797          	auipc	a5,0x30
ffffffff80202f00:	5cc78793          	addi	a5,a5,1484 # ffffffff802334c8 <VmControl>
ffffffff80202f04:	0307b783          	ld	a5,48(a5)
ffffffff80202f08:	fef43423          	sd	a5,-24(s0)
ffffffff80202f0c:	00030797          	auipc	a5,0x30
ffffffff80202f10:	5bc78793          	addi	a5,a5,1468 # ffffffff802334c8 <VmControl>
ffffffff80202f14:	0307b783          	ld	a5,48(a5)
ffffffff80202f18:	0207d713          	srli	a4,a5,0x20
ffffffff80202f1c:	00030797          	auipc	a5,0x30
ffffffff80202f20:	5ac78793          	addi	a5,a5,1452 # ffffffff802334c8 <VmControl>
ffffffff80202f24:	0307b783          	ld	a5,48(a5)
ffffffff80202f28:	00078613          	mv	a2,a5
ffffffff80202f2c:	00070593          	mv	a1,a4
ffffffff80202f30:	0002d517          	auipc	a0,0x2d
ffffffff80202f34:	29850513          	addi	a0,a0,664 # ffffffff802301c8 <_rodata_start+0x1c8>
ffffffff80202f38:	2b8010ef          	jal	ra,ffffffff802041f0 <_tfpPrintf>
ffffffff80202f3c:	00030797          	auipc	a5,0x30
ffffffff80202f40:	58c78793          	addi	a5,a5,1420 # ffffffff802334c8 <VmControl>
ffffffff80202f44:	0307b783          	ld	a5,48(a5)
ffffffff80202f48:	00078713          	mv	a4,a5
ffffffff80202f4c:	06400793          	li	a5,100
ffffffff80202f50:	00f73023          	sd	a5,0(a4)
ffffffff80202f54:	00030797          	auipc	a5,0x30
ffffffff80202f58:	57478793          	addi	a5,a5,1396 # ffffffff802334c8 <VmControl>
ffffffff80202f5c:	0307b783          	ld	a5,48(a5)
ffffffff80202f60:	0007b783          	ld	a5,0(a5)
ffffffff80202f64:	00078593          	mv	a1,a5
ffffffff80202f68:	0002d517          	auipc	a0,0x2d
ffffffff80202f6c:	26850513          	addi	a0,a0,616 # ffffffff802301d0 <_rodata_start+0x1d0>
ffffffff80202f70:	280010ef          	jal	ra,ffffffff802041f0 <_tfpPrintf>
ffffffff80202f74:	00000013          	nop
ffffffff80202f78:	06813083          	ld	ra,104(sp)
ffffffff80202f7c:	06013403          	ld	s0,96(sp)
ffffffff80202f80:	07010113          	addi	sp,sp,112
ffffffff80202f84:	00008067          	ret

ffffffff80202f88 <_registerPageTable>:
ffffffff80202f88:	ff010113          	addi	sp,sp,-16
ffffffff80202f8c:	00813423          	sd	s0,8(sp)
ffffffff80202f90:	01010413          	addi	s0,sp,16
ffffffff80202f94:	00000013          	nop
ffffffff80202f98:	00813403          	ld	s0,8(sp)
ffffffff80202f9c:	01010113          	addi	sp,sp,16
ffffffff80202fa0:	00008067          	ret

ffffffff80202fa4 <fnRegisterAccessInit>:
ffffffff80202fa4:	ff010113          	addi	sp,sp,-16
ffffffff80202fa8:	00813423          	sd	s0,8(sp)
ffffffff80202fac:	01010413          	addi	s0,sp,16
ffffffff80202fb0:	00030797          	auipc	a5,0x30
ffffffff80202fb4:	45078793          	addi	a5,a5,1104 # ffffffff80233400 <RegisterAccess>
ffffffff80202fb8:	00000717          	auipc	a4,0x0
ffffffff80202fbc:	0d070713          	addi	a4,a4,208 # ffffffff80203088 <__readSstatus>
ffffffff80202fc0:	00e7b023          	sd	a4,0(a5)
ffffffff80202fc4:	00030797          	auipc	a5,0x30
ffffffff80202fc8:	43c78793          	addi	a5,a5,1084 # ffffffff80233400 <RegisterAccess>
ffffffff80202fcc:	00000717          	auipc	a4,0x0
ffffffff80202fd0:	0e870713          	addi	a4,a4,232 # ffffffff802030b4 <__readSatp>
ffffffff80202fd4:	00e7b423          	sd	a4,8(a5)
ffffffff80202fd8:	00030797          	auipc	a5,0x30
ffffffff80202fdc:	42878793          	addi	a5,a5,1064 # ffffffff80233400 <RegisterAccess>
ffffffff80202fe0:	00000717          	auipc	a4,0x0
ffffffff80202fe4:	17c70713          	addi	a4,a4,380 # ffffffff8020315c <__readSscratch>
ffffffff80202fe8:	00e7b823          	sd	a4,16(a5)
ffffffff80202fec:	00030797          	auipc	a5,0x30
ffffffff80202ff0:	41478793          	addi	a5,a5,1044 # ffffffff80233400 <RegisterAccess>
ffffffff80202ff4:	00000717          	auipc	a4,0x0
ffffffff80202ff8:	1c070713          	addi	a4,a4,448 # ffffffff802031b4 <__readSie>
ffffffff80202ffc:	02e7b023          	sd	a4,32(a5)
ffffffff80203000:	00030797          	auipc	a5,0x30
ffffffff80203004:	40078793          	addi	a5,a5,1024 # ffffffff80233400 <RegisterAccess>
ffffffff80203008:	00000717          	auipc	a4,0x0
ffffffff8020300c:	0f870713          	addi	a4,a4,248 # ffffffff80203100 <__readCcycle>
ffffffff80203010:	02e7b423          	sd	a4,40(a5)
ffffffff80203014:	00030797          	auipc	a5,0x30
ffffffff80203018:	3ec78793          	addi	a5,a5,1004 # ffffffff80233400 <RegisterAccess>
ffffffff8020301c:	00000717          	auipc	a4,0x0
ffffffff80203020:	11070713          	addi	a4,a4,272 # ffffffff8020312c <__setCcycle>
ffffffff80203024:	02e7b823          	sd	a4,48(a5)
ffffffff80203028:	00030797          	auipc	a5,0x30
ffffffff8020302c:	3d878793          	addi	a5,a5,984 # ffffffff80233400 <RegisterAccess>
ffffffff80203030:	00000717          	auipc	a4,0x0
ffffffff80203034:	1d870713          	addi	a4,a4,472 # ffffffff80203208 <__writeSscratch>
ffffffff80203038:	02e7bc23          	sd	a4,56(a5)
ffffffff8020303c:	00030797          	auipc	a5,0x30
ffffffff80203040:	3c478793          	addi	a5,a5,964 # ffffffff80233400 <RegisterAccess>
ffffffff80203044:	00000717          	auipc	a4,0x0
ffffffff80203048:	21470713          	addi	a4,a4,532 # ffffffff80203258 <__writeSie>
ffffffff8020304c:	04e7b423          	sd	a4,72(a5)
ffffffff80203050:	00030797          	auipc	a5,0x30
ffffffff80203054:	3b078793          	addi	a5,a5,944 # ffffffff80233400 <RegisterAccess>
ffffffff80203058:	00000717          	auipc	a4,0x0
ffffffff8020305c:	1d870713          	addi	a4,a4,472 # ffffffff80203230 <__writeStvec>
ffffffff80203060:	04e7b023          	sd	a4,64(a5)
ffffffff80203064:	00030797          	auipc	a5,0x30
ffffffff80203068:	39c78793          	addi	a5,a5,924 # ffffffff80233400 <RegisterAccess>
ffffffff8020306c:	00000717          	auipc	a4,0x0
ffffffff80203070:	17470713          	addi	a4,a4,372 # ffffffff802031e0 <__writeSstatus>
ffffffff80203074:	04e7b823          	sd	a4,80(a5)
ffffffff80203078:	00000013          	nop
ffffffff8020307c:	00813403          	ld	s0,8(sp)
ffffffff80203080:	01010113          	addi	sp,sp,16
ffffffff80203084:	00008067          	ret

ffffffff80203088 <__readSstatus>:
ffffffff80203088:	fe010113          	addi	sp,sp,-32
ffffffff8020308c:	00813c23          	sd	s0,24(sp)
ffffffff80203090:	02010413          	addi	s0,sp,32
ffffffff80203094:	fea43423          	sd	a0,-24(s0)
ffffffff80203098:	fe843783          	ld	a5,-24(s0)
ffffffff8020309c:	10002773          	csrr	a4,sstatus
ffffffff802030a0:	00e7b023          	sd	a4,0(a5)
ffffffff802030a4:	00000013          	nop
ffffffff802030a8:	01813403          	ld	s0,24(sp)
ffffffff802030ac:	02010113          	addi	sp,sp,32
ffffffff802030b0:	00008067          	ret

ffffffff802030b4 <__readSatp>:
ffffffff802030b4:	fe010113          	addi	sp,sp,-32
ffffffff802030b8:	00813c23          	sd	s0,24(sp)
ffffffff802030bc:	02010413          	addi	s0,sp,32
ffffffff802030c0:	fea43423          	sd	a0,-24(s0)
ffffffff802030c4:	fe843783          	ld	a5,-24(s0)
ffffffff802030c8:	18002773          	csrr	a4,satp
ffffffff802030cc:	00e7b023          	sd	a4,0(a5)
ffffffff802030d0:	00000013          	nop
ffffffff802030d4:	01813403          	ld	s0,24(sp)
ffffffff802030d8:	02010113          	addi	sp,sp,32
ffffffff802030dc:	00008067          	ret

ffffffff802030e0 <__flushTlb>:
ffffffff802030e0:	fe010113          	addi	sp,sp,-32
ffffffff802030e4:	00813c23          	sd	s0,24(sp)
ffffffff802030e8:	02010413          	addi	s0,sp,32
ffffffff802030ec:	fea43423          	sd	a0,-24(s0)
ffffffff802030f0:	00000013          	nop
ffffffff802030f4:	01813403          	ld	s0,24(sp)
ffffffff802030f8:	02010113          	addi	sp,sp,32
ffffffff802030fc:	00008067          	ret

ffffffff80203100 <__readCcycle>:
ffffffff80203100:	fe010113          	addi	sp,sp,-32
ffffffff80203104:	00813c23          	sd	s0,24(sp)
ffffffff80203108:	02010413          	addi	s0,sp,32
ffffffff8020310c:	fea43423          	sd	a0,-24(s0)
ffffffff80203110:	fe843783          	ld	a5,-24(s0)
ffffffff80203114:	c0102773          	rdtime	a4
ffffffff80203118:	00e7b023          	sd	a4,0(a5)
ffffffff8020311c:	00000013          	nop
ffffffff80203120:	01813403          	ld	s0,24(sp)
ffffffff80203124:	02010113          	addi	sp,sp,32
ffffffff80203128:	00008067          	ret

ffffffff8020312c <__setCcycle>:
ffffffff8020312c:	fe010113          	addi	sp,sp,-32
ffffffff80203130:	00813c23          	sd	s0,24(sp)
ffffffff80203134:	02010413          	addi	s0,sp,32
ffffffff80203138:	fea43423          	sd	a0,-24(s0)
ffffffff8020313c:	00000893          	li	a7,0
ffffffff80203140:	fe843783          	ld	a5,-24(s0)
ffffffff80203144:	00078593          	mv	a1,a5
ffffffff80203148:	00000073          	ecall
ffffffff8020314c:	00000013          	nop
ffffffff80203150:	01813403          	ld	s0,24(sp)
ffffffff80203154:	02010113          	addi	sp,sp,32
ffffffff80203158:	00008067          	ret

ffffffff8020315c <__readSscratch>:
ffffffff8020315c:	fe010113          	addi	sp,sp,-32
ffffffff80203160:	00813c23          	sd	s0,24(sp)
ffffffff80203164:	02010413          	addi	s0,sp,32
ffffffff80203168:	fea43423          	sd	a0,-24(s0)
ffffffff8020316c:	fe843783          	ld	a5,-24(s0)
ffffffff80203170:	14002773          	csrr	a4,sscratch
ffffffff80203174:	00e7b023          	sd	a4,0(a5)
ffffffff80203178:	00000013          	nop
ffffffff8020317c:	01813403          	ld	s0,24(sp)
ffffffff80203180:	02010113          	addi	sp,sp,32
ffffffff80203184:	00008067          	ret

ffffffff80203188 <__readStvec>:
ffffffff80203188:	fe010113          	addi	sp,sp,-32
ffffffff8020318c:	00813c23          	sd	s0,24(sp)
ffffffff80203190:	02010413          	addi	s0,sp,32
ffffffff80203194:	fea43423          	sd	a0,-24(s0)
ffffffff80203198:	fe843783          	ld	a5,-24(s0)
ffffffff8020319c:	10502773          	csrr	a4,stvec
ffffffff802031a0:	00e7b023          	sd	a4,0(a5)
ffffffff802031a4:	00000013          	nop
ffffffff802031a8:	01813403          	ld	s0,24(sp)
ffffffff802031ac:	02010113          	addi	sp,sp,32
ffffffff802031b0:	00008067          	ret

ffffffff802031b4 <__readSie>:
ffffffff802031b4:	fe010113          	addi	sp,sp,-32
ffffffff802031b8:	00813c23          	sd	s0,24(sp)
ffffffff802031bc:	02010413          	addi	s0,sp,32
ffffffff802031c0:	fea43423          	sd	a0,-24(s0)
ffffffff802031c4:	fe843783          	ld	a5,-24(s0)
ffffffff802031c8:	10402773          	csrr	a4,sie
ffffffff802031cc:	00e7b023          	sd	a4,0(a5)
ffffffff802031d0:	00000013          	nop
ffffffff802031d4:	01813403          	ld	s0,24(sp)
ffffffff802031d8:	02010113          	addi	sp,sp,32
ffffffff802031dc:	00008067          	ret

ffffffff802031e0 <__writeSstatus>:
ffffffff802031e0:	fe010113          	addi	sp,sp,-32
ffffffff802031e4:	00813c23          	sd	s0,24(sp)
ffffffff802031e8:	02010413          	addi	s0,sp,32
ffffffff802031ec:	fea43423          	sd	a0,-24(s0)
ffffffff802031f0:	fe843783          	ld	a5,-24(s0)
ffffffff802031f4:	10079073          	csrw	sstatus,a5
ffffffff802031f8:	00000013          	nop
ffffffff802031fc:	01813403          	ld	s0,24(sp)
ffffffff80203200:	02010113          	addi	sp,sp,32
ffffffff80203204:	00008067          	ret

ffffffff80203208 <__writeSscratch>:
ffffffff80203208:	fe010113          	addi	sp,sp,-32
ffffffff8020320c:	00813c23          	sd	s0,24(sp)
ffffffff80203210:	02010413          	addi	s0,sp,32
ffffffff80203214:	fea43423          	sd	a0,-24(s0)
ffffffff80203218:	fe843783          	ld	a5,-24(s0)
ffffffff8020321c:	14079073          	csrw	sscratch,a5
ffffffff80203220:	00000013          	nop
ffffffff80203224:	01813403          	ld	s0,24(sp)
ffffffff80203228:	02010113          	addi	sp,sp,32
ffffffff8020322c:	00008067          	ret

ffffffff80203230 <__writeStvec>:
ffffffff80203230:	fe010113          	addi	sp,sp,-32
ffffffff80203234:	00813c23          	sd	s0,24(sp)
ffffffff80203238:	02010413          	addi	s0,sp,32
ffffffff8020323c:	fea43423          	sd	a0,-24(s0)
ffffffff80203240:	fe843783          	ld	a5,-24(s0)
ffffffff80203244:	10579073          	csrw	stvec,a5
ffffffff80203248:	00000013          	nop
ffffffff8020324c:	01813403          	ld	s0,24(sp)
ffffffff80203250:	02010113          	addi	sp,sp,32
ffffffff80203254:	00008067          	ret

ffffffff80203258 <__writeSie>:
ffffffff80203258:	fe010113          	addi	sp,sp,-32
ffffffff8020325c:	00813c23          	sd	s0,24(sp)
ffffffff80203260:	02010413          	addi	s0,sp,32
ffffffff80203264:	fea43423          	sd	a0,-24(s0)
ffffffff80203268:	fe843783          	ld	a5,-24(s0)
ffffffff8020326c:	10479073          	csrw	sie,a5
ffffffff80203270:	00000013          	nop
ffffffff80203274:	01813403          	ld	s0,24(sp)
ffffffff80203278:	02010113          	addi	sp,sp,32
ffffffff8020327c:	00008067          	ret

ffffffff80203280 <fnMmioReadByte>:
ffffffff80203280:	fe010113          	addi	sp,sp,-32
ffffffff80203284:	00813c23          	sd	s0,24(sp)
ffffffff80203288:	02010413          	addi	s0,sp,32
ffffffff8020328c:	fea43423          	sd	a0,-24(s0)
ffffffff80203290:	feb43023          	sd	a1,-32(s0)
ffffffff80203294:	fe843283          	ld	t0,-24(s0)
ffffffff80203298:	00028303          	lb	t1,0(t0)
ffffffff8020329c:	fe043783          	ld	a5,-32(s0)
ffffffff802032a0:	00e78023          	sb	a4,0(a5)
ffffffff802032a4:	00000013          	nop
ffffffff802032a8:	01813403          	ld	s0,24(sp)
ffffffff802032ac:	02010113          	addi	sp,sp,32
ffffffff802032b0:	00008067          	ret

ffffffff802032b4 <fnMmioWriteByte>:
ffffffff802032b4:	fe010113          	addi	sp,sp,-32
ffffffff802032b8:	00813c23          	sd	s0,24(sp)
ffffffff802032bc:	02010413          	addi	s0,sp,32
ffffffff802032c0:	fea43423          	sd	a0,-24(s0)
ffffffff802032c4:	00058793          	mv	a5,a1
ffffffff802032c8:	fef403a3          	sb	a5,-25(s0)
ffffffff802032cc:	fe843283          	ld	t0,-24(s0)
ffffffff802032d0:	fe744303          	lbu	t1,-25(s0)
ffffffff802032d4:	00628023          	sb	t1,0(t0)
ffffffff802032d8:	00000013          	nop
ffffffff802032dc:	01813403          	ld	s0,24(sp)
ffffffff802032e0:	02010113          	addi	sp,sp,32
ffffffff802032e4:	00008067          	ret

ffffffff802032e8 <__mmio_read_half_word>:
ffffffff802032e8:	fe010113          	addi	sp,sp,-32
ffffffff802032ec:	00813c23          	sd	s0,24(sp)
ffffffff802032f0:	02010413          	addi	s0,sp,32
ffffffff802032f4:	fea43423          	sd	a0,-24(s0)
ffffffff802032f8:	feb43023          	sd	a1,-32(s0)
ffffffff802032fc:	00000013          	nop
ffffffff80203300:	01813403          	ld	s0,24(sp)
ffffffff80203304:	02010113          	addi	sp,sp,32
ffffffff80203308:	00008067          	ret

ffffffff8020330c <__mmio_write_half_word>:
ffffffff8020330c:	fe010113          	addi	sp,sp,-32
ffffffff80203310:	00813c23          	sd	s0,24(sp)
ffffffff80203314:	02010413          	addi	s0,sp,32
ffffffff80203318:	fea43423          	sd	a0,-24(s0)
ffffffff8020331c:	feb43023          	sd	a1,-32(s0)
ffffffff80203320:	00000013          	nop
ffffffff80203324:	01813403          	ld	s0,24(sp)
ffffffff80203328:	02010113          	addi	sp,sp,32
ffffffff8020332c:	00008067          	ret

ffffffff80203330 <__mmio_read_word>:
ffffffff80203330:	fe010113          	addi	sp,sp,-32
ffffffff80203334:	00813c23          	sd	s0,24(sp)
ffffffff80203338:	02010413          	addi	s0,sp,32
ffffffff8020333c:	fea43423          	sd	a0,-24(s0)
ffffffff80203340:	feb43023          	sd	a1,-32(s0)
ffffffff80203344:	00000013          	nop
ffffffff80203348:	01813403          	ld	s0,24(sp)
ffffffff8020334c:	02010113          	addi	sp,sp,32
ffffffff80203350:	00008067          	ret

ffffffff80203354 <__mmio_write_word>:
ffffffff80203354:	fe010113          	addi	sp,sp,-32
ffffffff80203358:	00813c23          	sd	s0,24(sp)
ffffffff8020335c:	02010413          	addi	s0,sp,32
ffffffff80203360:	fea43423          	sd	a0,-24(s0)
ffffffff80203364:	00058793          	mv	a5,a1
ffffffff80203368:	fef42223          	sw	a5,-28(s0)
ffffffff8020336c:	00000013          	nop
ffffffff80203370:	01813403          	ld	s0,24(sp)
ffffffff80203374:	02010113          	addi	sp,sp,32
ffffffff80203378:	00008067          	ret

ffffffff8020337c <__mmio_read_double_word>:
ffffffff8020337c:	fe010113          	addi	sp,sp,-32
ffffffff80203380:	00813c23          	sd	s0,24(sp)
ffffffff80203384:	02010413          	addi	s0,sp,32
ffffffff80203388:	fea43423          	sd	a0,-24(s0)
ffffffff8020338c:	feb43023          	sd	a1,-32(s0)
ffffffff80203390:	00000013          	nop
ffffffff80203394:	01813403          	ld	s0,24(sp)
ffffffff80203398:	02010113          	addi	sp,sp,32
ffffffff8020339c:	00008067          	ret

ffffffff802033a0 <__mmio_write_double_word>:
ffffffff802033a0:	fe010113          	addi	sp,sp,-32
ffffffff802033a4:	00813c23          	sd	s0,24(sp)
ffffffff802033a8:	02010413          	addi	s0,sp,32
ffffffff802033ac:	fea43423          	sd	a0,-24(s0)
ffffffff802033b0:	feb43023          	sd	a1,-32(s0)
ffffffff802033b4:	00000013          	nop
ffffffff802033b8:	01813403          	ld	s0,24(sp)
ffffffff802033bc:	02010113          	addi	sp,sp,32
ffffffff802033c0:	00008067          	ret

ffffffff802033c4 <_handlerEbp>:
ffffffff802033c4:	fa010113          	addi	sp,sp,-96
ffffffff802033c8:	00813c23          	sd	s0,24(sp)
ffffffff802033cc:	02010413          	addi	s0,sp,32
ffffffff802033d0:	fea43423          	sd	a0,-24(s0)
ffffffff802033d4:	00b43423          	sd	a1,8(s0)
ffffffff802033d8:	00c43823          	sd	a2,16(s0)
ffffffff802033dc:	00d43c23          	sd	a3,24(s0)
ffffffff802033e0:	02e43023          	sd	a4,32(s0)
ffffffff802033e4:	02f43423          	sd	a5,40(s0)
ffffffff802033e8:	03043823          	sd	a6,48(s0)
ffffffff802033ec:	03143c23          	sd	a7,56(s0)
ffffffff802033f0:	fe843783          	ld	a5,-24(s0)
ffffffff802033f4:	1087b783          	ld	a5,264(a5)
ffffffff802033f8:	00478713          	addi	a4,a5,4
ffffffff802033fc:	fe843783          	ld	a5,-24(s0)
ffffffff80203400:	10e7b423          	sd	a4,264(a5)
ffffffff80203404:	00000013          	nop
ffffffff80203408:	01813403          	ld	s0,24(sp)
ffffffff8020340c:	06010113          	addi	sp,sp,96
ffffffff80203410:	00008067          	ret

ffffffff80203414 <_handlerSupervisorTimer>:
ffffffff80203414:	fa010113          	addi	sp,sp,-96
ffffffff80203418:	00113c23          	sd	ra,24(sp)
ffffffff8020341c:	00813823          	sd	s0,16(sp)
ffffffff80203420:	02010413          	addi	s0,sp,32
ffffffff80203424:	fea43423          	sd	a0,-24(s0)
ffffffff80203428:	00b43423          	sd	a1,8(s0)
ffffffff8020342c:	00c43823          	sd	a2,16(s0)
ffffffff80203430:	00d43c23          	sd	a3,24(s0)
ffffffff80203434:	02e43023          	sd	a4,32(s0)
ffffffff80203438:	02f43423          	sd	a5,40(s0)
ffffffff8020343c:	03043823          	sd	a6,48(s0)
ffffffff80203440:	03143c23          	sd	a7,56(s0)
ffffffff80203444:	00030797          	auipc	a5,0x30
ffffffff80203448:	fbc78793          	addi	a5,a5,-68 # ffffffff80233400 <RegisterAccess>
ffffffff8020344c:	0287b783          	ld	a5,40(a5)
ffffffff80203450:	00030517          	auipc	a0,0x30
ffffffff80203454:	05050513          	addi	a0,a0,80 # ffffffff802334a0 <TimerControl>
ffffffff80203458:	000780e7          	jalr	a5
ffffffff8020345c:	00030797          	auipc	a5,0x30
ffffffff80203460:	04478793          	addi	a5,a5,68 # ffffffff802334a0 <TimerControl>
ffffffff80203464:	0087b703          	ld	a4,8(a5)
ffffffff80203468:	06400793          	li	a5,100
ffffffff8020346c:	00f71863          	bne	a4,a5,ffffffff8020347c <_handlerSupervisorTimer+0x68>
ffffffff80203470:	00030797          	auipc	a5,0x30
ffffffff80203474:	03078793          	addi	a5,a5,48 # ffffffff802334a0 <TimerControl>
ffffffff80203478:	0007b423          	sd	zero,8(a5)
ffffffff8020347c:	00030797          	auipc	a5,0x30
ffffffff80203480:	02478793          	addi	a5,a5,36 # ffffffff802334a0 <TimerControl>
ffffffff80203484:	0087b783          	ld	a5,8(a5)
ffffffff80203488:	00178713          	addi	a4,a5,1
ffffffff8020348c:	00030797          	auipc	a5,0x30
ffffffff80203490:	01478793          	addi	a5,a5,20 # ffffffff802334a0 <TimerControl>
ffffffff80203494:	00e7b423          	sd	a4,8(a5)
ffffffff80203498:	b79fe0ef          	jal	ra,ffffffff80202010 <fnSetTimerInterval>
ffffffff8020349c:	00000013          	nop
ffffffff802034a0:	01813083          	ld	ra,24(sp)
ffffffff802034a4:	01013403          	ld	s0,16(sp)
ffffffff802034a8:	06010113          	addi	sp,sp,96
ffffffff802034ac:	00008067          	ret

ffffffff802034b0 <fnBuildIntrVetTbl>:
ffffffff802034b0:	ff010113          	addi	sp,sp,-16
ffffffff802034b4:	00813423          	sd	s0,8(sp)
ffffffff802034b8:	01010413          	addi	s0,sp,16
ffffffff802034bc:	00030797          	auipc	a5,0x30
ffffffff802034c0:	08c78793          	addi	a5,a5,140 # ffffffff80233548 <ExcpVecTbl>
ffffffff802034c4:	00000717          	auipc	a4,0x0
ffffffff802034c8:	f0070713          	addi	a4,a4,-256 # ffffffff802033c4 <_handlerEbp>
ffffffff802034cc:	00e7bc23          	sd	a4,24(a5)
ffffffff802034d0:	00030797          	auipc	a5,0x30
ffffffff802034d4:	03878793          	addi	a5,a5,56 # ffffffff80233508 <TrapVecTbl>
ffffffff802034d8:	00000717          	auipc	a4,0x0
ffffffff802034dc:	f3c70713          	addi	a4,a4,-196 # ffffffff80203414 <_handlerSupervisorTimer>
ffffffff802034e0:	02e7b423          	sd	a4,40(a5)
ffffffff802034e4:	00000013          	nop
ffffffff802034e8:	00813403          	ld	s0,8(sp)
ffffffff802034ec:	01010113          	addi	sp,sp,16
ffffffff802034f0:	00008067          	ret

ffffffff802034f4 <fnTrapInit>:
ffffffff802034f4:	fe010113          	addi	sp,sp,-32
ffffffff802034f8:	00113c23          	sd	ra,24(sp)
ffffffff802034fc:	00813823          	sd	s0,16(sp)
ffffffff80203500:	02010413          	addi	s0,sp,32
ffffffff80203504:	fadff0ef          	jal	ra,ffffffff802034b0 <fnBuildIntrVetTbl>
ffffffff80203508:	00030797          	auipc	a5,0x30
ffffffff8020350c:	ef878793          	addi	a5,a5,-264 # ffffffff80233400 <RegisterAccess>
ffffffff80203510:	0387b783          	ld	a5,56(a5)
ffffffff80203514:	00000513          	li	a0,0
ffffffff80203518:	000780e7          	jalr	a5
ffffffff8020351c:	0000d797          	auipc	a5,0xd
ffffffff80203520:	ae478793          	addi	a5,a5,-1308 # ffffffff80210000 <__trap_enter>
ffffffff80203524:	fef43423          	sd	a5,-24(s0)
ffffffff80203528:	00030797          	auipc	a5,0x30
ffffffff8020352c:	ed878793          	addi	a5,a5,-296 # ffffffff80233400 <RegisterAccess>
ffffffff80203530:	0407b703          	ld	a4,64(a5)
ffffffff80203534:	fe843783          	ld	a5,-24(s0)
ffffffff80203538:	00078513          	mv	a0,a5
ffffffff8020353c:	000700e7          	jalr	a4
ffffffff80203540:	fe043423          	sd	zero,-24(s0)
ffffffff80203544:	00030797          	auipc	a5,0x30
ffffffff80203548:	ebc78793          	addi	a5,a5,-324 # ffffffff80233400 <RegisterAccess>
ffffffff8020354c:	0007b703          	ld	a4,0(a5)
ffffffff80203550:	fe840793          	addi	a5,s0,-24
ffffffff80203554:	00078513          	mv	a0,a5
ffffffff80203558:	000700e7          	jalr	a4
ffffffff8020355c:	fe843783          	ld	a5,-24(s0)
ffffffff80203560:	0027e793          	ori	a5,a5,2
ffffffff80203564:	fef43423          	sd	a5,-24(s0)
ffffffff80203568:	00030797          	auipc	a5,0x30
ffffffff8020356c:	e9878793          	addi	a5,a5,-360 # ffffffff80233400 <RegisterAccess>
ffffffff80203570:	0507b703          	ld	a4,80(a5)
ffffffff80203574:	fe843783          	ld	a5,-24(s0)
ffffffff80203578:	00078513          	mv	a0,a5
ffffffff8020357c:	000700e7          	jalr	a4
ffffffff80203580:	fe043423          	sd	zero,-24(s0)
ffffffff80203584:	00030797          	auipc	a5,0x30
ffffffff80203588:	e7c78793          	addi	a5,a5,-388 # ffffffff80233400 <RegisterAccess>
ffffffff8020358c:	0207b703          	ld	a4,32(a5)
ffffffff80203590:	fe840793          	addi	a5,s0,-24
ffffffff80203594:	00078513          	mv	a0,a5
ffffffff80203598:	000700e7          	jalr	a4
ffffffff8020359c:	fe843783          	ld	a5,-24(s0)
ffffffff802035a0:	0027e793          	ori	a5,a5,2
ffffffff802035a4:	fef43423          	sd	a5,-24(s0)
ffffffff802035a8:	00030797          	auipc	a5,0x30
ffffffff802035ac:	e5878793          	addi	a5,a5,-424 # ffffffff80233400 <RegisterAccess>
ffffffff802035b0:	0487b703          	ld	a4,72(a5)
ffffffff802035b4:	fe843783          	ld	a5,-24(s0)
ffffffff802035b8:	00078513          	mv	a0,a5
ffffffff802035bc:	000700e7          	jalr	a4
ffffffff802035c0:	00000013          	nop
ffffffff802035c4:	01813083          	ld	ra,24(sp)
ffffffff802035c8:	01013403          	ld	s0,16(sp)
ffffffff802035cc:	02010113          	addi	sp,sp,32
ffffffff802035d0:	00008067          	ret

ffffffff802035d4 <fnDispatchInterrupt>:
ffffffff802035d4:	fe010113          	addi	sp,sp,-32
ffffffff802035d8:	00113c23          	sd	ra,24(sp)
ffffffff802035dc:	00813823          	sd	s0,16(sp)
ffffffff802035e0:	02010413          	addi	s0,sp,32
ffffffff802035e4:	fea43423          	sd	a0,-24(s0)
ffffffff802035e8:	fe843783          	ld	a5,-24(s0)
ffffffff802035ec:	1187b783          	ld	a5,280(a5)
ffffffff802035f0:	00078513          	mv	a0,a5
ffffffff802035f4:	04c000ef          	jal	ra,ffffffff80203640 <fnTrapTypeParse>
ffffffff802035f8:	00050793          	mv	a5,a0
ffffffff802035fc:	0007879b          	sext.w	a5,a5
ffffffff80203600:	00078a63          	beqz	a5,ffffffff80203614 <fnDispatchInterrupt+0x40>
ffffffff80203604:	00078713          	mv	a4,a5
ffffffff80203608:	00100793          	li	a5,1
ffffffff8020360c:	00f70a63          	beq	a4,a5,ffffffff80203620 <fnDispatchInterrupt+0x4c>
ffffffff80203610:	01c0006f          	j	ffffffff8020362c <fnDispatchInterrupt+0x58>
ffffffff80203614:	fe843503          	ld	a0,-24(s0)
ffffffff80203618:	068000ef          	jal	ra,ffffffff80203680 <fnDispatchSoftInterrupt>
ffffffff8020361c:	0100006f          	j	ffffffff8020362c <fnDispatchInterrupt+0x58>
ffffffff80203620:	fe843503          	ld	a0,-24(s0)
ffffffff80203624:	0ac000ef          	jal	ra,ffffffff802036d0 <fnDispatchExtrInterrupt>
ffffffff80203628:	00000013          	nop
ffffffff8020362c:	00000013          	nop
ffffffff80203630:	01813083          	ld	ra,24(sp)
ffffffff80203634:	01013403          	ld	s0,16(sp)
ffffffff80203638:	02010113          	addi	sp,sp,32
ffffffff8020363c:	00008067          	ret

ffffffff80203640 <fnTrapTypeParse>:
ffffffff80203640:	fd010113          	addi	sp,sp,-48
ffffffff80203644:	02813423          	sd	s0,40(sp)
ffffffff80203648:	03010413          	addi	s0,sp,48
ffffffff8020364c:	fca43c23          	sd	a0,-40(s0)
ffffffff80203650:	fd843703          	ld	a4,-40(s0)
ffffffff80203654:	fff00793          	li	a5,-1
ffffffff80203658:	03f79793          	slli	a5,a5,0x3f
ffffffff8020365c:	00f777b3          	and	a5,a4,a5
ffffffff80203660:	fef43423          	sd	a5,-24(s0)
ffffffff80203664:	fe843783          	ld	a5,-24(s0)
ffffffff80203668:	03f7d793          	srli	a5,a5,0x3f
ffffffff8020366c:	0ff7f793          	zext.b	a5,a5
ffffffff80203670:	00078513          	mv	a0,a5
ffffffff80203674:	02813403          	ld	s0,40(sp)
ffffffff80203678:	03010113          	addi	sp,sp,48
ffffffff8020367c:	00008067          	ret

ffffffff80203680 <fnDispatchSoftInterrupt>:
ffffffff80203680:	fe010113          	addi	sp,sp,-32
ffffffff80203684:	00113c23          	sd	ra,24(sp)
ffffffff80203688:	00813823          	sd	s0,16(sp)
ffffffff8020368c:	02010413          	addi	s0,sp,32
ffffffff80203690:	fea43423          	sd	a0,-24(s0)
ffffffff80203694:	fe843783          	ld	a5,-24(s0)
ffffffff80203698:	1187b783          	ld	a5,280(a5)
ffffffff8020369c:	00f7f793          	andi	a5,a5,15
ffffffff802036a0:	00030717          	auipc	a4,0x30
ffffffff802036a4:	ea870713          	addi	a4,a4,-344 # ffffffff80233548 <ExcpVecTbl>
ffffffff802036a8:	00379793          	slli	a5,a5,0x3
ffffffff802036ac:	00f707b3          	add	a5,a4,a5
ffffffff802036b0:	0007b783          	ld	a5,0(a5)
ffffffff802036b4:	fe843503          	ld	a0,-24(s0)
ffffffff802036b8:	000780e7          	jalr	a5
ffffffff802036bc:	00000013          	nop
ffffffff802036c0:	01813083          	ld	ra,24(sp)
ffffffff802036c4:	01013403          	ld	s0,16(sp)
ffffffff802036c8:	02010113          	addi	sp,sp,32
ffffffff802036cc:	00008067          	ret

ffffffff802036d0 <fnDispatchExtrInterrupt>:
ffffffff802036d0:	fe010113          	addi	sp,sp,-32
ffffffff802036d4:	00113c23          	sd	ra,24(sp)
ffffffff802036d8:	00813823          	sd	s0,16(sp)
ffffffff802036dc:	02010413          	addi	s0,sp,32
ffffffff802036e0:	fea43423          	sd	a0,-24(s0)
ffffffff802036e4:	fe843783          	ld	a5,-24(s0)
ffffffff802036e8:	1187b783          	ld	a5,280(a5)
ffffffff802036ec:	00030717          	auipc	a4,0x30
ffffffff802036f0:	e1c70713          	addi	a4,a4,-484 # ffffffff80233508 <TrapVecTbl>
ffffffff802036f4:	00379793          	slli	a5,a5,0x3
ffffffff802036f8:	00f707b3          	add	a5,a4,a5
ffffffff802036fc:	0007b783          	ld	a5,0(a5)
ffffffff80203700:	fe843503          	ld	a0,-24(s0)
ffffffff80203704:	000780e7          	jalr	a5
ffffffff80203708:	00000013          	nop
ffffffff8020370c:	01813083          	ld	ra,24(sp)
ffffffff80203710:	01013403          	ld	s0,16(sp)
ffffffff80203714:	02010113          	addi	sp,sp,32
ffffffff80203718:	00008067          	ret

ffffffff8020371c <fnInterruptTest>:
ffffffff8020371c:	ff010113          	addi	sp,sp,-16
ffffffff80203720:	00113423          	sd	ra,8(sp)
ffffffff80203724:	00813023          	sd	s0,0(sp)
ffffffff80203728:	01010413          	addi	s0,sp,16
ffffffff8020372c:	0002d517          	auipc	a0,0x2d
ffffffff80203730:	aac50513          	addi	a0,a0,-1364 # ffffffff802301d8 <_rodata_start+0x1d8>
ffffffff80203734:	2bd000ef          	jal	ra,ffffffff802041f0 <_tfpPrintf>
ffffffff80203738:	0002d517          	auipc	a0,0x2d
ffffffff8020373c:	ac850513          	addi	a0,a0,-1336 # ffffffff80230200 <_rodata_start+0x200>
ffffffff80203740:	2b1000ef          	jal	ra,ffffffff802041f0 <_tfpPrintf>
ffffffff80203744:	00100073          	ebreak
ffffffff80203748:	0002d517          	auipc	a0,0x2d
ffffffff8020374c:	ae050513          	addi	a0,a0,-1312 # ffffffff80230228 <_rodata_start+0x228>
ffffffff80203750:	2a1000ef          	jal	ra,ffffffff802041f0 <_tfpPrintf>
ffffffff80203754:	00000013          	nop
ffffffff80203758:	00030797          	auipc	a5,0x30
ffffffff8020375c:	d4878793          	addi	a5,a5,-696 # ffffffff802334a0 <TimerControl>
ffffffff80203760:	0087b703          	ld	a4,8(a5)
ffffffff80203764:	00100793          	li	a5,1
ffffffff80203768:	fee7f8e3          	bgeu	a5,a4,ffffffff80203758 <fnInterruptTest+0x3c>
ffffffff8020376c:	0002d517          	auipc	a0,0x2d
ffffffff80203770:	adc50513          	addi	a0,a0,-1316 # ffffffff80230248 <_rodata_start+0x248>
ffffffff80203774:	27d000ef          	jal	ra,ffffffff802041f0 <_tfpPrintf>
ffffffff80203778:	0002d517          	auipc	a0,0x2d
ffffffff8020377c:	af850513          	addi	a0,a0,-1288 # ffffffff80230270 <_rodata_start+0x270>
ffffffff80203780:	271000ef          	jal	ra,ffffffff802041f0 <_tfpPrintf>
ffffffff80203784:	0002d517          	auipc	a0,0x2d
ffffffff80203788:	a5450513          	addi	a0,a0,-1452 # ffffffff802301d8 <_rodata_start+0x1d8>
ffffffff8020378c:	265000ef          	jal	ra,ffffffff802041f0 <_tfpPrintf>
ffffffff80203790:	00000013          	nop
ffffffff80203794:	00813083          	ld	ra,8(sp)
ffffffff80203798:	00013403          	ld	s0,0(sp)
ffffffff8020379c:	01010113          	addi	sp,sp,16
ffffffff802037a0:	00008067          	ret

ffffffff802037a4 <__umuldi3>:
ffffffff802037a4:	fd010113          	addi	sp,sp,-48
ffffffff802037a8:	02813423          	sd	s0,40(sp)
ffffffff802037ac:	03010413          	addi	s0,sp,48
ffffffff802037b0:	00050793          	mv	a5,a0
ffffffff802037b4:	00058713          	mv	a4,a1
ffffffff802037b8:	fcf42e23          	sw	a5,-36(s0)
ffffffff802037bc:	00070793          	mv	a5,a4
ffffffff802037c0:	fcf42c23          	sw	a5,-40(s0)
ffffffff802037c4:	fe042623          	sw	zero,-20(s0)
ffffffff802037c8:	03c0006f          	j	ffffffff80203804 <__umuldi3+0x60>
ffffffff802037cc:	fd842783          	lw	a5,-40(s0)
ffffffff802037d0:	0017f793          	andi	a5,a5,1
ffffffff802037d4:	0007879b          	sext.w	a5,a5
ffffffff802037d8:	00078a63          	beqz	a5,ffffffff802037ec <__umuldi3+0x48>
ffffffff802037dc:	fec42703          	lw	a4,-20(s0)
ffffffff802037e0:	fdc42783          	lw	a5,-36(s0)
ffffffff802037e4:	00f707bb          	addw	a5,a4,a5
ffffffff802037e8:	fef42623          	sw	a5,-20(s0)
ffffffff802037ec:	fdc42783          	lw	a5,-36(s0)
ffffffff802037f0:	0017979b          	slliw	a5,a5,0x1
ffffffff802037f4:	fcf42e23          	sw	a5,-36(s0)
ffffffff802037f8:	fd842783          	lw	a5,-40(s0)
ffffffff802037fc:	0017d79b          	srliw	a5,a5,0x1
ffffffff80203800:	fcf42c23          	sw	a5,-40(s0)
ffffffff80203804:	fd842783          	lw	a5,-40(s0)
ffffffff80203808:	0007879b          	sext.w	a5,a5
ffffffff8020380c:	fc0790e3          	bnez	a5,ffffffff802037cc <__umuldi3+0x28>
ffffffff80203810:	fec42783          	lw	a5,-20(s0)
ffffffff80203814:	00078513          	mv	a0,a5
ffffffff80203818:	02813403          	ld	s0,40(sp)
ffffffff8020381c:	03010113          	addi	sp,sp,48
ffffffff80203820:	00008067          	ret

ffffffff80203824 <__muldi3>:
ffffffff80203824:	fd010113          	addi	sp,sp,-48
ffffffff80203828:	02113423          	sd	ra,40(sp)
ffffffff8020382c:	02813023          	sd	s0,32(sp)
ffffffff80203830:	03010413          	addi	s0,sp,48
ffffffff80203834:	00050793          	mv	a5,a0
ffffffff80203838:	00058713          	mv	a4,a1
ffffffff8020383c:	fcf42e23          	sw	a5,-36(s0)
ffffffff80203840:	00070793          	mv	a5,a4
ffffffff80203844:	fcf42c23          	sw	a5,-40(s0)
ffffffff80203848:	fe0407a3          	sb	zero,-17(s0)
ffffffff8020384c:	fdc42783          	lw	a5,-36(s0)
ffffffff80203850:	0007879b          	sext.w	a5,a5
ffffffff80203854:	0207d263          	bgez	a5,ffffffff80203878 <__muldi3+0x54>
ffffffff80203858:	fdc42783          	lw	a5,-36(s0)
ffffffff8020385c:	40f007bb          	negw	a5,a5
ffffffff80203860:	fcf42e23          	sw	a5,-36(s0)
ffffffff80203864:	fef44783          	lbu	a5,-17(s0)
ffffffff80203868:	0007879b          	sext.w	a5,a5
ffffffff8020386c:	0017b793          	seqz	a5,a5
ffffffff80203870:	0ff7f793          	zext.b	a5,a5
ffffffff80203874:	fef407a3          	sb	a5,-17(s0)
ffffffff80203878:	fd842783          	lw	a5,-40(s0)
ffffffff8020387c:	0007879b          	sext.w	a5,a5
ffffffff80203880:	0207d263          	bgez	a5,ffffffff802038a4 <__muldi3+0x80>
ffffffff80203884:	fd842783          	lw	a5,-40(s0)
ffffffff80203888:	40f007bb          	negw	a5,a5
ffffffff8020388c:	fcf42c23          	sw	a5,-40(s0)
ffffffff80203890:	fef44783          	lbu	a5,-17(s0)
ffffffff80203894:	0007879b          	sext.w	a5,a5
ffffffff80203898:	0017b793          	seqz	a5,a5
ffffffff8020389c:	0ff7f793          	zext.b	a5,a5
ffffffff802038a0:	fef407a3          	sb	a5,-17(s0)
ffffffff802038a4:	fdc42783          	lw	a5,-36(s0)
ffffffff802038a8:	fd842703          	lw	a4,-40(s0)
ffffffff802038ac:	00070593          	mv	a1,a4
ffffffff802038b0:	00078513          	mv	a0,a5
ffffffff802038b4:	ef1ff0ef          	jal	ra,ffffffff802037a4 <__umuldi3>
ffffffff802038b8:	00050793          	mv	a5,a0
ffffffff802038bc:	0007879b          	sext.w	a5,a5
ffffffff802038c0:	fef42423          	sw	a5,-24(s0)
ffffffff802038c4:	fef44783          	lbu	a5,-17(s0)
ffffffff802038c8:	0ff7f793          	zext.b	a5,a5
ffffffff802038cc:	00078863          	beqz	a5,ffffffff802038dc <__muldi3+0xb8>
ffffffff802038d0:	fe842783          	lw	a5,-24(s0)
ffffffff802038d4:	40f007bb          	negw	a5,a5
ffffffff802038d8:	fef42423          	sw	a5,-24(s0)
ffffffff802038dc:	fe842783          	lw	a5,-24(s0)
ffffffff802038e0:	00078513          	mv	a0,a5
ffffffff802038e4:	02813083          	ld	ra,40(sp)
ffffffff802038e8:	02013403          	ld	s0,32(sp)
ffffffff802038ec:	03010113          	addi	sp,sp,48
ffffffff802038f0:	00008067          	ret

ffffffff802038f4 <__udivdi3>:
ffffffff802038f4:	fc010113          	addi	sp,sp,-64
ffffffff802038f8:	02813c23          	sd	s0,56(sp)
ffffffff802038fc:	04010413          	addi	s0,sp,64
ffffffff80203900:	00050793          	mv	a5,a0
ffffffff80203904:	00058713          	mv	a4,a1
ffffffff80203908:	fcf42623          	sw	a5,-52(s0)
ffffffff8020390c:	00070793          	mv	a5,a4
ffffffff80203910:	fcf42423          	sw	a5,-56(s0)
ffffffff80203914:	fe042623          	sw	zero,-20(s0)
ffffffff80203918:	fc846783          	lwu	a5,-56(s0)
ffffffff8020391c:	fef43023          	sd	a5,-32(s0)
ffffffff80203920:	00100793          	li	a5,1
ffffffff80203924:	fcf42e23          	sw	a5,-36(s0)
ffffffff80203928:	01c0006f          	j	ffffffff80203944 <__udivdi3+0x50>
ffffffff8020392c:	fe043783          	ld	a5,-32(s0)
ffffffff80203930:	00179793          	slli	a5,a5,0x1
ffffffff80203934:	fef43023          	sd	a5,-32(s0)
ffffffff80203938:	fdc42783          	lw	a5,-36(s0)
ffffffff8020393c:	0017979b          	slliw	a5,a5,0x1
ffffffff80203940:	fcf42e23          	sw	a5,-36(s0)
ffffffff80203944:	fe043783          	ld	a5,-32(s0)
ffffffff80203948:	00179713          	slli	a4,a5,0x1
ffffffff8020394c:	fcc46783          	lwu	a5,-52(s0)
ffffffff80203950:	fce7fee3          	bgeu	a5,a4,ffffffff8020392c <__udivdi3+0x38>
ffffffff80203954:	04c0006f          	j	ffffffff802039a0 <__udivdi3+0xac>
ffffffff80203958:	fcc46783          	lwu	a5,-52(s0)
ffffffff8020395c:	fe043703          	ld	a4,-32(s0)
ffffffff80203960:	02e7e463          	bltu	a5,a4,ffffffff80203988 <__udivdi3+0x94>
ffffffff80203964:	fe043783          	ld	a5,-32(s0)
ffffffff80203968:	0007879b          	sext.w	a5,a5
ffffffff8020396c:	fcc42703          	lw	a4,-52(s0)
ffffffff80203970:	40f707bb          	subw	a5,a4,a5
ffffffff80203974:	fcf42623          	sw	a5,-52(s0)
ffffffff80203978:	fec42703          	lw	a4,-20(s0)
ffffffff8020397c:	fdc42783          	lw	a5,-36(s0)
ffffffff80203980:	00f707bb          	addw	a5,a4,a5
ffffffff80203984:	fef42623          	sw	a5,-20(s0)
ffffffff80203988:	fdc42783          	lw	a5,-36(s0)
ffffffff8020398c:	0017d79b          	srliw	a5,a5,0x1
ffffffff80203990:	fcf42e23          	sw	a5,-36(s0)
ffffffff80203994:	fe043783          	ld	a5,-32(s0)
ffffffff80203998:	0017d793          	srli	a5,a5,0x1
ffffffff8020399c:	fef43023          	sd	a5,-32(s0)
ffffffff802039a0:	fcc42703          	lw	a4,-52(s0)
ffffffff802039a4:	fc842783          	lw	a5,-56(s0)
ffffffff802039a8:	0007071b          	sext.w	a4,a4
ffffffff802039ac:	0007879b          	sext.w	a5,a5
ffffffff802039b0:	faf774e3          	bgeu	a4,a5,ffffffff80203958 <__udivdi3+0x64>
ffffffff802039b4:	fec42783          	lw	a5,-20(s0)
ffffffff802039b8:	00078513          	mv	a0,a5
ffffffff802039bc:	03813403          	ld	s0,56(sp)
ffffffff802039c0:	04010113          	addi	sp,sp,64
ffffffff802039c4:	00008067          	ret

ffffffff802039c8 <__umoddi3>:
ffffffff802039c8:	fe010113          	addi	sp,sp,-32
ffffffff802039cc:	00113c23          	sd	ra,24(sp)
ffffffff802039d0:	00813823          	sd	s0,16(sp)
ffffffff802039d4:	02010413          	addi	s0,sp,32
ffffffff802039d8:	00050793          	mv	a5,a0
ffffffff802039dc:	00058713          	mv	a4,a1
ffffffff802039e0:	fef42623          	sw	a5,-20(s0)
ffffffff802039e4:	00070793          	mv	a5,a4
ffffffff802039e8:	fef42423          	sw	a5,-24(s0)
ffffffff802039ec:	fe842703          	lw	a4,-24(s0)
ffffffff802039f0:	fec42783          	lw	a5,-20(s0)
ffffffff802039f4:	00070593          	mv	a1,a4
ffffffff802039f8:	00078513          	mv	a0,a5
ffffffff802039fc:	ef9ff0ef          	jal	ra,ffffffff802038f4 <__udivdi3>
ffffffff80203a00:	00050793          	mv	a5,a0
ffffffff80203a04:	0007879b          	sext.w	a5,a5
ffffffff80203a08:	fe842703          	lw	a4,-24(s0)
ffffffff80203a0c:	00070593          	mv	a1,a4
ffffffff80203a10:	00078513          	mv	a0,a5
ffffffff80203a14:	d91ff0ef          	jal	ra,ffffffff802037a4 <__umuldi3>
ffffffff80203a18:	00050793          	mv	a5,a0
ffffffff80203a1c:	0007879b          	sext.w	a5,a5
ffffffff80203a20:	fec42703          	lw	a4,-20(s0)
ffffffff80203a24:	40f707bb          	subw	a5,a4,a5
ffffffff80203a28:	0007879b          	sext.w	a5,a5
ffffffff80203a2c:	00078513          	mv	a0,a5
ffffffff80203a30:	01813083          	ld	ra,24(sp)
ffffffff80203a34:	01013403          	ld	s0,16(sp)
ffffffff80203a38:	02010113          	addi	sp,sp,32
ffffffff80203a3c:	00008067          	ret

ffffffff80203a40 <fnConsolePucharSbi>:
ffffffff80203a40:	fe010113          	addi	sp,sp,-32
ffffffff80203a44:	00813c23          	sd	s0,24(sp)
ffffffff80203a48:	02010413          	addi	s0,sp,32
ffffffff80203a4c:	00050793          	mv	a5,a0
ffffffff80203a50:	fef407a3          	sb	a5,-17(s0)
ffffffff80203a54:	00100893          	li	a7,1
ffffffff80203a58:	fef44783          	lbu	a5,-17(s0)
ffffffff80203a5c:	00078513          	mv	a0,a5
ffffffff80203a60:	00000073          	ecall
ffffffff80203a64:	00000013          	nop
ffffffff80203a68:	01813403          	ld	s0,24(sp)
ffffffff80203a6c:	02010113          	addi	sp,sp,32
ffffffff80203a70:	00008067          	ret

ffffffff80203a74 <ui2a>:
ffffffff80203a74:	fc010113          	addi	sp,sp,-64
ffffffff80203a78:	02113c23          	sd	ra,56(sp)
ffffffff80203a7c:	02813823          	sd	s0,48(sp)
ffffffff80203a80:	04010413          	addi	s0,sp,64
ffffffff80203a84:	00050793          	mv	a5,a0
ffffffff80203a88:	00060713          	mv	a4,a2
ffffffff80203a8c:	fcd43423          	sd	a3,-56(s0)
ffffffff80203a90:	fcf42e23          	sw	a5,-36(s0)
ffffffff80203a94:	00058793          	mv	a5,a1
ffffffff80203a98:	fcf42c23          	sw	a5,-40(s0)
ffffffff80203a9c:	00070793          	mv	a5,a4
ffffffff80203aa0:	fcf42a23          	sw	a5,-44(s0)
ffffffff80203aa4:	fe042623          	sw	zero,-20(s0)
ffffffff80203aa8:	00100793          	li	a5,1
ffffffff80203aac:	fef42423          	sw	a5,-24(s0)
ffffffff80203ab0:	0200006f          	j	ffffffff80203ad0 <ui2a+0x5c>
ffffffff80203ab4:	fe842783          	lw	a5,-24(s0)
ffffffff80203ab8:	fd842703          	lw	a4,-40(s0)
ffffffff80203abc:	00070593          	mv	a1,a4
ffffffff80203ac0:	00078513          	mv	a0,a5
ffffffff80203ac4:	d61ff0ef          	jal	ra,ffffffff80203824 <__muldi3>
ffffffff80203ac8:	00050793          	mv	a5,a0
ffffffff80203acc:	fef42423          	sw	a5,-24(s0)
ffffffff80203ad0:	fdc46783          	lwu	a5,-36(s0)
ffffffff80203ad4:	fe846703          	lwu	a4,-24(s0)
ffffffff80203ad8:	00070593          	mv	a1,a4
ffffffff80203adc:	00078513          	mv	a0,a5
ffffffff80203ae0:	e15ff0ef          	jal	ra,ffffffff802038f4 <__udivdi3>
ffffffff80203ae4:	00050793          	mv	a5,a0
ffffffff80203ae8:	0007871b          	sext.w	a4,a5
ffffffff80203aec:	fd842783          	lw	a5,-40(s0)
ffffffff80203af0:	0007879b          	sext.w	a5,a5
ffffffff80203af4:	fcf770e3          	bgeu	a4,a5,ffffffff80203ab4 <ui2a+0x40>
ffffffff80203af8:	0dc0006f          	j	ffffffff80203bd4 <ui2a+0x160>
ffffffff80203afc:	fdc46783          	lwu	a5,-36(s0)
ffffffff80203b00:	fe846703          	lwu	a4,-24(s0)
ffffffff80203b04:	00070593          	mv	a1,a4
ffffffff80203b08:	00078513          	mv	a0,a5
ffffffff80203b0c:	de9ff0ef          	jal	ra,ffffffff802038f4 <__udivdi3>
ffffffff80203b10:	00050793          	mv	a5,a0
ffffffff80203b14:	0007879b          	sext.w	a5,a5
ffffffff80203b18:	fef42223          	sw	a5,-28(s0)
ffffffff80203b1c:	fdc46783          	lwu	a5,-36(s0)
ffffffff80203b20:	fe846703          	lwu	a4,-24(s0)
ffffffff80203b24:	00070593          	mv	a1,a4
ffffffff80203b28:	00078513          	mv	a0,a5
ffffffff80203b2c:	e9dff0ef          	jal	ra,ffffffff802039c8 <__umoddi3>
ffffffff80203b30:	00050793          	mv	a5,a0
ffffffff80203b34:	fcf42e23          	sw	a5,-36(s0)
ffffffff80203b38:	fe846783          	lwu	a5,-24(s0)
ffffffff80203b3c:	fd846703          	lwu	a4,-40(s0)
ffffffff80203b40:	00070593          	mv	a1,a4
ffffffff80203b44:	00078513          	mv	a0,a5
ffffffff80203b48:	dadff0ef          	jal	ra,ffffffff802038f4 <__udivdi3>
ffffffff80203b4c:	00050793          	mv	a5,a0
ffffffff80203b50:	fef42423          	sw	a5,-24(s0)
ffffffff80203b54:	fec42783          	lw	a5,-20(s0)
ffffffff80203b58:	0007879b          	sext.w	a5,a5
ffffffff80203b5c:	00079e63          	bnez	a5,ffffffff80203b78 <ui2a+0x104>
ffffffff80203b60:	fe442783          	lw	a5,-28(s0)
ffffffff80203b64:	0007879b          	sext.w	a5,a5
ffffffff80203b68:	00f04863          	bgtz	a5,ffffffff80203b78 <ui2a+0x104>
ffffffff80203b6c:	fe842783          	lw	a5,-24(s0)
ffffffff80203b70:	0007879b          	sext.w	a5,a5
ffffffff80203b74:	06079063          	bnez	a5,ffffffff80203bd4 <ui2a+0x160>
ffffffff80203b78:	fe442783          	lw	a5,-28(s0)
ffffffff80203b7c:	0007871b          	sext.w	a4,a5
ffffffff80203b80:	00900793          	li	a5,9
ffffffff80203b84:	02e7d063          	bge	a5,a4,ffffffff80203ba4 <ui2a+0x130>
ffffffff80203b88:	fd442783          	lw	a5,-44(s0)
ffffffff80203b8c:	0007879b          	sext.w	a5,a5
ffffffff80203b90:	00078663          	beqz	a5,ffffffff80203b9c <ui2a+0x128>
ffffffff80203b94:	03700793          	li	a5,55
ffffffff80203b98:	0100006f          	j	ffffffff80203ba8 <ui2a+0x134>
ffffffff80203b9c:	05700793          	li	a5,87
ffffffff80203ba0:	0080006f          	j	ffffffff80203ba8 <ui2a+0x134>
ffffffff80203ba4:	03000793          	li	a5,48
ffffffff80203ba8:	fe442703          	lw	a4,-28(s0)
ffffffff80203bac:	0ff77693          	zext.b	a3,a4
ffffffff80203bb0:	fc843703          	ld	a4,-56(s0)
ffffffff80203bb4:	00170613          	addi	a2,a4,1
ffffffff80203bb8:	fcc43423          	sd	a2,-56(s0)
ffffffff80203bbc:	00d787bb          	addw	a5,a5,a3
ffffffff80203bc0:	0ff7f793          	zext.b	a5,a5
ffffffff80203bc4:	00f70023          	sb	a5,0(a4)
ffffffff80203bc8:	fec42783          	lw	a5,-20(s0)
ffffffff80203bcc:	0017879b          	addiw	a5,a5,1
ffffffff80203bd0:	fef42623          	sw	a5,-20(s0)
ffffffff80203bd4:	fe842783          	lw	a5,-24(s0)
ffffffff80203bd8:	0007879b          	sext.w	a5,a5
ffffffff80203bdc:	f20790e3          	bnez	a5,ffffffff80203afc <ui2a+0x88>
ffffffff80203be0:	fc843783          	ld	a5,-56(s0)
ffffffff80203be4:	00078023          	sb	zero,0(a5)
ffffffff80203be8:	00000013          	nop
ffffffff80203bec:	03813083          	ld	ra,56(sp)
ffffffff80203bf0:	03013403          	ld	s0,48(sp)
ffffffff80203bf4:	04010113          	addi	sp,sp,64
ffffffff80203bf8:	00008067          	ret

ffffffff80203bfc <i2a>:
ffffffff80203bfc:	fe010113          	addi	sp,sp,-32
ffffffff80203c00:	00113c23          	sd	ra,24(sp)
ffffffff80203c04:	00813823          	sd	s0,16(sp)
ffffffff80203c08:	02010413          	addi	s0,sp,32
ffffffff80203c0c:	00050793          	mv	a5,a0
ffffffff80203c10:	feb43023          	sd	a1,-32(s0)
ffffffff80203c14:	fef42623          	sw	a5,-20(s0)
ffffffff80203c18:	fec42783          	lw	a5,-20(s0)
ffffffff80203c1c:	0007879b          	sext.w	a5,a5
ffffffff80203c20:	0207d263          	bgez	a5,ffffffff80203c44 <i2a+0x48>
ffffffff80203c24:	fec42783          	lw	a5,-20(s0)
ffffffff80203c28:	40f007bb          	negw	a5,a5
ffffffff80203c2c:	fef42623          	sw	a5,-20(s0)
ffffffff80203c30:	fe043783          	ld	a5,-32(s0)
ffffffff80203c34:	00178713          	addi	a4,a5,1
ffffffff80203c38:	fee43023          	sd	a4,-32(s0)
ffffffff80203c3c:	02d00713          	li	a4,45
ffffffff80203c40:	00e78023          	sb	a4,0(a5)
ffffffff80203c44:	fec42783          	lw	a5,-20(s0)
ffffffff80203c48:	fe043683          	ld	a3,-32(s0)
ffffffff80203c4c:	00000613          	li	a2,0
ffffffff80203c50:	00a00593          	li	a1,10
ffffffff80203c54:	00078513          	mv	a0,a5
ffffffff80203c58:	e1dff0ef          	jal	ra,ffffffff80203a74 <ui2a>
ffffffff80203c5c:	00000013          	nop
ffffffff80203c60:	01813083          	ld	ra,24(sp)
ffffffff80203c64:	01013403          	ld	s0,16(sp)
ffffffff80203c68:	02010113          	addi	sp,sp,32
ffffffff80203c6c:	00008067          	ret

ffffffff80203c70 <a2d>:
ffffffff80203c70:	fe010113          	addi	sp,sp,-32
ffffffff80203c74:	00813c23          	sd	s0,24(sp)
ffffffff80203c78:	02010413          	addi	s0,sp,32
ffffffff80203c7c:	00050793          	mv	a5,a0
ffffffff80203c80:	fef407a3          	sb	a5,-17(s0)
ffffffff80203c84:	fef44783          	lbu	a5,-17(s0)
ffffffff80203c88:	0ff7f713          	zext.b	a4,a5
ffffffff80203c8c:	02f00793          	li	a5,47
ffffffff80203c90:	02e7f463          	bgeu	a5,a4,ffffffff80203cb8 <a2d+0x48>
ffffffff80203c94:	fef44783          	lbu	a5,-17(s0)
ffffffff80203c98:	0ff7f713          	zext.b	a4,a5
ffffffff80203c9c:	03900793          	li	a5,57
ffffffff80203ca0:	00e7ec63          	bltu	a5,a4,ffffffff80203cb8 <a2d+0x48>
ffffffff80203ca4:	fef44783          	lbu	a5,-17(s0)
ffffffff80203ca8:	0007879b          	sext.w	a5,a5
ffffffff80203cac:	fd07879b          	addiw	a5,a5,-48
ffffffff80203cb0:	0007879b          	sext.w	a5,a5
ffffffff80203cb4:	0700006f          	j	ffffffff80203d24 <a2d+0xb4>
ffffffff80203cb8:	fef44783          	lbu	a5,-17(s0)
ffffffff80203cbc:	0ff7f713          	zext.b	a4,a5
ffffffff80203cc0:	06000793          	li	a5,96
ffffffff80203cc4:	02e7f463          	bgeu	a5,a4,ffffffff80203cec <a2d+0x7c>
ffffffff80203cc8:	fef44783          	lbu	a5,-17(s0)
ffffffff80203ccc:	0ff7f713          	zext.b	a4,a5
ffffffff80203cd0:	06600793          	li	a5,102
ffffffff80203cd4:	00e7ec63          	bltu	a5,a4,ffffffff80203cec <a2d+0x7c>
ffffffff80203cd8:	fef44783          	lbu	a5,-17(s0)
ffffffff80203cdc:	0007879b          	sext.w	a5,a5
ffffffff80203ce0:	fa97879b          	addiw	a5,a5,-87
ffffffff80203ce4:	0007879b          	sext.w	a5,a5
ffffffff80203ce8:	03c0006f          	j	ffffffff80203d24 <a2d+0xb4>
ffffffff80203cec:	fef44783          	lbu	a5,-17(s0)
ffffffff80203cf0:	0ff7f713          	zext.b	a4,a5
ffffffff80203cf4:	04000793          	li	a5,64
ffffffff80203cf8:	02e7f463          	bgeu	a5,a4,ffffffff80203d20 <a2d+0xb0>
ffffffff80203cfc:	fef44783          	lbu	a5,-17(s0)
ffffffff80203d00:	0ff7f713          	zext.b	a4,a5
ffffffff80203d04:	04600793          	li	a5,70
ffffffff80203d08:	00e7ec63          	bltu	a5,a4,ffffffff80203d20 <a2d+0xb0>
ffffffff80203d0c:	fef44783          	lbu	a5,-17(s0)
ffffffff80203d10:	0007879b          	sext.w	a5,a5
ffffffff80203d14:	fc97879b          	addiw	a5,a5,-55
ffffffff80203d18:	0007879b          	sext.w	a5,a5
ffffffff80203d1c:	0080006f          	j	ffffffff80203d24 <a2d+0xb4>
ffffffff80203d20:	fff00793          	li	a5,-1
ffffffff80203d24:	00078513          	mv	a0,a5
ffffffff80203d28:	01813403          	ld	s0,24(sp)
ffffffff80203d2c:	02010113          	addi	sp,sp,32
ffffffff80203d30:	00008067          	ret

ffffffff80203d34 <a2i>:
ffffffff80203d34:	fc010113          	addi	sp,sp,-64
ffffffff80203d38:	02113c23          	sd	ra,56(sp)
ffffffff80203d3c:	02813823          	sd	s0,48(sp)
ffffffff80203d40:	04010413          	addi	s0,sp,64
ffffffff80203d44:	00050793          	mv	a5,a0
ffffffff80203d48:	fcb43823          	sd	a1,-48(s0)
ffffffff80203d4c:	00060713          	mv	a4,a2
ffffffff80203d50:	fcd43423          	sd	a3,-56(s0)
ffffffff80203d54:	fcf40fa3          	sb	a5,-33(s0)
ffffffff80203d58:	00070793          	mv	a5,a4
ffffffff80203d5c:	fcf42c23          	sw	a5,-40(s0)
ffffffff80203d60:	fd043783          	ld	a5,-48(s0)
ffffffff80203d64:	0007b783          	ld	a5,0(a5)
ffffffff80203d68:	fef43423          	sd	a5,-24(s0)
ffffffff80203d6c:	fe042223          	sw	zero,-28(s0)
ffffffff80203d70:	0540006f          	j	ffffffff80203dc4 <a2i+0x90>
ffffffff80203d74:	fe042703          	lw	a4,-32(s0)
ffffffff80203d78:	fd842783          	lw	a5,-40(s0)
ffffffff80203d7c:	0007071b          	sext.w	a4,a4
ffffffff80203d80:	0007879b          	sext.w	a5,a5
ffffffff80203d84:	06e7c263          	blt	a5,a4,ffffffff80203de8 <a2i+0xb4>
ffffffff80203d88:	fe442783          	lw	a5,-28(s0)
ffffffff80203d8c:	fd842703          	lw	a4,-40(s0)
ffffffff80203d90:	00070593          	mv	a1,a4
ffffffff80203d94:	00078513          	mv	a0,a5
ffffffff80203d98:	a8dff0ef          	jal	ra,ffffffff80203824 <__muldi3>
ffffffff80203d9c:	00050793          	mv	a5,a0
ffffffff80203da0:	0007879b          	sext.w	a5,a5
ffffffff80203da4:	fe042703          	lw	a4,-32(s0)
ffffffff80203da8:	00f707bb          	addw	a5,a4,a5
ffffffff80203dac:	fef42223          	sw	a5,-28(s0)
ffffffff80203db0:	fe843783          	ld	a5,-24(s0)
ffffffff80203db4:	00178713          	addi	a4,a5,1
ffffffff80203db8:	fee43423          	sd	a4,-24(s0)
ffffffff80203dbc:	0007c783          	lbu	a5,0(a5)
ffffffff80203dc0:	fcf40fa3          	sb	a5,-33(s0)
ffffffff80203dc4:	fdf44783          	lbu	a5,-33(s0)
ffffffff80203dc8:	00078513          	mv	a0,a5
ffffffff80203dcc:	ea5ff0ef          	jal	ra,ffffffff80203c70 <a2d>
ffffffff80203dd0:	00050793          	mv	a5,a0
ffffffff80203dd4:	fef42023          	sw	a5,-32(s0)
ffffffff80203dd8:	fe042783          	lw	a5,-32(s0)
ffffffff80203ddc:	0007879b          	sext.w	a5,a5
ffffffff80203de0:	f807dae3          	bgez	a5,ffffffff80203d74 <a2i+0x40>
ffffffff80203de4:	0080006f          	j	ffffffff80203dec <a2i+0xb8>
ffffffff80203de8:	00000013          	nop
ffffffff80203dec:	fd043783          	ld	a5,-48(s0)
ffffffff80203df0:	fe843703          	ld	a4,-24(s0)
ffffffff80203df4:	00e7b023          	sd	a4,0(a5)
ffffffff80203df8:	fc843783          	ld	a5,-56(s0)
ffffffff80203dfc:	fe442703          	lw	a4,-28(s0)
ffffffff80203e00:	00e7a023          	sw	a4,0(a5)
ffffffff80203e04:	fdf44783          	lbu	a5,-33(s0)
ffffffff80203e08:	00078513          	mv	a0,a5
ffffffff80203e0c:	03813083          	ld	ra,56(sp)
ffffffff80203e10:	03013403          	ld	s0,48(sp)
ffffffff80203e14:	04010113          	addi	sp,sp,64
ffffffff80203e18:	00008067          	ret

ffffffff80203e1c <putchw>:
ffffffff80203e1c:	fc010113          	addi	sp,sp,-64
ffffffff80203e20:	02113c23          	sd	ra,56(sp)
ffffffff80203e24:	02813823          	sd	s0,48(sp)
ffffffff80203e28:	04010413          	addi	s0,sp,64
ffffffff80203e2c:	fca43c23          	sd	a0,-40(s0)
ffffffff80203e30:	fcb43823          	sd	a1,-48(s0)
ffffffff80203e34:	00060793          	mv	a5,a2
ffffffff80203e38:	fce43023          	sd	a4,-64(s0)
ffffffff80203e3c:	fcf42623          	sw	a5,-52(s0)
ffffffff80203e40:	00068793          	mv	a5,a3
ffffffff80203e44:	fcf405a3          	sb	a5,-53(s0)
ffffffff80203e48:	fcb44783          	lbu	a5,-53(s0)
ffffffff80203e4c:	0ff7f793          	zext.b	a5,a5
ffffffff80203e50:	00078663          	beqz	a5,ffffffff80203e5c <putchw+0x40>
ffffffff80203e54:	03000793          	li	a5,48
ffffffff80203e58:	0080006f          	j	ffffffff80203e60 <putchw+0x44>
ffffffff80203e5c:	02000793          	li	a5,32
ffffffff80203e60:	fef403a3          	sb	a5,-25(s0)
ffffffff80203e64:	fc043783          	ld	a5,-64(s0)
ffffffff80203e68:	fef43423          	sd	a5,-24(s0)
ffffffff80203e6c:	0100006f          	j	ffffffff80203e7c <putchw+0x60>
ffffffff80203e70:	fcc42783          	lw	a5,-52(s0)
ffffffff80203e74:	fff7879b          	addiw	a5,a5,-1
ffffffff80203e78:	fcf42623          	sw	a5,-52(s0)
ffffffff80203e7c:	fe843783          	ld	a5,-24(s0)
ffffffff80203e80:	00178713          	addi	a4,a5,1
ffffffff80203e84:	fee43423          	sd	a4,-24(s0)
ffffffff80203e88:	0007c783          	lbu	a5,0(a5)
ffffffff80203e8c:	02078463          	beqz	a5,ffffffff80203eb4 <putchw+0x98>
ffffffff80203e90:	fcc42783          	lw	a5,-52(s0)
ffffffff80203e94:	0007879b          	sext.w	a5,a5
ffffffff80203e98:	fcf04ce3          	bgtz	a5,ffffffff80203e70 <putchw+0x54>
ffffffff80203e9c:	0180006f          	j	ffffffff80203eb4 <putchw+0x98>
ffffffff80203ea0:	fe744783          	lbu	a5,-25(s0)
ffffffff80203ea4:	fd043703          	ld	a4,-48(s0)
ffffffff80203ea8:	00078593          	mv	a1,a5
ffffffff80203eac:	fd843503          	ld	a0,-40(s0)
ffffffff80203eb0:	000700e7          	jalr	a4
ffffffff80203eb4:	fcc42783          	lw	a5,-52(s0)
ffffffff80203eb8:	fff7871b          	addiw	a4,a5,-1
ffffffff80203ebc:	fce42623          	sw	a4,-52(s0)
ffffffff80203ec0:	fef040e3          	bgtz	a5,ffffffff80203ea0 <putchw+0x84>
ffffffff80203ec4:	0180006f          	j	ffffffff80203edc <putchw+0xc0>
ffffffff80203ec8:	fe644783          	lbu	a5,-26(s0)
ffffffff80203ecc:	fd043703          	ld	a4,-48(s0)
ffffffff80203ed0:	00078593          	mv	a1,a5
ffffffff80203ed4:	fd843503          	ld	a0,-40(s0)
ffffffff80203ed8:	000700e7          	jalr	a4
ffffffff80203edc:	fc043783          	ld	a5,-64(s0)
ffffffff80203ee0:	00178713          	addi	a4,a5,1
ffffffff80203ee4:	fce43023          	sd	a4,-64(s0)
ffffffff80203ee8:	0007c783          	lbu	a5,0(a5)
ffffffff80203eec:	fef40323          	sb	a5,-26(s0)
ffffffff80203ef0:	fe644783          	lbu	a5,-26(s0)
ffffffff80203ef4:	0ff7f793          	zext.b	a5,a5
ffffffff80203ef8:	fc0798e3          	bnez	a5,ffffffff80203ec8 <putchw+0xac>
ffffffff80203efc:	00000013          	nop
ffffffff80203f00:	00000013          	nop
ffffffff80203f04:	03813083          	ld	ra,56(sp)
ffffffff80203f08:	03013403          	ld	s0,48(sp)
ffffffff80203f0c:	04010113          	addi	sp,sp,64
ffffffff80203f10:	00008067          	ret

ffffffff80203f14 <_tfpFormat>:
ffffffff80203f14:	fb010113          	addi	sp,sp,-80
ffffffff80203f18:	04113423          	sd	ra,72(sp)
ffffffff80203f1c:	04813023          	sd	s0,64(sp)
ffffffff80203f20:	05010413          	addi	s0,sp,80
ffffffff80203f24:	fca43423          	sd	a0,-56(s0)
ffffffff80203f28:	fcb43023          	sd	a1,-64(s0)
ffffffff80203f2c:	fac43c23          	sd	a2,-72(s0)
ffffffff80203f30:	fad43823          	sd	a3,-80(s0)
ffffffff80203f34:	2800006f          	j	ffffffff802041b4 <_tfpFormat+0x2a0>
ffffffff80203f38:	fef44783          	lbu	a5,-17(s0)
ffffffff80203f3c:	0ff7f713          	zext.b	a4,a5
ffffffff80203f40:	02500793          	li	a5,37
ffffffff80203f44:	00f70e63          	beq	a4,a5,ffffffff80203f60 <_tfpFormat+0x4c>
ffffffff80203f48:	fef44783          	lbu	a5,-17(s0)
ffffffff80203f4c:	fc043703          	ld	a4,-64(s0)
ffffffff80203f50:	00078593          	mv	a1,a5
ffffffff80203f54:	fc843503          	ld	a0,-56(s0)
ffffffff80203f58:	000700e7          	jalr	a4
ffffffff80203f5c:	2580006f          	j	ffffffff802041b4 <_tfpFormat+0x2a0>
ffffffff80203f60:	fe040723          	sb	zero,-18(s0)
ffffffff80203f64:	fc042e23          	sw	zero,-36(s0)
ffffffff80203f68:	fb843783          	ld	a5,-72(s0)
ffffffff80203f6c:	00178713          	addi	a4,a5,1
ffffffff80203f70:	fae43c23          	sd	a4,-72(s0)
ffffffff80203f74:	0007c783          	lbu	a5,0(a5)
ffffffff80203f78:	fef407a3          	sb	a5,-17(s0)
ffffffff80203f7c:	fef44783          	lbu	a5,-17(s0)
ffffffff80203f80:	0ff7f713          	zext.b	a4,a5
ffffffff80203f84:	03000793          	li	a5,48
ffffffff80203f88:	02f71063          	bne	a4,a5,ffffffff80203fa8 <_tfpFormat+0x94>
ffffffff80203f8c:	fb843783          	ld	a5,-72(s0)
ffffffff80203f90:	00178713          	addi	a4,a5,1
ffffffff80203f94:	fae43c23          	sd	a4,-72(s0)
ffffffff80203f98:	0007c783          	lbu	a5,0(a5)
ffffffff80203f9c:	fef407a3          	sb	a5,-17(s0)
ffffffff80203fa0:	00100793          	li	a5,1
ffffffff80203fa4:	fef40723          	sb	a5,-18(s0)
ffffffff80203fa8:	fef44783          	lbu	a5,-17(s0)
ffffffff80203fac:	0ff7f713          	zext.b	a4,a5
ffffffff80203fb0:	02f00793          	li	a5,47
ffffffff80203fb4:	02e7fc63          	bgeu	a5,a4,ffffffff80203fec <_tfpFormat+0xd8>
ffffffff80203fb8:	fef44783          	lbu	a5,-17(s0)
ffffffff80203fbc:	0ff7f713          	zext.b	a4,a5
ffffffff80203fc0:	03900793          	li	a5,57
ffffffff80203fc4:	02e7e463          	bltu	a5,a4,ffffffff80203fec <_tfpFormat+0xd8>
ffffffff80203fc8:	fdc40693          	addi	a3,s0,-36
ffffffff80203fcc:	fb840713          	addi	a4,s0,-72
ffffffff80203fd0:	fef44783          	lbu	a5,-17(s0)
ffffffff80203fd4:	00a00613          	li	a2,10
ffffffff80203fd8:	00070593          	mv	a1,a4
ffffffff80203fdc:	00078513          	mv	a0,a5
ffffffff80203fe0:	d55ff0ef          	jal	ra,ffffffff80203d34 <a2i>
ffffffff80203fe4:	00050793          	mv	a5,a0
ffffffff80203fe8:	fef407a3          	sb	a5,-17(s0)
ffffffff80203fec:	fef44783          	lbu	a5,-17(s0)
ffffffff80203ff0:	0007879b          	sext.w	a5,a5
ffffffff80203ff4:	00078693          	mv	a3,a5
ffffffff80203ff8:	07800713          	li	a4,120
ffffffff80203ffc:	1ad74a63          	blt	a4,a3,ffffffff802041b0 <_tfpFormat+0x29c>
ffffffff80204000:	00078693          	mv	a3,a5
ffffffff80204004:	05800713          	li	a4,88
ffffffff80204008:	00e6dc63          	bge	a3,a4,ffffffff80204020 <_tfpFormat+0x10c>
ffffffff8020400c:	1c078663          	beqz	a5,ffffffff802041d8 <_tfpFormat+0x2c4>
ffffffff80204010:	00078713          	mv	a4,a5
ffffffff80204014:	02500793          	li	a5,37
ffffffff80204018:	18f70263          	beq	a4,a5,ffffffff8020419c <_tfpFormat+0x288>
ffffffff8020401c:	1940006f          	j	ffffffff802041b0 <_tfpFormat+0x29c>
ffffffff80204020:	fa87869b          	addiw	a3,a5,-88
ffffffff80204024:	0006871b          	sext.w	a4,a3
ffffffff80204028:	02000793          	li	a5,32
ffffffff8020402c:	18e7e263          	bltu	a5,a4,ffffffff802041b0 <_tfpFormat+0x29c>
ffffffff80204030:	02069793          	slli	a5,a3,0x20
ffffffff80204034:	0207d793          	srli	a5,a5,0x20
ffffffff80204038:	00279713          	slli	a4,a5,0x2
ffffffff8020403c:	0002c797          	auipc	a5,0x2c
ffffffff80204040:	25478793          	addi	a5,a5,596 # ffffffff80230290 <_rodata_start+0x290>
ffffffff80204044:	00f707b3          	add	a5,a4,a5
ffffffff80204048:	0007a783          	lw	a5,0(a5)
ffffffff8020404c:	0007871b          	sext.w	a4,a5
ffffffff80204050:	0002c797          	auipc	a5,0x2c
ffffffff80204054:	24078793          	addi	a5,a5,576 # ffffffff80230290 <_rodata_start+0x290>
ffffffff80204058:	00f707b3          	add	a5,a4,a5
ffffffff8020405c:	00078067          	jr	a5
ffffffff80204060:	fb043783          	ld	a5,-80(s0)
ffffffff80204064:	00878713          	addi	a4,a5,8
ffffffff80204068:	fae43823          	sd	a4,-80(s0)
ffffffff8020406c:	0007a783          	lw	a5,0(a5)
ffffffff80204070:	fe040713          	addi	a4,s0,-32
ffffffff80204074:	00070693          	mv	a3,a4
ffffffff80204078:	00000613          	li	a2,0
ffffffff8020407c:	00a00593          	li	a1,10
ffffffff80204080:	00078513          	mv	a0,a5
ffffffff80204084:	9f1ff0ef          	jal	ra,ffffffff80203a74 <ui2a>
ffffffff80204088:	fdc42783          	lw	a5,-36(s0)
ffffffff8020408c:	fe040713          	addi	a4,s0,-32
ffffffff80204090:	fee44683          	lbu	a3,-18(s0)
ffffffff80204094:	00078613          	mv	a2,a5
ffffffff80204098:	fc043583          	ld	a1,-64(s0)
ffffffff8020409c:	fc843503          	ld	a0,-56(s0)
ffffffff802040a0:	d7dff0ef          	jal	ra,ffffffff80203e1c <putchw>
ffffffff802040a4:	1100006f          	j	ffffffff802041b4 <_tfpFormat+0x2a0>
ffffffff802040a8:	fb043783          	ld	a5,-80(s0)
ffffffff802040ac:	00878713          	addi	a4,a5,8
ffffffff802040b0:	fae43823          	sd	a4,-80(s0)
ffffffff802040b4:	0007a783          	lw	a5,0(a5)
ffffffff802040b8:	fe040713          	addi	a4,s0,-32
ffffffff802040bc:	00070593          	mv	a1,a4
ffffffff802040c0:	00078513          	mv	a0,a5
ffffffff802040c4:	b39ff0ef          	jal	ra,ffffffff80203bfc <i2a>
ffffffff802040c8:	fdc42783          	lw	a5,-36(s0)
ffffffff802040cc:	fe040713          	addi	a4,s0,-32
ffffffff802040d0:	fee44683          	lbu	a3,-18(s0)
ffffffff802040d4:	00078613          	mv	a2,a5
ffffffff802040d8:	fc043583          	ld	a1,-64(s0)
ffffffff802040dc:	fc843503          	ld	a0,-56(s0)
ffffffff802040e0:	d3dff0ef          	jal	ra,ffffffff80203e1c <putchw>
ffffffff802040e4:	0d00006f          	j	ffffffff802041b4 <_tfpFormat+0x2a0>
ffffffff802040e8:	fb043783          	ld	a5,-80(s0)
ffffffff802040ec:	00878713          	addi	a4,a5,8
ffffffff802040f0:	fae43823          	sd	a4,-80(s0)
ffffffff802040f4:	0007a503          	lw	a0,0(a5)
ffffffff802040f8:	fef44783          	lbu	a5,-17(s0)
ffffffff802040fc:	0007871b          	sext.w	a4,a5
ffffffff80204100:	05800793          	li	a5,88
ffffffff80204104:	40f707b3          	sub	a5,a4,a5
ffffffff80204108:	0017b793          	seqz	a5,a5
ffffffff8020410c:	0ff7f793          	zext.b	a5,a5
ffffffff80204110:	0007879b          	sext.w	a5,a5
ffffffff80204114:	fe040713          	addi	a4,s0,-32
ffffffff80204118:	00070693          	mv	a3,a4
ffffffff8020411c:	00078613          	mv	a2,a5
ffffffff80204120:	01000593          	li	a1,16
ffffffff80204124:	951ff0ef          	jal	ra,ffffffff80203a74 <ui2a>
ffffffff80204128:	fdc42783          	lw	a5,-36(s0)
ffffffff8020412c:	fe040713          	addi	a4,s0,-32
ffffffff80204130:	fee44683          	lbu	a3,-18(s0)
ffffffff80204134:	00078613          	mv	a2,a5
ffffffff80204138:	fc043583          	ld	a1,-64(s0)
ffffffff8020413c:	fc843503          	ld	a0,-56(s0)
ffffffff80204140:	cddff0ef          	jal	ra,ffffffff80203e1c <putchw>
ffffffff80204144:	0700006f          	j	ffffffff802041b4 <_tfpFormat+0x2a0>
ffffffff80204148:	fb043783          	ld	a5,-80(s0)
ffffffff8020414c:	00878713          	addi	a4,a5,8
ffffffff80204150:	fae43823          	sd	a4,-80(s0)
ffffffff80204154:	0007a783          	lw	a5,0(a5)
ffffffff80204158:	0ff7f793          	zext.b	a5,a5
ffffffff8020415c:	fc043703          	ld	a4,-64(s0)
ffffffff80204160:	00078593          	mv	a1,a5
ffffffff80204164:	fc843503          	ld	a0,-56(s0)
ffffffff80204168:	000700e7          	jalr	a4
ffffffff8020416c:	0480006f          	j	ffffffff802041b4 <_tfpFormat+0x2a0>
ffffffff80204170:	fdc42603          	lw	a2,-36(s0)
ffffffff80204174:	fb043783          	ld	a5,-80(s0)
ffffffff80204178:	00878713          	addi	a4,a5,8
ffffffff8020417c:	fae43823          	sd	a4,-80(s0)
ffffffff80204180:	0007b783          	ld	a5,0(a5)
ffffffff80204184:	00078713          	mv	a4,a5
ffffffff80204188:	00000693          	li	a3,0
ffffffff8020418c:	fc043583          	ld	a1,-64(s0)
ffffffff80204190:	fc843503          	ld	a0,-56(s0)
ffffffff80204194:	c89ff0ef          	jal	ra,ffffffff80203e1c <putchw>
ffffffff80204198:	01c0006f          	j	ffffffff802041b4 <_tfpFormat+0x2a0>
ffffffff8020419c:	fef44783          	lbu	a5,-17(s0)
ffffffff802041a0:	fc043703          	ld	a4,-64(s0)
ffffffff802041a4:	00078593          	mv	a1,a5
ffffffff802041a8:	fc843503          	ld	a0,-56(s0)
ffffffff802041ac:	000700e7          	jalr	a4
ffffffff802041b0:	00000013          	nop
ffffffff802041b4:	fb843783          	ld	a5,-72(s0)
ffffffff802041b8:	00178713          	addi	a4,a5,1
ffffffff802041bc:	fae43c23          	sd	a4,-72(s0)
ffffffff802041c0:	0007c783          	lbu	a5,0(a5)
ffffffff802041c4:	fef407a3          	sb	a5,-17(s0)
ffffffff802041c8:	fef44783          	lbu	a5,-17(s0)
ffffffff802041cc:	0ff7f793          	zext.b	a5,a5
ffffffff802041d0:	d60794e3          	bnez	a5,ffffffff80203f38 <_tfpFormat+0x24>
ffffffff802041d4:	0080006f          	j	ffffffff802041dc <_tfpFormat+0x2c8>
ffffffff802041d8:	00000013          	nop
ffffffff802041dc:	00000013          	nop
ffffffff802041e0:	04813083          	ld	ra,72(sp)
ffffffff802041e4:	04013403          	ld	s0,64(sp)
ffffffff802041e8:	05010113          	addi	sp,sp,80
ffffffff802041ec:	00008067          	ret

ffffffff802041f0 <_tfpPrintf>:
ffffffff802041f0:	f9010113          	addi	sp,sp,-112
ffffffff802041f4:	02113423          	sd	ra,40(sp)
ffffffff802041f8:	02813023          	sd	s0,32(sp)
ffffffff802041fc:	03010413          	addi	s0,sp,48
ffffffff80204200:	fca43c23          	sd	a0,-40(s0)
ffffffff80204204:	00b43423          	sd	a1,8(s0)
ffffffff80204208:	00c43823          	sd	a2,16(s0)
ffffffff8020420c:	00d43c23          	sd	a3,24(s0)
ffffffff80204210:	02e43023          	sd	a4,32(s0)
ffffffff80204214:	02f43423          	sd	a5,40(s0)
ffffffff80204218:	03043823          	sd	a6,48(s0)
ffffffff8020421c:	03143c23          	sd	a7,56(s0)
ffffffff80204220:	04040793          	addi	a5,s0,64
ffffffff80204224:	fcf43823          	sd	a5,-48(s0)
ffffffff80204228:	fd043783          	ld	a5,-48(s0)
ffffffff8020422c:	fc878793          	addi	a5,a5,-56
ffffffff80204230:	fef43423          	sd	a5,-24(s0)
ffffffff80204234:	0002f797          	auipc	a5,0x2f
ffffffff80204238:	37478793          	addi	a5,a5,884 # ffffffff802335a8 <__stdoutP>
ffffffff8020423c:	0007b703          	ld	a4,0(a5)
ffffffff80204240:	0002f797          	auipc	a5,0x2f
ffffffff80204244:	36078793          	addi	a5,a5,864 # ffffffff802335a0 <__stdoutF>
ffffffff80204248:	0007b783          	ld	a5,0(a5)
ffffffff8020424c:	fe843683          	ld	a3,-24(s0)
ffffffff80204250:	fd843603          	ld	a2,-40(s0)
ffffffff80204254:	00078593          	mv	a1,a5
ffffffff80204258:	00070513          	mv	a0,a4
ffffffff8020425c:	cb9ff0ef          	jal	ra,ffffffff80203f14 <_tfpFormat>
ffffffff80204260:	00000013          	nop
ffffffff80204264:	02813083          	ld	ra,40(sp)
ffffffff80204268:	02013403          	ld	s0,32(sp)
ffffffff8020426c:	07010113          	addi	sp,sp,112
ffffffff80204270:	00008067          	ret

ffffffff80204274 <fnStdoutInit>:
ffffffff80204274:	fe010113          	addi	sp,sp,-32
ffffffff80204278:	00813c23          	sd	s0,24(sp)
ffffffff8020427c:	02010413          	addi	s0,sp,32
ffffffff80204280:	fea43423          	sd	a0,-24(s0)
ffffffff80204284:	feb43023          	sd	a1,-32(s0)
ffffffff80204288:	0002f797          	auipc	a5,0x2f
ffffffff8020428c:	31878793          	addi	a5,a5,792 # ffffffff802335a0 <__stdoutF>
ffffffff80204290:	fe043703          	ld	a4,-32(s0)
ffffffff80204294:	00e7b023          	sd	a4,0(a5)
ffffffff80204298:	00000013          	nop
ffffffff8020429c:	01813403          	ld	s0,24(sp)
ffffffff802042a0:	02010113          	addi	sp,sp,32
ffffffff802042a4:	00008067          	ret

ffffffff802042a8 <fnGreetingPrint>:
ffffffff802042a8:	ff010113          	addi	sp,sp,-16
ffffffff802042ac:	00113423          	sd	ra,8(sp)
ffffffff802042b0:	00813023          	sd	s0,0(sp)
ffffffff802042b4:	01010413          	addi	s0,sp,16
ffffffff802042b8:	0002c517          	auipc	a0,0x2c
ffffffff802042bc:	06050513          	addi	a0,a0,96 # ffffffff80230318 <_rodata_start+0x318>
ffffffff802042c0:	f31ff0ef          	jal	ra,ffffffff802041f0 <_tfpPrintf>
ffffffff802042c4:	0002c517          	auipc	a0,0x2c
ffffffff802042c8:	05c50513          	addi	a0,a0,92 # ffffffff80230320 <_rodata_start+0x320>
ffffffff802042cc:	f25ff0ef          	jal	ra,ffffffff802041f0 <_tfpPrintf>
ffffffff802042d0:	0002c517          	auipc	a0,0x2c
ffffffff802042d4:	07850513          	addi	a0,a0,120 # ffffffff80230348 <_rodata_start+0x348>
ffffffff802042d8:	f19ff0ef          	jal	ra,ffffffff802041f0 <_tfpPrintf>
ffffffff802042dc:	0002c517          	auipc	a0,0x2c
ffffffff802042e0:	09450513          	addi	a0,a0,148 # ffffffff80230370 <_rodata_start+0x370>
ffffffff802042e4:	f0dff0ef          	jal	ra,ffffffff802041f0 <_tfpPrintf>
ffffffff802042e8:	0002c517          	auipc	a0,0x2c
ffffffff802042ec:	0a050513          	addi	a0,a0,160 # ffffffff80230388 <_rodata_start+0x388>
ffffffff802042f0:	f01ff0ef          	jal	ra,ffffffff802041f0 <_tfpPrintf>
ffffffff802042f4:	00000013          	nop
ffffffff802042f8:	00813083          	ld	ra,8(sp)
ffffffff802042fc:	00013403          	ld	s0,0(sp)
ffffffff80204300:	01010113          	addi	sp,sp,16
ffffffff80204304:	00008067          	ret
	...

ffffffff80210000 <__trap_enter>:
ffffffff80210000:	14011173          	csrrw	sp,sscratch,sp
ffffffff80210004:	00011463          	bnez	sp,ffffffff8021000c <__user_level>

ffffffff80210008 <__kernel_level>:
ffffffff80210008:	14002173          	csrr	sp,sscratch

ffffffff8021000c <__user_level>:
ffffffff8021000c:	ee010113          	addi	sp,sp,-288
ffffffff80210010:	00113423          	sd	ra,8(sp)
ffffffff80210014:	00313c23          	sd	gp,24(sp)
ffffffff80210018:	02413023          	sd	tp,32(sp)
ffffffff8021001c:	02513423          	sd	t0,40(sp)
ffffffff80210020:	02613823          	sd	t1,48(sp)
ffffffff80210024:	02713c23          	sd	t2,56(sp)
ffffffff80210028:	04813023          	sd	s0,64(sp)
ffffffff8021002c:	04913423          	sd	s1,72(sp)
ffffffff80210030:	04a13823          	sd	a0,80(sp)
ffffffff80210034:	04b13c23          	sd	a1,88(sp)
ffffffff80210038:	06c13023          	sd	a2,96(sp)
ffffffff8021003c:	06d13423          	sd	a3,104(sp)
ffffffff80210040:	06e13823          	sd	a4,112(sp)
ffffffff80210044:	06f13c23          	sd	a5,120(sp)
ffffffff80210048:	09013023          	sd	a6,128(sp)
ffffffff8021004c:	09113423          	sd	a7,136(sp)
ffffffff80210050:	09213823          	sd	s2,144(sp)
ffffffff80210054:	09313c23          	sd	s3,152(sp)
ffffffff80210058:	0b413023          	sd	s4,160(sp)
ffffffff8021005c:	0b513423          	sd	s5,168(sp)
ffffffff80210060:	0b613823          	sd	s6,176(sp)
ffffffff80210064:	0b713c23          	sd	s7,184(sp)
ffffffff80210068:	0d813023          	sd	s8,192(sp)
ffffffff8021006c:	0d913423          	sd	s9,200(sp)
ffffffff80210070:	0da13823          	sd	s10,208(sp)
ffffffff80210074:	0db13c23          	sd	s11,216(sp)
ffffffff80210078:	0fc13023          	sd	t3,224(sp)
ffffffff8021007c:	0fd13423          	sd	t4,232(sp)
ffffffff80210080:	0fe13823          	sd	t5,240(sp)
ffffffff80210084:	0ff13c23          	sd	t6,248(sp)
ffffffff80210088:	14001473          	csrrw	s0,sscratch,zero
ffffffff8021008c:	100024f3          	csrr	s1,sstatus
ffffffff80210090:	14102973          	csrr	s2,sepc
ffffffff80210094:	143029f3          	csrr	s3,stval
ffffffff80210098:	14202a73          	csrr	s4,scause
ffffffff8021009c:	00813823          	sd	s0,16(sp)
ffffffff802100a0:	10913023          	sd	s1,256(sp)
ffffffff802100a4:	11213423          	sd	s2,264(sp)
ffffffff802100a8:	11313823          	sd	s3,272(sp)
ffffffff802100ac:	11413c23          	sd	s4,280(sp)
ffffffff802100b0:	00010513          	mv	a0,sp
ffffffff802100b4:	d20f30ef          	jal	ra,ffffffff802035d4 <fnDispatchInterrupt>
ffffffff802100b8:	00000013          	nop
ffffffff802100bc:	00000013          	nop
ffffffff802100c0:	00000013          	nop
ffffffff802100c4:	00000013          	nop
ffffffff802100c8:	00000013          	nop
ffffffff802100cc:	00000013          	nop
ffffffff802100d0:	00000013          	nop
ffffffff802100d4:	00000013          	nop
ffffffff802100d8:	00000013          	nop
ffffffff802100dc:	00000013          	nop
ffffffff802100e0:	00000013          	nop
ffffffff802100e4:	00000013          	nop
ffffffff802100e8:	00000013          	nop
ffffffff802100ec:	00000013          	nop
ffffffff802100f0:	00000013          	nop
ffffffff802100f4:	00000013          	nop
ffffffff802100f8:	00000013          	nop
ffffffff802100fc:	00000013          	nop
ffffffff80210100:	00000013          	nop
ffffffff80210104:	00000013          	nop
ffffffff80210108:	00000013          	nop
ffffffff8021010c:	00000013          	nop
ffffffff80210110:	00000013          	nop
ffffffff80210114:	00000013          	nop
ffffffff80210118:	00000013          	nop
ffffffff8021011c:	00000013          	nop
ffffffff80210120:	00000013          	nop
ffffffff80210124:	00000013          	nop
ffffffff80210128:	00000013          	nop
ffffffff8021012c:	00000013          	nop
ffffffff80210130:	00000013          	nop
ffffffff80210134:	00000013          	nop
ffffffff80210138:	00000013          	nop
ffffffff8021013c:	00000013          	nop
ffffffff80210140:	00000013          	nop
ffffffff80210144:	00000013          	nop
ffffffff80210148:	00000013          	nop
ffffffff8021014c:	00000013          	nop
ffffffff80210150:	00000013          	nop
ffffffff80210154:	00000013          	nop
ffffffff80210158:	00000013          	nop
ffffffff8021015c:	00000013          	nop
ffffffff80210160:	00000013          	nop
ffffffff80210164:	00000013          	nop
ffffffff80210168:	00000013          	nop
ffffffff8021016c:	00000013          	nop
ffffffff80210170:	00000013          	nop
ffffffff80210174:	00000013          	nop
ffffffff80210178:	00000013          	nop
ffffffff8021017c:	00000013          	nop
ffffffff80210180:	00000013          	nop
ffffffff80210184:	00000013          	nop
ffffffff80210188:	00000013          	nop
ffffffff8021018c:	00000013          	nop
ffffffff80210190:	00000013          	nop
ffffffff80210194:	00000013          	nop
ffffffff80210198:	00000013          	nop
ffffffff8021019c:	00000013          	nop
ffffffff802101a0:	00000013          	nop
ffffffff802101a4:	00000013          	nop
ffffffff802101a8:	00000013          	nop
ffffffff802101ac:	00000013          	nop
ffffffff802101b0:	00000013          	nop
ffffffff802101b4:	00000013          	nop
ffffffff802101b8:	00000013          	nop
ffffffff802101bc:	00000013          	nop
ffffffff802101c0:	00000013          	nop
ffffffff802101c4:	00000013          	nop
ffffffff802101c8:	00000013          	nop
ffffffff802101cc:	00000013          	nop
ffffffff802101d0:	00000013          	nop
ffffffff802101d4:	00000013          	nop
ffffffff802101d8:	00000013          	nop
ffffffff802101dc:	00000013          	nop
ffffffff802101e0:	00000013          	nop
ffffffff802101e4:	00000013          	nop
ffffffff802101e8:	00000013          	nop
ffffffff802101ec:	00000013          	nop
ffffffff802101f0:	00000013          	nop
ffffffff802101f4:	00000013          	nop
ffffffff802101f8:	00000013          	nop
ffffffff802101fc:	00000013          	nop
ffffffff80210200:	00000013          	nop
ffffffff80210204:	00000013          	nop
ffffffff80210208:	00000013          	nop
ffffffff8021020c:	00000013          	nop
ffffffff80210210:	00000013          	nop
ffffffff80210214:	00000013          	nop
ffffffff80210218:	00000013          	nop
ffffffff8021021c:	00000013          	nop
ffffffff80210220:	00000013          	nop
ffffffff80210224:	00000013          	nop
ffffffff80210228:	00000013          	nop
ffffffff8021022c:	00000013          	nop
ffffffff80210230:	00000013          	nop
ffffffff80210234:	00000013          	nop
ffffffff80210238:	00000013          	nop
ffffffff8021023c:	00000013          	nop
ffffffff80210240:	00000013          	nop
ffffffff80210244:	00000013          	nop
ffffffff80210248:	00000013          	nop
ffffffff8021024c:	00000013          	nop
ffffffff80210250:	00000013          	nop
ffffffff80210254:	00000013          	nop
ffffffff80210258:	00000013          	nop
ffffffff8021025c:	00000013          	nop
ffffffff80210260:	00000013          	nop
ffffffff80210264:	00000013          	nop
ffffffff80210268:	00000013          	nop
ffffffff8021026c:	00000013          	nop
ffffffff80210270:	00000013          	nop
ffffffff80210274:	00000013          	nop
ffffffff80210278:	00000013          	nop
ffffffff8021027c:	00000013          	nop
ffffffff80210280:	00000013          	nop
ffffffff80210284:	00000013          	nop
ffffffff80210288:	00000013          	nop
ffffffff8021028c:	00000013          	nop
ffffffff80210290:	00000013          	nop
ffffffff80210294:	00000013          	nop
ffffffff80210298:	00000013          	nop
ffffffff8021029c:	00000013          	nop
ffffffff802102a0:	00000013          	nop
ffffffff802102a4:	00000013          	nop
ffffffff802102a8:	00000013          	nop
ffffffff802102ac:	00000013          	nop
ffffffff802102b0:	00000013          	nop
ffffffff802102b4:	00000013          	nop
ffffffff802102b8:	00000013          	nop
ffffffff802102bc:	00000013          	nop
ffffffff802102c0:	00000013          	nop
ffffffff802102c4:	00000013          	nop
ffffffff802102c8:	00000013          	nop
ffffffff802102cc:	00000013          	nop
ffffffff802102d0:	00000013          	nop
ffffffff802102d4:	00000013          	nop
ffffffff802102d8:	00000013          	nop
ffffffff802102dc:	00000013          	nop
ffffffff802102e0:	00000013          	nop
ffffffff802102e4:	00000013          	nop
ffffffff802102e8:	00000013          	nop
ffffffff802102ec:	00000013          	nop
ffffffff802102f0:	00000013          	nop
ffffffff802102f4:	00000013          	nop
ffffffff802102f8:	00000013          	nop
ffffffff802102fc:	00000013          	nop
ffffffff80210300:	00000013          	nop
ffffffff80210304:	00000013          	nop
ffffffff80210308:	00000013          	nop
ffffffff8021030c:	00000013          	nop
ffffffff80210310:	00000013          	nop
ffffffff80210314:	00000013          	nop
ffffffff80210318:	00000013          	nop
ffffffff8021031c:	00000013          	nop
ffffffff80210320:	00000013          	nop
ffffffff80210324:	00000013          	nop
ffffffff80210328:	00000013          	nop
ffffffff8021032c:	00000013          	nop
ffffffff80210330:	00000013          	nop
ffffffff80210334:	00000013          	nop
ffffffff80210338:	00000013          	nop
ffffffff8021033c:	00000013          	nop
ffffffff80210340:	00000013          	nop
ffffffff80210344:	00000013          	nop
ffffffff80210348:	00000013          	nop
ffffffff8021034c:	00000013          	nop
ffffffff80210350:	00000013          	nop
ffffffff80210354:	00000013          	nop
ffffffff80210358:	00000013          	nop
ffffffff8021035c:	00000013          	nop
ffffffff80210360:	00000013          	nop
ffffffff80210364:	00000013          	nop
ffffffff80210368:	00000013          	nop
ffffffff8021036c:	00000013          	nop
ffffffff80210370:	00000013          	nop
ffffffff80210374:	00000013          	nop
ffffffff80210378:	00000013          	nop
ffffffff8021037c:	00000013          	nop
ffffffff80210380:	00000013          	nop
ffffffff80210384:	00000013          	nop
ffffffff80210388:	00000013          	nop
ffffffff8021038c:	00000013          	nop
ffffffff80210390:	00000013          	nop
ffffffff80210394:	00000013          	nop
ffffffff80210398:	00000013          	nop
ffffffff8021039c:	00000013          	nop
ffffffff802103a0:	00000013          	nop
ffffffff802103a4:	00000013          	nop
ffffffff802103a8:	00000013          	nop
ffffffff802103ac:	00000013          	nop
ffffffff802103b0:	00000013          	nop
ffffffff802103b4:	00000013          	nop
ffffffff802103b8:	00000013          	nop
ffffffff802103bc:	00000013          	nop
ffffffff802103c0:	00000013          	nop
ffffffff802103c4:	00000013          	nop
ffffffff802103c8:	00000013          	nop
ffffffff802103cc:	00000013          	nop
ffffffff802103d0:	00000013          	nop
ffffffff802103d4:	00000013          	nop
ffffffff802103d8:	00000013          	nop
ffffffff802103dc:	00000013          	nop
ffffffff802103e0:	00000013          	nop
ffffffff802103e4:	00000013          	nop
ffffffff802103e8:	00000013          	nop
ffffffff802103ec:	00000013          	nop
ffffffff802103f0:	00000013          	nop
ffffffff802103f4:	00000013          	nop
ffffffff802103f8:	00000013          	nop
ffffffff802103fc:	00000013          	nop
ffffffff80210400:	00000013          	nop
ffffffff80210404:	00000013          	nop
ffffffff80210408:	00000013          	nop
ffffffff8021040c:	00000013          	nop
ffffffff80210410:	00000013          	nop
ffffffff80210414:	00000013          	nop
ffffffff80210418:	00000013          	nop
ffffffff8021041c:	00000013          	nop
ffffffff80210420:	00000013          	nop
ffffffff80210424:	00000013          	nop
ffffffff80210428:	00000013          	nop
ffffffff8021042c:	00000013          	nop
ffffffff80210430:	00000013          	nop
ffffffff80210434:	00000013          	nop
ffffffff80210438:	00000013          	nop
ffffffff8021043c:	00000013          	nop
ffffffff80210440:	00000013          	nop
ffffffff80210444:	00000013          	nop
ffffffff80210448:	00000013          	nop
ffffffff8021044c:	00000013          	nop
ffffffff80210450:	00000013          	nop
ffffffff80210454:	00000013          	nop
ffffffff80210458:	00000013          	nop
ffffffff8021045c:	00000013          	nop
ffffffff80210460:	00000013          	nop
ffffffff80210464:	00000013          	nop
ffffffff80210468:	00000013          	nop
ffffffff8021046c:	00000013          	nop
ffffffff80210470:	00000013          	nop
ffffffff80210474:	00000013          	nop
ffffffff80210478:	00000013          	nop
ffffffff8021047c:	00000013          	nop
ffffffff80210480:	00000013          	nop
ffffffff80210484:	00000013          	nop
ffffffff80210488:	00000013          	nop
ffffffff8021048c:	00000013          	nop
ffffffff80210490:	00000013          	nop
ffffffff80210494:	00000013          	nop
ffffffff80210498:	00000013          	nop
ffffffff8021049c:	00000013          	nop
ffffffff802104a0:	00000013          	nop
ffffffff802104a4:	00000013          	nop
ffffffff802104a8:	00000013          	nop
ffffffff802104ac:	00000013          	nop
ffffffff802104b0:	00000013          	nop
ffffffff802104b4:	00000013          	nop
ffffffff802104b8:	00000013          	nop
ffffffff802104bc:	00000013          	nop
ffffffff802104c0:	00000013          	nop
ffffffff802104c4:	00000013          	nop
ffffffff802104c8:	00000013          	nop
ffffffff802104cc:	00000013          	nop
ffffffff802104d0:	00000013          	nop
ffffffff802104d4:	00000013          	nop
ffffffff802104d8:	00000013          	nop
ffffffff802104dc:	00000013          	nop
ffffffff802104e0:	00000013          	nop
ffffffff802104e4:	00000013          	nop
ffffffff802104e8:	00000013          	nop
ffffffff802104ec:	00000013          	nop
ffffffff802104f0:	00000013          	nop
ffffffff802104f4:	00000013          	nop
ffffffff802104f8:	00000013          	nop
ffffffff802104fc:	00000013          	nop
ffffffff80210500:	00000013          	nop
ffffffff80210504:	00000013          	nop
ffffffff80210508:	00000013          	nop
ffffffff8021050c:	00000013          	nop
ffffffff80210510:	00000013          	nop
ffffffff80210514:	00000013          	nop
ffffffff80210518:	00000013          	nop
ffffffff8021051c:	00000013          	nop
ffffffff80210520:	00000013          	nop
ffffffff80210524:	00000013          	nop
ffffffff80210528:	00000013          	nop
ffffffff8021052c:	00000013          	nop
ffffffff80210530:	00000013          	nop
ffffffff80210534:	00000013          	nop
ffffffff80210538:	00000013          	nop
ffffffff8021053c:	00000013          	nop
ffffffff80210540:	00000013          	nop
ffffffff80210544:	00000013          	nop
ffffffff80210548:	00000013          	nop
ffffffff8021054c:	00000013          	nop
ffffffff80210550:	00000013          	nop
ffffffff80210554:	00000013          	nop
ffffffff80210558:	00000013          	nop
ffffffff8021055c:	00000013          	nop
ffffffff80210560:	00000013          	nop
ffffffff80210564:	00000013          	nop
ffffffff80210568:	00000013          	nop
ffffffff8021056c:	00000013          	nop
ffffffff80210570:	00000013          	nop
ffffffff80210574:	00000013          	nop
ffffffff80210578:	00000013          	nop
ffffffff8021057c:	00000013          	nop
ffffffff80210580:	00000013          	nop
ffffffff80210584:	00000013          	nop
ffffffff80210588:	00000013          	nop
ffffffff8021058c:	00000013          	nop
ffffffff80210590:	00000013          	nop
ffffffff80210594:	00000013          	nop
ffffffff80210598:	00000013          	nop
ffffffff8021059c:	00000013          	nop
ffffffff802105a0:	00000013          	nop
ffffffff802105a4:	00000013          	nop
ffffffff802105a8:	00000013          	nop
ffffffff802105ac:	00000013          	nop
ffffffff802105b0:	00000013          	nop
ffffffff802105b4:	00000013          	nop
ffffffff802105b8:	00000013          	nop
ffffffff802105bc:	00000013          	nop
ffffffff802105c0:	00000013          	nop
ffffffff802105c4:	00000013          	nop
ffffffff802105c8:	00000013          	nop
ffffffff802105cc:	00000013          	nop
ffffffff802105d0:	00000013          	nop
ffffffff802105d4:	00000013          	nop
ffffffff802105d8:	00000013          	nop
ffffffff802105dc:	00000013          	nop
ffffffff802105e0:	00000013          	nop
ffffffff802105e4:	00000013          	nop
ffffffff802105e8:	00000013          	nop
ffffffff802105ec:	00000013          	nop
ffffffff802105f0:	00000013          	nop
ffffffff802105f4:	00000013          	nop
ffffffff802105f8:	00000013          	nop
ffffffff802105fc:	00000013          	nop
ffffffff80210600:	00000013          	nop
ffffffff80210604:	00000013          	nop
ffffffff80210608:	00000013          	nop
ffffffff8021060c:	00000013          	nop
ffffffff80210610:	00000013          	nop
ffffffff80210614:	00000013          	nop
ffffffff80210618:	00000013          	nop
ffffffff8021061c:	00000013          	nop
ffffffff80210620:	00000013          	nop
ffffffff80210624:	00000013          	nop
ffffffff80210628:	00000013          	nop
ffffffff8021062c:	00000013          	nop
ffffffff80210630:	00000013          	nop
ffffffff80210634:	00000013          	nop
ffffffff80210638:	00000013          	nop
ffffffff8021063c:	00000013          	nop
ffffffff80210640:	00000013          	nop
ffffffff80210644:	00000013          	nop
ffffffff80210648:	00000013          	nop
ffffffff8021064c:	00000013          	nop
ffffffff80210650:	00000013          	nop
ffffffff80210654:	00000013          	nop
ffffffff80210658:	00000013          	nop
ffffffff8021065c:	00000013          	nop
ffffffff80210660:	00000013          	nop
ffffffff80210664:	00000013          	nop
ffffffff80210668:	00000013          	nop
ffffffff8021066c:	00000013          	nop
ffffffff80210670:	00000013          	nop
ffffffff80210674:	00000013          	nop
ffffffff80210678:	00000013          	nop
ffffffff8021067c:	00000013          	nop
ffffffff80210680:	00000013          	nop
ffffffff80210684:	00000013          	nop
ffffffff80210688:	00000013          	nop
ffffffff8021068c:	00000013          	nop
ffffffff80210690:	00000013          	nop
ffffffff80210694:	00000013          	nop
ffffffff80210698:	00000013          	nop
ffffffff8021069c:	00000013          	nop
ffffffff802106a0:	00000013          	nop
ffffffff802106a4:	00000013          	nop
ffffffff802106a8:	00000013          	nop
ffffffff802106ac:	00000013          	nop
ffffffff802106b0:	00000013          	nop
ffffffff802106b4:	00000013          	nop
ffffffff802106b8:	00000013          	nop
ffffffff802106bc:	00000013          	nop
ffffffff802106c0:	00000013          	nop
ffffffff802106c4:	00000013          	nop
ffffffff802106c8:	00000013          	nop
ffffffff802106cc:	00000013          	nop
ffffffff802106d0:	00000013          	nop
ffffffff802106d4:	00000013          	nop
ffffffff802106d8:	00000013          	nop
ffffffff802106dc:	00000013          	nop
ffffffff802106e0:	00000013          	nop
ffffffff802106e4:	00000013          	nop
ffffffff802106e8:	00000013          	nop
ffffffff802106ec:	00000013          	nop
ffffffff802106f0:	00000013          	nop
ffffffff802106f4:	00000013          	nop
ffffffff802106f8:	00000013          	nop
ffffffff802106fc:	00000013          	nop
ffffffff80210700:	00000013          	nop
ffffffff80210704:	00000013          	nop
ffffffff80210708:	00000013          	nop
ffffffff8021070c:	00000013          	nop
ffffffff80210710:	00000013          	nop
ffffffff80210714:	00000013          	nop
ffffffff80210718:	00000013          	nop
ffffffff8021071c:	00000013          	nop
ffffffff80210720:	00000013          	nop
ffffffff80210724:	00000013          	nop
ffffffff80210728:	00000013          	nop
ffffffff8021072c:	00000013          	nop
ffffffff80210730:	00000013          	nop
ffffffff80210734:	00000013          	nop
ffffffff80210738:	00000013          	nop
ffffffff8021073c:	00000013          	nop
ffffffff80210740:	00000013          	nop
ffffffff80210744:	00000013          	nop
ffffffff80210748:	00000013          	nop
ffffffff8021074c:	00000013          	nop
ffffffff80210750:	00000013          	nop
ffffffff80210754:	00000013          	nop
ffffffff80210758:	00000013          	nop
ffffffff8021075c:	00000013          	nop
ffffffff80210760:	00000013          	nop
ffffffff80210764:	00000013          	nop
ffffffff80210768:	00000013          	nop
ffffffff8021076c:	00000013          	nop
ffffffff80210770:	00000013          	nop
ffffffff80210774:	00000013          	nop
ffffffff80210778:	00000013          	nop
ffffffff8021077c:	00000013          	nop
ffffffff80210780:	00000013          	nop
ffffffff80210784:	00000013          	nop
ffffffff80210788:	00000013          	nop
ffffffff8021078c:	00000013          	nop
ffffffff80210790:	00000013          	nop
ffffffff80210794:	00000013          	nop
ffffffff80210798:	00000013          	nop
ffffffff8021079c:	00000013          	nop
ffffffff802107a0:	00000013          	nop
ffffffff802107a4:	00000013          	nop
ffffffff802107a8:	00000013          	nop
ffffffff802107ac:	00000013          	nop
ffffffff802107b0:	00000013          	nop
ffffffff802107b4:	00000013          	nop
ffffffff802107b8:	00000013          	nop
ffffffff802107bc:	00000013          	nop
ffffffff802107c0:	00000013          	nop
ffffffff802107c4:	00000013          	nop
ffffffff802107c8:	00000013          	nop
ffffffff802107cc:	00000013          	nop
ffffffff802107d0:	00000013          	nop
ffffffff802107d4:	00000013          	nop
ffffffff802107d8:	00000013          	nop
ffffffff802107dc:	00000013          	nop
ffffffff802107e0:	00000013          	nop
ffffffff802107e4:	00000013          	nop
ffffffff802107e8:	00000013          	nop
ffffffff802107ec:	00000013          	nop
ffffffff802107f0:	00000013          	nop
ffffffff802107f4:	00000013          	nop
ffffffff802107f8:	00000013          	nop
ffffffff802107fc:	00000013          	nop
ffffffff80210800:	00000013          	nop
ffffffff80210804:	00000013          	nop
ffffffff80210808:	00000013          	nop
ffffffff8021080c:	00000013          	nop
ffffffff80210810:	00000013          	nop
ffffffff80210814:	00000013          	nop
ffffffff80210818:	00000013          	nop
ffffffff8021081c:	00000013          	nop
ffffffff80210820:	00000013          	nop
ffffffff80210824:	00000013          	nop
ffffffff80210828:	00000013          	nop
ffffffff8021082c:	00000013          	nop
ffffffff80210830:	00000013          	nop
ffffffff80210834:	00000013          	nop
ffffffff80210838:	00000013          	nop
ffffffff8021083c:	00000013          	nop
ffffffff80210840:	00000013          	nop
ffffffff80210844:	00000013          	nop
ffffffff80210848:	00000013          	nop
ffffffff8021084c:	00000013          	nop
ffffffff80210850:	00000013          	nop
ffffffff80210854:	00000013          	nop
ffffffff80210858:	00000013          	nop
ffffffff8021085c:	00000013          	nop
ffffffff80210860:	00000013          	nop
ffffffff80210864:	00000013          	nop
ffffffff80210868:	00000013          	nop
ffffffff8021086c:	00000013          	nop
ffffffff80210870:	00000013          	nop
ffffffff80210874:	00000013          	nop
ffffffff80210878:	00000013          	nop
ffffffff8021087c:	00000013          	nop
ffffffff80210880:	00000013          	nop
ffffffff80210884:	00000013          	nop
ffffffff80210888:	00000013          	nop
ffffffff8021088c:	00000013          	nop
ffffffff80210890:	00000013          	nop
ffffffff80210894:	00000013          	nop
ffffffff80210898:	00000013          	nop
ffffffff8021089c:	00000013          	nop
ffffffff802108a0:	00000013          	nop
ffffffff802108a4:	00000013          	nop
ffffffff802108a8:	00000013          	nop
ffffffff802108ac:	00000013          	nop
ffffffff802108b0:	00000013          	nop
ffffffff802108b4:	00000013          	nop
ffffffff802108b8:	00000013          	nop
ffffffff802108bc:	00000013          	nop
ffffffff802108c0:	00000013          	nop
ffffffff802108c4:	00000013          	nop
ffffffff802108c8:	00000013          	nop
ffffffff802108cc:	00000013          	nop
ffffffff802108d0:	00000013          	nop
ffffffff802108d4:	00000013          	nop
ffffffff802108d8:	00000013          	nop
ffffffff802108dc:	00000013          	nop
ffffffff802108e0:	00000013          	nop
ffffffff802108e4:	00000013          	nop
ffffffff802108e8:	00000013          	nop
ffffffff802108ec:	00000013          	nop
ffffffff802108f0:	00000013          	nop
ffffffff802108f4:	00000013          	nop
ffffffff802108f8:	00000013          	nop
ffffffff802108fc:	00000013          	nop
ffffffff80210900:	00000013          	nop
ffffffff80210904:	00000013          	nop
ffffffff80210908:	00000013          	nop
ffffffff8021090c:	00000013          	nop
ffffffff80210910:	00000013          	nop
ffffffff80210914:	00000013          	nop
ffffffff80210918:	00000013          	nop
ffffffff8021091c:	00000013          	nop
ffffffff80210920:	00000013          	nop
ffffffff80210924:	00000013          	nop
ffffffff80210928:	00000013          	nop
ffffffff8021092c:	00000013          	nop
ffffffff80210930:	00000013          	nop
ffffffff80210934:	00000013          	nop
ffffffff80210938:	00000013          	nop
ffffffff8021093c:	00000013          	nop
ffffffff80210940:	00000013          	nop
ffffffff80210944:	00000013          	nop
ffffffff80210948:	00000013          	nop
ffffffff8021094c:	00000013          	nop
ffffffff80210950:	00000013          	nop
ffffffff80210954:	00000013          	nop
ffffffff80210958:	00000013          	nop
ffffffff8021095c:	00000013          	nop
ffffffff80210960:	00000013          	nop
ffffffff80210964:	00000013          	nop
ffffffff80210968:	00000013          	nop
ffffffff8021096c:	00000013          	nop
ffffffff80210970:	00000013          	nop
ffffffff80210974:	00000013          	nop
ffffffff80210978:	00000013          	nop
ffffffff8021097c:	00000013          	nop
ffffffff80210980:	00000013          	nop
ffffffff80210984:	00000013          	nop
ffffffff80210988:	00000013          	nop
ffffffff8021098c:	00000013          	nop
ffffffff80210990:	00000013          	nop
ffffffff80210994:	00000013          	nop
ffffffff80210998:	00000013          	nop
ffffffff8021099c:	00000013          	nop
ffffffff802109a0:	00000013          	nop
ffffffff802109a4:	00000013          	nop
ffffffff802109a8:	00000013          	nop
ffffffff802109ac:	00000013          	nop
ffffffff802109b0:	00000013          	nop
ffffffff802109b4:	00000013          	nop
ffffffff802109b8:	00000013          	nop
ffffffff802109bc:	00000013          	nop
ffffffff802109c0:	00000013          	nop
ffffffff802109c4:	00000013          	nop
ffffffff802109c8:	00000013          	nop
ffffffff802109cc:	00000013          	nop
ffffffff802109d0:	00000013          	nop
ffffffff802109d4:	00000013          	nop
ffffffff802109d8:	00000013          	nop
ffffffff802109dc:	00000013          	nop
ffffffff802109e0:	00000013          	nop
ffffffff802109e4:	00000013          	nop
ffffffff802109e8:	00000013          	nop
ffffffff802109ec:	00000013          	nop
ffffffff802109f0:	00000013          	nop
ffffffff802109f4:	00000013          	nop
ffffffff802109f8:	00000013          	nop
ffffffff802109fc:	00000013          	nop
ffffffff80210a00:	00000013          	nop
ffffffff80210a04:	00000013          	nop
ffffffff80210a08:	00000013          	nop
ffffffff80210a0c:	00000013          	nop
ffffffff80210a10:	00000013          	nop
ffffffff80210a14:	00000013          	nop
ffffffff80210a18:	00000013          	nop
ffffffff80210a1c:	00000013          	nop
ffffffff80210a20:	00000013          	nop
ffffffff80210a24:	00000013          	nop
ffffffff80210a28:	00000013          	nop
ffffffff80210a2c:	00000013          	nop
ffffffff80210a30:	00000013          	nop
ffffffff80210a34:	00000013          	nop
ffffffff80210a38:	00000013          	nop
ffffffff80210a3c:	00000013          	nop
ffffffff80210a40:	00000013          	nop
ffffffff80210a44:	00000013          	nop
ffffffff80210a48:	00000013          	nop
ffffffff80210a4c:	00000013          	nop
ffffffff80210a50:	00000013          	nop
ffffffff80210a54:	00000013          	nop
ffffffff80210a58:	00000013          	nop
ffffffff80210a5c:	00000013          	nop
ffffffff80210a60:	00000013          	nop
ffffffff80210a64:	00000013          	nop
ffffffff80210a68:	00000013          	nop
ffffffff80210a6c:	00000013          	nop
ffffffff80210a70:	00000013          	nop
ffffffff80210a74:	00000013          	nop
ffffffff80210a78:	00000013          	nop
ffffffff80210a7c:	00000013          	nop
ffffffff80210a80:	00000013          	nop
ffffffff80210a84:	00000013          	nop
ffffffff80210a88:	00000013          	nop
ffffffff80210a8c:	00000013          	nop
ffffffff80210a90:	00000013          	nop
ffffffff80210a94:	00000013          	nop
ffffffff80210a98:	00000013          	nop
ffffffff80210a9c:	00000013          	nop
ffffffff80210aa0:	00000013          	nop
ffffffff80210aa4:	00000013          	nop
ffffffff80210aa8:	00000013          	nop
ffffffff80210aac:	00000013          	nop
ffffffff80210ab0:	00000013          	nop
ffffffff80210ab4:	00000013          	nop
ffffffff80210ab8:	00000013          	nop
ffffffff80210abc:	00000013          	nop
ffffffff80210ac0:	00000013          	nop
ffffffff80210ac4:	00000013          	nop
ffffffff80210ac8:	00000013          	nop
ffffffff80210acc:	00000013          	nop
ffffffff80210ad0:	00000013          	nop
ffffffff80210ad4:	00000013          	nop
ffffffff80210ad8:	00000013          	nop
ffffffff80210adc:	00000013          	nop
ffffffff80210ae0:	00000013          	nop
ffffffff80210ae4:	00000013          	nop
ffffffff80210ae8:	00000013          	nop
ffffffff80210aec:	00000013          	nop
ffffffff80210af0:	00000013          	nop
ffffffff80210af4:	00000013          	nop
ffffffff80210af8:	00000013          	nop
ffffffff80210afc:	00000013          	nop
ffffffff80210b00:	00000013          	nop
ffffffff80210b04:	00000013          	nop
ffffffff80210b08:	00000013          	nop
ffffffff80210b0c:	00000013          	nop
ffffffff80210b10:	00000013          	nop
ffffffff80210b14:	00000013          	nop
ffffffff80210b18:	00000013          	nop
ffffffff80210b1c:	00000013          	nop
ffffffff80210b20:	00000013          	nop
ffffffff80210b24:	00000013          	nop
ffffffff80210b28:	00000013          	nop
ffffffff80210b2c:	00000013          	nop
ffffffff80210b30:	00000013          	nop
ffffffff80210b34:	00000013          	nop
ffffffff80210b38:	00000013          	nop
ffffffff80210b3c:	00000013          	nop
ffffffff80210b40:	00000013          	nop
ffffffff80210b44:	00000013          	nop
ffffffff80210b48:	00000013          	nop
ffffffff80210b4c:	00000013          	nop
ffffffff80210b50:	00000013          	nop
ffffffff80210b54:	00000013          	nop
ffffffff80210b58:	00000013          	nop
ffffffff80210b5c:	00000013          	nop
ffffffff80210b60:	00000013          	nop
ffffffff80210b64:	00000013          	nop
ffffffff80210b68:	00000013          	nop
ffffffff80210b6c:	00000013          	nop
ffffffff80210b70:	00000013          	nop
ffffffff80210b74:	00000013          	nop
ffffffff80210b78:	00000013          	nop
ffffffff80210b7c:	00000013          	nop
ffffffff80210b80:	00000013          	nop
ffffffff80210b84:	00000013          	nop
ffffffff80210b88:	00000013          	nop
ffffffff80210b8c:	00000013          	nop
ffffffff80210b90:	00000013          	nop
ffffffff80210b94:	00000013          	nop
ffffffff80210b98:	00000013          	nop
ffffffff80210b9c:	00000013          	nop
ffffffff80210ba0:	00000013          	nop
ffffffff80210ba4:	00000013          	nop
ffffffff80210ba8:	00000013          	nop
ffffffff80210bac:	00000013          	nop
ffffffff80210bb0:	00000013          	nop
ffffffff80210bb4:	00000013          	nop
ffffffff80210bb8:	00000013          	nop
ffffffff80210bbc:	00000013          	nop
ffffffff80210bc0:	00000013          	nop
ffffffff80210bc4:	00000013          	nop
ffffffff80210bc8:	00000013          	nop
ffffffff80210bcc:	00000013          	nop
ffffffff80210bd0:	00000013          	nop
ffffffff80210bd4:	00000013          	nop
ffffffff80210bd8:	00000013          	nop
ffffffff80210bdc:	00000013          	nop
ffffffff80210be0:	00000013          	nop
ffffffff80210be4:	00000013          	nop
ffffffff80210be8:	00000013          	nop
ffffffff80210bec:	00000013          	nop
ffffffff80210bf0:	00000013          	nop
ffffffff80210bf4:	00000013          	nop
ffffffff80210bf8:	00000013          	nop
ffffffff80210bfc:	00000013          	nop
ffffffff80210c00:	00000013          	nop
ffffffff80210c04:	00000013          	nop
ffffffff80210c08:	00000013          	nop
ffffffff80210c0c:	00000013          	nop
ffffffff80210c10:	00000013          	nop
ffffffff80210c14:	00000013          	nop
ffffffff80210c18:	00000013          	nop
ffffffff80210c1c:	00000013          	nop
ffffffff80210c20:	00000013          	nop
ffffffff80210c24:	00000013          	nop
ffffffff80210c28:	00000013          	nop
ffffffff80210c2c:	00000013          	nop
ffffffff80210c30:	00000013          	nop
ffffffff80210c34:	00000013          	nop
ffffffff80210c38:	00000013          	nop
ffffffff80210c3c:	00000013          	nop
ffffffff80210c40:	00000013          	nop
ffffffff80210c44:	00000013          	nop
ffffffff80210c48:	00000013          	nop
ffffffff80210c4c:	00000013          	nop
ffffffff80210c50:	00000013          	nop
ffffffff80210c54:	00000013          	nop
ffffffff80210c58:	00000013          	nop
ffffffff80210c5c:	00000013          	nop
ffffffff80210c60:	00000013          	nop
ffffffff80210c64:	00000013          	nop
ffffffff80210c68:	00000013          	nop
ffffffff80210c6c:	00000013          	nop
ffffffff80210c70:	00000013          	nop
ffffffff80210c74:	00000013          	nop
ffffffff80210c78:	00000013          	nop
ffffffff80210c7c:	00000013          	nop
ffffffff80210c80:	00000013          	nop
ffffffff80210c84:	00000013          	nop
ffffffff80210c88:	00000013          	nop
ffffffff80210c8c:	00000013          	nop
ffffffff80210c90:	00000013          	nop
ffffffff80210c94:	00000013          	nop
ffffffff80210c98:	00000013          	nop
ffffffff80210c9c:	00000013          	nop
ffffffff80210ca0:	00000013          	nop
ffffffff80210ca4:	00000013          	nop
ffffffff80210ca8:	00000013          	nop
ffffffff80210cac:	00000013          	nop
ffffffff80210cb0:	00000013          	nop
ffffffff80210cb4:	00000013          	nop
ffffffff80210cb8:	00000013          	nop
ffffffff80210cbc:	00000013          	nop
ffffffff80210cc0:	00000013          	nop
ffffffff80210cc4:	00000013          	nop
ffffffff80210cc8:	00000013          	nop
ffffffff80210ccc:	00000013          	nop
ffffffff80210cd0:	00000013          	nop
ffffffff80210cd4:	00000013          	nop
ffffffff80210cd8:	00000013          	nop
ffffffff80210cdc:	00000013          	nop
ffffffff80210ce0:	00000013          	nop
ffffffff80210ce4:	00000013          	nop
ffffffff80210ce8:	00000013          	nop
ffffffff80210cec:	00000013          	nop
ffffffff80210cf0:	00000013          	nop
ffffffff80210cf4:	00000013          	nop
ffffffff80210cf8:	00000013          	nop
ffffffff80210cfc:	00000013          	nop
ffffffff80210d00:	00000013          	nop
ffffffff80210d04:	00000013          	nop
ffffffff80210d08:	00000013          	nop
ffffffff80210d0c:	00000013          	nop
ffffffff80210d10:	00000013          	nop
ffffffff80210d14:	00000013          	nop
ffffffff80210d18:	00000013          	nop
ffffffff80210d1c:	00000013          	nop
ffffffff80210d20:	00000013          	nop
ffffffff80210d24:	00000013          	nop
ffffffff80210d28:	00000013          	nop
ffffffff80210d2c:	00000013          	nop
ffffffff80210d30:	00000013          	nop
ffffffff80210d34:	00000013          	nop
ffffffff80210d38:	00000013          	nop
ffffffff80210d3c:	00000013          	nop
ffffffff80210d40:	00000013          	nop
ffffffff80210d44:	00000013          	nop
ffffffff80210d48:	00000013          	nop
ffffffff80210d4c:	00000013          	nop
ffffffff80210d50:	00000013          	nop
ffffffff80210d54:	00000013          	nop
ffffffff80210d58:	00000013          	nop
ffffffff80210d5c:	00000013          	nop
ffffffff80210d60:	00000013          	nop
ffffffff80210d64:	00000013          	nop
ffffffff80210d68:	00000013          	nop
ffffffff80210d6c:	00000013          	nop
ffffffff80210d70:	00000013          	nop
ffffffff80210d74:	00000013          	nop
ffffffff80210d78:	00000013          	nop
ffffffff80210d7c:	00000013          	nop
ffffffff80210d80:	00000013          	nop
ffffffff80210d84:	00000013          	nop
ffffffff80210d88:	00000013          	nop
ffffffff80210d8c:	00000013          	nop
ffffffff80210d90:	00000013          	nop
ffffffff80210d94:	00000013          	nop
ffffffff80210d98:	00000013          	nop
ffffffff80210d9c:	00000013          	nop
ffffffff80210da0:	00000013          	nop
ffffffff80210da4:	00000013          	nop
ffffffff80210da8:	00000013          	nop
ffffffff80210dac:	00000013          	nop
ffffffff80210db0:	00000013          	nop
ffffffff80210db4:	00000013          	nop
ffffffff80210db8:	00000013          	nop
ffffffff80210dbc:	00000013          	nop
ffffffff80210dc0:	00000013          	nop
ffffffff80210dc4:	00000013          	nop
ffffffff80210dc8:	00000013          	nop
ffffffff80210dcc:	00000013          	nop
ffffffff80210dd0:	00000013          	nop
ffffffff80210dd4:	00000013          	nop
ffffffff80210dd8:	00000013          	nop
ffffffff80210ddc:	00000013          	nop
ffffffff80210de0:	00000013          	nop
ffffffff80210de4:	00000013          	nop
ffffffff80210de8:	00000013          	nop
ffffffff80210dec:	00000013          	nop
ffffffff80210df0:	00000013          	nop
ffffffff80210df4:	00000013          	nop
ffffffff80210df8:	00000013          	nop
ffffffff80210dfc:	00000013          	nop
ffffffff80210e00:	00000013          	nop
ffffffff80210e04:	00000013          	nop
ffffffff80210e08:	00000013          	nop
ffffffff80210e0c:	00000013          	nop
ffffffff80210e10:	00000013          	nop
ffffffff80210e14:	00000013          	nop
ffffffff80210e18:	00000013          	nop
ffffffff80210e1c:	00000013          	nop
ffffffff80210e20:	00000013          	nop
ffffffff80210e24:	00000013          	nop
ffffffff80210e28:	00000013          	nop
ffffffff80210e2c:	00000013          	nop
ffffffff80210e30:	00000013          	nop
ffffffff80210e34:	00000013          	nop
ffffffff80210e38:	00000013          	nop
ffffffff80210e3c:	00000013          	nop
ffffffff80210e40:	00000013          	nop
ffffffff80210e44:	00000013          	nop
ffffffff80210e48:	00000013          	nop
ffffffff80210e4c:	00000013          	nop
ffffffff80210e50:	00000013          	nop
ffffffff80210e54:	00000013          	nop
ffffffff80210e58:	00000013          	nop
ffffffff80210e5c:	00000013          	nop
ffffffff80210e60:	00000013          	nop
ffffffff80210e64:	00000013          	nop
ffffffff80210e68:	00000013          	nop
ffffffff80210e6c:	00000013          	nop
ffffffff80210e70:	00000013          	nop
ffffffff80210e74:	00000013          	nop
ffffffff80210e78:	00000013          	nop
ffffffff80210e7c:	00000013          	nop
ffffffff80210e80:	00000013          	nop
ffffffff80210e84:	00000013          	nop
ffffffff80210e88:	00000013          	nop
ffffffff80210e8c:	00000013          	nop
ffffffff80210e90:	00000013          	nop
ffffffff80210e94:	00000013          	nop
ffffffff80210e98:	00000013          	nop
ffffffff80210e9c:	00000013          	nop
ffffffff80210ea0:	00000013          	nop
ffffffff80210ea4:	00000013          	nop
ffffffff80210ea8:	00000013          	nop
ffffffff80210eac:	00000013          	nop
ffffffff80210eb0:	00000013          	nop
ffffffff80210eb4:	00000013          	nop
ffffffff80210eb8:	00000013          	nop
ffffffff80210ebc:	00000013          	nop
ffffffff80210ec0:	00000013          	nop
ffffffff80210ec4:	00000013          	nop
ffffffff80210ec8:	00000013          	nop
ffffffff80210ecc:	00000013          	nop
ffffffff80210ed0:	00000013          	nop
ffffffff80210ed4:	00000013          	nop
ffffffff80210ed8:	00000013          	nop
ffffffff80210edc:	00000013          	nop
ffffffff80210ee0:	00000013          	nop
ffffffff80210ee4:	00000013          	nop
ffffffff80210ee8:	00000013          	nop
ffffffff80210eec:	00000013          	nop
ffffffff80210ef0:	00000013          	nop
ffffffff80210ef4:	00000013          	nop
ffffffff80210ef8:	00000013          	nop
ffffffff80210efc:	00000013          	nop
ffffffff80210f00:	00000013          	nop
ffffffff80210f04:	00000013          	nop
ffffffff80210f08:	00000013          	nop
ffffffff80210f0c:	00000013          	nop
ffffffff80210f10:	00000013          	nop
ffffffff80210f14:	00000013          	nop
ffffffff80210f18:	00000013          	nop
ffffffff80210f1c:	00000013          	nop
ffffffff80210f20:	00000013          	nop
ffffffff80210f24:	00000013          	nop
ffffffff80210f28:	00000013          	nop
ffffffff80210f2c:	00000013          	nop
ffffffff80210f30:	00000013          	nop
ffffffff80210f34:	00000013          	nop
ffffffff80210f38:	00000013          	nop
ffffffff80210f3c:	00000013          	nop
ffffffff80210f40:	00000013          	nop
ffffffff80210f44:	00000013          	nop
ffffffff80210f48:	00000013          	nop
ffffffff80210f4c:	00000013          	nop
ffffffff80210f50:	00000013          	nop
ffffffff80210f54:	00000013          	nop
ffffffff80210f58:	00000013          	nop
ffffffff80210f5c:	00000013          	nop
ffffffff80210f60:	00000013          	nop
ffffffff80210f64:	00000013          	nop
ffffffff80210f68:	00000013          	nop
ffffffff80210f6c:	00000013          	nop
ffffffff80210f70:	00000013          	nop
ffffffff80210f74:	00000013          	nop
ffffffff80210f78:	00000013          	nop
ffffffff80210f7c:	00000013          	nop
ffffffff80210f80:	00000013          	nop
ffffffff80210f84:	00000013          	nop
ffffffff80210f88:	00000013          	nop
ffffffff80210f8c:	00000013          	nop
ffffffff80210f90:	00000013          	nop
ffffffff80210f94:	00000013          	nop
ffffffff80210f98:	00000013          	nop
ffffffff80210f9c:	00000013          	nop
ffffffff80210fa0:	00000013          	nop
ffffffff80210fa4:	00000013          	nop
ffffffff80210fa8:	00000013          	nop
ffffffff80210fac:	00000013          	nop
ffffffff80210fb0:	00000013          	nop
ffffffff80210fb4:	00000013          	nop
ffffffff80210fb8:	00000013          	nop
ffffffff80210fbc:	00000013          	nop
ffffffff80210fc0:	00000013          	nop
ffffffff80210fc4:	00000013          	nop
ffffffff80210fc8:	00000013          	nop
ffffffff80210fcc:	00000013          	nop
ffffffff80210fd0:	00000013          	nop
ffffffff80210fd4:	00000013          	nop
ffffffff80210fd8:	00000013          	nop
ffffffff80210fdc:	00000013          	nop
ffffffff80210fe0:	00000013          	nop
ffffffff80210fe4:	00000013          	nop
ffffffff80210fe8:	00000013          	nop
ffffffff80210fec:	00000013          	nop
ffffffff80210ff0:	00000013          	nop
ffffffff80210ff4:	00000013          	nop
ffffffff80210ff8:	00000013          	nop
ffffffff80210ffc:	00000013          	nop
ffffffff80211000:	00000013          	nop
ffffffff80211004:	00000013          	nop
ffffffff80211008:	00000013          	nop
ffffffff8021100c:	00000013          	nop
ffffffff80211010:	00000013          	nop
ffffffff80211014:	00000013          	nop
ffffffff80211018:	00000013          	nop
ffffffff8021101c:	00000013          	nop
ffffffff80211020:	00000013          	nop
ffffffff80211024:	00000013          	nop
ffffffff80211028:	00000013          	nop
ffffffff8021102c:	00000013          	nop
ffffffff80211030:	00000013          	nop
ffffffff80211034:	00000013          	nop
ffffffff80211038:	00000013          	nop
ffffffff8021103c:	00000013          	nop
ffffffff80211040:	00000013          	nop
ffffffff80211044:	00000013          	nop
ffffffff80211048:	00000013          	nop
ffffffff8021104c:	00000013          	nop
ffffffff80211050:	00000013          	nop
ffffffff80211054:	00000013          	nop
ffffffff80211058:	00000013          	nop
ffffffff8021105c:	00000013          	nop
ffffffff80211060:	00000013          	nop
ffffffff80211064:	00000013          	nop
ffffffff80211068:	00000013          	nop
ffffffff8021106c:	00000013          	nop
ffffffff80211070:	00000013          	nop
ffffffff80211074:	00000013          	nop
ffffffff80211078:	00000013          	nop
ffffffff8021107c:	00000013          	nop
ffffffff80211080:	00000013          	nop
ffffffff80211084:	00000013          	nop
ffffffff80211088:	00000013          	nop
ffffffff8021108c:	00000013          	nop
ffffffff80211090:	00000013          	nop
ffffffff80211094:	00000013          	nop
ffffffff80211098:	00000013          	nop
ffffffff8021109c:	00000013          	nop
ffffffff802110a0:	00000013          	nop
ffffffff802110a4:	00000013          	nop
ffffffff802110a8:	00000013          	nop
ffffffff802110ac:	00000013          	nop
ffffffff802110b0:	00000013          	nop
ffffffff802110b4:	00000013          	nop
ffffffff802110b8:	00000013          	nop
ffffffff802110bc:	00000013          	nop
ffffffff802110c0:	00000013          	nop
ffffffff802110c4:	00000013          	nop
ffffffff802110c8:	00000013          	nop
ffffffff802110cc:	00000013          	nop
ffffffff802110d0:	00000013          	nop
ffffffff802110d4:	00000013          	nop
ffffffff802110d8:	00000013          	nop
ffffffff802110dc:	00000013          	nop
ffffffff802110e0:	00000013          	nop
ffffffff802110e4:	00000013          	nop
ffffffff802110e8:	00000013          	nop
ffffffff802110ec:	00000013          	nop
ffffffff802110f0:	00000013          	nop
ffffffff802110f4:	00000013          	nop
ffffffff802110f8:	00000013          	nop
ffffffff802110fc:	00000013          	nop
ffffffff80211100:	00000013          	nop
ffffffff80211104:	00000013          	nop
ffffffff80211108:	00000013          	nop
ffffffff8021110c:	00000013          	nop
ffffffff80211110:	00000013          	nop
ffffffff80211114:	00000013          	nop
ffffffff80211118:	00000013          	nop
ffffffff8021111c:	00000013          	nop
ffffffff80211120:	00000013          	nop
ffffffff80211124:	00000013          	nop
ffffffff80211128:	00000013          	nop
ffffffff8021112c:	00000013          	nop
ffffffff80211130:	00000013          	nop
ffffffff80211134:	00000013          	nop
ffffffff80211138:	00000013          	nop
ffffffff8021113c:	00000013          	nop
ffffffff80211140:	00000013          	nop
ffffffff80211144:	00000013          	nop
ffffffff80211148:	00000013          	nop
ffffffff8021114c:	00000013          	nop
ffffffff80211150:	00000013          	nop
ffffffff80211154:	00000013          	nop
ffffffff80211158:	00000013          	nop
ffffffff8021115c:	00000013          	nop
ffffffff80211160:	00000013          	nop
ffffffff80211164:	00000013          	nop
ffffffff80211168:	00000013          	nop
ffffffff8021116c:	00000013          	nop
ffffffff80211170:	00000013          	nop
ffffffff80211174:	00000013          	nop
ffffffff80211178:	00000013          	nop
ffffffff8021117c:	00000013          	nop
ffffffff80211180:	00000013          	nop
ffffffff80211184:	00000013          	nop
ffffffff80211188:	00000013          	nop
ffffffff8021118c:	00000013          	nop
ffffffff80211190:	00000013          	nop
ffffffff80211194:	00000013          	nop
ffffffff80211198:	00000013          	nop
ffffffff8021119c:	00000013          	nop
ffffffff802111a0:	00000013          	nop
ffffffff802111a4:	00000013          	nop
ffffffff802111a8:	00000013          	nop
ffffffff802111ac:	00000013          	nop
ffffffff802111b0:	00000013          	nop
ffffffff802111b4:	00000013          	nop
ffffffff802111b8:	00000013          	nop
ffffffff802111bc:	00000013          	nop
ffffffff802111c0:	00000013          	nop
ffffffff802111c4:	00000013          	nop
ffffffff802111c8:	00000013          	nop
ffffffff802111cc:	00000013          	nop
ffffffff802111d0:	00000013          	nop
ffffffff802111d4:	00000013          	nop
ffffffff802111d8:	00000013          	nop
ffffffff802111dc:	00000013          	nop
ffffffff802111e0:	00000013          	nop
ffffffff802111e4:	00000013          	nop
ffffffff802111e8:	00000013          	nop
ffffffff802111ec:	00000013          	nop
ffffffff802111f0:	00000013          	nop
ffffffff802111f4:	00000013          	nop
ffffffff802111f8:	00000013          	nop
ffffffff802111fc:	00000013          	nop
ffffffff80211200:	00000013          	nop
ffffffff80211204:	00000013          	nop
ffffffff80211208:	00000013          	nop
ffffffff8021120c:	00000013          	nop
ffffffff80211210:	00000013          	nop
ffffffff80211214:	00000013          	nop
ffffffff80211218:	00000013          	nop
ffffffff8021121c:	00000013          	nop
ffffffff80211220:	00000013          	nop
ffffffff80211224:	00000013          	nop
ffffffff80211228:	00000013          	nop
ffffffff8021122c:	00000013          	nop
ffffffff80211230:	00000013          	nop
ffffffff80211234:	00000013          	nop
ffffffff80211238:	00000013          	nop
ffffffff8021123c:	00000013          	nop
ffffffff80211240:	00000013          	nop
ffffffff80211244:	00000013          	nop
ffffffff80211248:	00000013          	nop
ffffffff8021124c:	00000013          	nop
ffffffff80211250:	00000013          	nop
ffffffff80211254:	00000013          	nop
ffffffff80211258:	00000013          	nop
ffffffff8021125c:	00000013          	nop
ffffffff80211260:	00000013          	nop
ffffffff80211264:	00000013          	nop
ffffffff80211268:	00000013          	nop
ffffffff8021126c:	00000013          	nop
ffffffff80211270:	00000013          	nop
ffffffff80211274:	00000013          	nop
ffffffff80211278:	00000013          	nop
ffffffff8021127c:	00000013          	nop
ffffffff80211280:	00000013          	nop
ffffffff80211284:	00000013          	nop
ffffffff80211288:	00000013          	nop
ffffffff8021128c:	00000013          	nop
ffffffff80211290:	00000013          	nop
ffffffff80211294:	00000013          	nop
ffffffff80211298:	00000013          	nop
ffffffff8021129c:	00000013          	nop
ffffffff802112a0:	00000013          	nop
ffffffff802112a4:	00000013          	nop
ffffffff802112a8:	00000013          	nop
ffffffff802112ac:	00000013          	nop
ffffffff802112b0:	00000013          	nop
ffffffff802112b4:	00000013          	nop
ffffffff802112b8:	00000013          	nop
ffffffff802112bc:	00000013          	nop
ffffffff802112c0:	00000013          	nop
ffffffff802112c4:	00000013          	nop
ffffffff802112c8:	00000013          	nop
ffffffff802112cc:	00000013          	nop
ffffffff802112d0:	00000013          	nop
ffffffff802112d4:	00000013          	nop
ffffffff802112d8:	00000013          	nop
ffffffff802112dc:	00000013          	nop
ffffffff802112e0:	00000013          	nop
ffffffff802112e4:	00000013          	nop
ffffffff802112e8:	00000013          	nop
ffffffff802112ec:	00000013          	nop
ffffffff802112f0:	00000013          	nop
ffffffff802112f4:	00000013          	nop
ffffffff802112f8:	00000013          	nop
ffffffff802112fc:	00000013          	nop
ffffffff80211300:	00000013          	nop
ffffffff80211304:	00000013          	nop
ffffffff80211308:	00000013          	nop
ffffffff8021130c:	00000013          	nop
ffffffff80211310:	00000013          	nop
ffffffff80211314:	00000013          	nop
ffffffff80211318:	00000013          	nop
ffffffff8021131c:	00000013          	nop
ffffffff80211320:	00000013          	nop
ffffffff80211324:	00000013          	nop
ffffffff80211328:	00000013          	nop
ffffffff8021132c:	00000013          	nop
ffffffff80211330:	00000013          	nop
ffffffff80211334:	00000013          	nop
ffffffff80211338:	00000013          	nop
ffffffff8021133c:	00000013          	nop
ffffffff80211340:	00000013          	nop
ffffffff80211344:	00000013          	nop
ffffffff80211348:	00000013          	nop
ffffffff8021134c:	00000013          	nop
ffffffff80211350:	00000013          	nop
ffffffff80211354:	00000013          	nop
ffffffff80211358:	00000013          	nop
ffffffff8021135c:	00000013          	nop
ffffffff80211360:	00000013          	nop
ffffffff80211364:	00000013          	nop
ffffffff80211368:	00000013          	nop
ffffffff8021136c:	00000013          	nop
ffffffff80211370:	00000013          	nop
ffffffff80211374:	00000013          	nop
ffffffff80211378:	00000013          	nop
ffffffff8021137c:	00000013          	nop
ffffffff80211380:	00000013          	nop
ffffffff80211384:	00000013          	nop
ffffffff80211388:	00000013          	nop
ffffffff8021138c:	00000013          	nop
ffffffff80211390:	00000013          	nop
ffffffff80211394:	00000013          	nop
ffffffff80211398:	00000013          	nop
ffffffff8021139c:	00000013          	nop
ffffffff802113a0:	00000013          	nop
ffffffff802113a4:	00000013          	nop
ffffffff802113a8:	00000013          	nop
ffffffff802113ac:	00000013          	nop
ffffffff802113b0:	00000013          	nop
ffffffff802113b4:	00000013          	nop
ffffffff802113b8:	00000013          	nop
ffffffff802113bc:	00000013          	nop
ffffffff802113c0:	00000013          	nop
ffffffff802113c4:	00000013          	nop
ffffffff802113c8:	00000013          	nop
ffffffff802113cc:	00000013          	nop
ffffffff802113d0:	00000013          	nop
ffffffff802113d4:	00000013          	nop
ffffffff802113d8:	00000013          	nop
ffffffff802113dc:	00000013          	nop
ffffffff802113e0:	00000013          	nop
ffffffff802113e4:	00000013          	nop
ffffffff802113e8:	00000013          	nop
ffffffff802113ec:	00000013          	nop
ffffffff802113f0:	00000013          	nop
ffffffff802113f4:	00000013          	nop
ffffffff802113f8:	00000013          	nop
ffffffff802113fc:	00000013          	nop
ffffffff80211400:	00000013          	nop
ffffffff80211404:	00000013          	nop
ffffffff80211408:	00000013          	nop
ffffffff8021140c:	00000013          	nop
ffffffff80211410:	00000013          	nop
ffffffff80211414:	00000013          	nop
ffffffff80211418:	00000013          	nop
ffffffff8021141c:	00000013          	nop
ffffffff80211420:	00000013          	nop
ffffffff80211424:	00000013          	nop
ffffffff80211428:	00000013          	nop
ffffffff8021142c:	00000013          	nop
ffffffff80211430:	00000013          	nop
ffffffff80211434:	00000013          	nop
ffffffff80211438:	00000013          	nop
ffffffff8021143c:	00000013          	nop
ffffffff80211440:	00000013          	nop
ffffffff80211444:	00000013          	nop
ffffffff80211448:	00000013          	nop
ffffffff8021144c:	00000013          	nop
ffffffff80211450:	00000013          	nop
ffffffff80211454:	00000013          	nop
ffffffff80211458:	00000013          	nop
ffffffff8021145c:	00000013          	nop
ffffffff80211460:	00000013          	nop
ffffffff80211464:	00000013          	nop
ffffffff80211468:	00000013          	nop
ffffffff8021146c:	00000013          	nop
ffffffff80211470:	00000013          	nop
ffffffff80211474:	00000013          	nop
ffffffff80211478:	00000013          	nop
ffffffff8021147c:	00000013          	nop
ffffffff80211480:	00000013          	nop
ffffffff80211484:	00000013          	nop
ffffffff80211488:	00000013          	nop
ffffffff8021148c:	00000013          	nop
ffffffff80211490:	00000013          	nop
ffffffff80211494:	00000013          	nop
ffffffff80211498:	00000013          	nop
ffffffff8021149c:	00000013          	nop
ffffffff802114a0:	00000013          	nop
ffffffff802114a4:	00000013          	nop
ffffffff802114a8:	00000013          	nop
ffffffff802114ac:	00000013          	nop
ffffffff802114b0:	00000013          	nop
ffffffff802114b4:	00000013          	nop
ffffffff802114b8:	00000013          	nop
ffffffff802114bc:	00000013          	nop
ffffffff802114c0:	00000013          	nop
ffffffff802114c4:	00000013          	nop
ffffffff802114c8:	00000013          	nop
ffffffff802114cc:	00000013          	nop
ffffffff802114d0:	00000013          	nop
ffffffff802114d4:	00000013          	nop
ffffffff802114d8:	00000013          	nop
ffffffff802114dc:	00000013          	nop
ffffffff802114e0:	00000013          	nop
ffffffff802114e4:	00000013          	nop
ffffffff802114e8:	00000013          	nop
ffffffff802114ec:	00000013          	nop
ffffffff802114f0:	00000013          	nop
ffffffff802114f4:	00000013          	nop
ffffffff802114f8:	00000013          	nop
ffffffff802114fc:	00000013          	nop
ffffffff80211500:	00000013          	nop
ffffffff80211504:	00000013          	nop
ffffffff80211508:	00000013          	nop
ffffffff8021150c:	00000013          	nop
ffffffff80211510:	00000013          	nop
ffffffff80211514:	00000013          	nop
ffffffff80211518:	00000013          	nop
ffffffff8021151c:	00000013          	nop
ffffffff80211520:	00000013          	nop
ffffffff80211524:	00000013          	nop
ffffffff80211528:	00000013          	nop
ffffffff8021152c:	00000013          	nop
ffffffff80211530:	00000013          	nop
ffffffff80211534:	00000013          	nop
ffffffff80211538:	00000013          	nop
ffffffff8021153c:	00000013          	nop
ffffffff80211540:	00000013          	nop
ffffffff80211544:	00000013          	nop
ffffffff80211548:	00000013          	nop
ffffffff8021154c:	00000013          	nop
ffffffff80211550:	00000013          	nop
ffffffff80211554:	00000013          	nop
ffffffff80211558:	00000013          	nop
ffffffff8021155c:	00000013          	nop
ffffffff80211560:	00000013          	nop
ffffffff80211564:	00000013          	nop
ffffffff80211568:	00000013          	nop
ffffffff8021156c:	00000013          	nop
ffffffff80211570:	00000013          	nop
ffffffff80211574:	00000013          	nop
ffffffff80211578:	00000013          	nop
ffffffff8021157c:	00000013          	nop
ffffffff80211580:	00000013          	nop
ffffffff80211584:	00000013          	nop
ffffffff80211588:	00000013          	nop
ffffffff8021158c:	00000013          	nop
ffffffff80211590:	00000013          	nop
ffffffff80211594:	00000013          	nop
ffffffff80211598:	00000013          	nop
ffffffff8021159c:	00000013          	nop
ffffffff802115a0:	00000013          	nop
ffffffff802115a4:	00000013          	nop
ffffffff802115a8:	00000013          	nop
ffffffff802115ac:	00000013          	nop
ffffffff802115b0:	00000013          	nop
ffffffff802115b4:	00000013          	nop
ffffffff802115b8:	00000013          	nop
ffffffff802115bc:	00000013          	nop
ffffffff802115c0:	00000013          	nop
ffffffff802115c4:	00000013          	nop
ffffffff802115c8:	00000013          	nop
ffffffff802115cc:	00000013          	nop
ffffffff802115d0:	00000013          	nop
ffffffff802115d4:	00000013          	nop
ffffffff802115d8:	00000013          	nop
ffffffff802115dc:	00000013          	nop
ffffffff802115e0:	00000013          	nop
ffffffff802115e4:	00000013          	nop
ffffffff802115e8:	00000013          	nop
ffffffff802115ec:	00000013          	nop
ffffffff802115f0:	00000013          	nop
ffffffff802115f4:	00000013          	nop
ffffffff802115f8:	00000013          	nop
ffffffff802115fc:	00000013          	nop
ffffffff80211600:	00000013          	nop
ffffffff80211604:	00000013          	nop
ffffffff80211608:	00000013          	nop
ffffffff8021160c:	00000013          	nop
ffffffff80211610:	00000013          	nop
ffffffff80211614:	00000013          	nop
ffffffff80211618:	00000013          	nop
ffffffff8021161c:	00000013          	nop
ffffffff80211620:	00000013          	nop
ffffffff80211624:	00000013          	nop
ffffffff80211628:	00000013          	nop
ffffffff8021162c:	00000013          	nop
ffffffff80211630:	00000013          	nop
ffffffff80211634:	00000013          	nop
ffffffff80211638:	00000013          	nop
ffffffff8021163c:	00000013          	nop
ffffffff80211640:	00000013          	nop
ffffffff80211644:	00000013          	nop
ffffffff80211648:	00000013          	nop
ffffffff8021164c:	00000013          	nop
ffffffff80211650:	00000013          	nop
ffffffff80211654:	00000013          	nop
ffffffff80211658:	00000013          	nop
ffffffff8021165c:	00000013          	nop
ffffffff80211660:	00000013          	nop
ffffffff80211664:	00000013          	nop
ffffffff80211668:	00000013          	nop
ffffffff8021166c:	00000013          	nop
ffffffff80211670:	00000013          	nop
ffffffff80211674:	00000013          	nop
ffffffff80211678:	00000013          	nop
ffffffff8021167c:	00000013          	nop
ffffffff80211680:	00000013          	nop
ffffffff80211684:	00000013          	nop
ffffffff80211688:	00000013          	nop
ffffffff8021168c:	00000013          	nop
ffffffff80211690:	00000013          	nop
ffffffff80211694:	00000013          	nop
ffffffff80211698:	00000013          	nop
ffffffff8021169c:	00000013          	nop
ffffffff802116a0:	00000013          	nop
ffffffff802116a4:	00000013          	nop
ffffffff802116a8:	00000013          	nop
ffffffff802116ac:	00000013          	nop
ffffffff802116b0:	00000013          	nop
ffffffff802116b4:	00000013          	nop
ffffffff802116b8:	00000013          	nop
ffffffff802116bc:	00000013          	nop
ffffffff802116c0:	00000013          	nop
ffffffff802116c4:	00000013          	nop
ffffffff802116c8:	00000013          	nop
ffffffff802116cc:	00000013          	nop
ffffffff802116d0:	00000013          	nop
ffffffff802116d4:	00000013          	nop
ffffffff802116d8:	00000013          	nop
ffffffff802116dc:	00000013          	nop
ffffffff802116e0:	00000013          	nop
ffffffff802116e4:	00000013          	nop
ffffffff802116e8:	00000013          	nop
ffffffff802116ec:	00000013          	nop
ffffffff802116f0:	00000013          	nop
ffffffff802116f4:	00000013          	nop
ffffffff802116f8:	00000013          	nop
ffffffff802116fc:	00000013          	nop
ffffffff80211700:	00000013          	nop
ffffffff80211704:	00000013          	nop
ffffffff80211708:	00000013          	nop
ffffffff8021170c:	00000013          	nop
ffffffff80211710:	00000013          	nop
ffffffff80211714:	00000013          	nop
ffffffff80211718:	00000013          	nop
ffffffff8021171c:	00000013          	nop
ffffffff80211720:	00000013          	nop
ffffffff80211724:	00000013          	nop
ffffffff80211728:	00000013          	nop
ffffffff8021172c:	00000013          	nop
ffffffff80211730:	00000013          	nop
ffffffff80211734:	00000013          	nop
ffffffff80211738:	00000013          	nop
ffffffff8021173c:	00000013          	nop
ffffffff80211740:	00000013          	nop
ffffffff80211744:	00000013          	nop
ffffffff80211748:	00000013          	nop
ffffffff8021174c:	00000013          	nop
ffffffff80211750:	00000013          	nop
ffffffff80211754:	00000013          	nop
ffffffff80211758:	00000013          	nop
ffffffff8021175c:	00000013          	nop
ffffffff80211760:	00000013          	nop
ffffffff80211764:	00000013          	nop
ffffffff80211768:	00000013          	nop
ffffffff8021176c:	00000013          	nop
ffffffff80211770:	00000013          	nop
ffffffff80211774:	00000013          	nop
ffffffff80211778:	00000013          	nop
ffffffff8021177c:	00000013          	nop
ffffffff80211780:	00000013          	nop
ffffffff80211784:	00000013          	nop
ffffffff80211788:	00000013          	nop
ffffffff8021178c:	00000013          	nop
ffffffff80211790:	00000013          	nop
ffffffff80211794:	00000013          	nop
ffffffff80211798:	00000013          	nop
ffffffff8021179c:	00000013          	nop
ffffffff802117a0:	00000013          	nop
ffffffff802117a4:	00000013          	nop
ffffffff802117a8:	00000013          	nop
ffffffff802117ac:	00000013          	nop
ffffffff802117b0:	00000013          	nop
ffffffff802117b4:	00000013          	nop
ffffffff802117b8:	00000013          	nop
ffffffff802117bc:	00000013          	nop
ffffffff802117c0:	00000013          	nop
ffffffff802117c4:	00000013          	nop
ffffffff802117c8:	00000013          	nop
ffffffff802117cc:	00000013          	nop
ffffffff802117d0:	00000013          	nop
ffffffff802117d4:	00000013          	nop
ffffffff802117d8:	00000013          	nop
ffffffff802117dc:	00000013          	nop
ffffffff802117e0:	00000013          	nop
ffffffff802117e4:	00000013          	nop
ffffffff802117e8:	00000013          	nop
ffffffff802117ec:	00000013          	nop
ffffffff802117f0:	00000013          	nop
ffffffff802117f4:	00000013          	nop
ffffffff802117f8:	00000013          	nop
ffffffff802117fc:	00000013          	nop
ffffffff80211800:	00000013          	nop
ffffffff80211804:	00000013          	nop
ffffffff80211808:	00000013          	nop
ffffffff8021180c:	00000013          	nop
ffffffff80211810:	00000013          	nop
ffffffff80211814:	00000013          	nop
ffffffff80211818:	00000013          	nop
ffffffff8021181c:	00000013          	nop
ffffffff80211820:	00000013          	nop
ffffffff80211824:	00000013          	nop
ffffffff80211828:	00000013          	nop
ffffffff8021182c:	00000013          	nop
ffffffff80211830:	00000013          	nop
ffffffff80211834:	00000013          	nop
ffffffff80211838:	00000013          	nop
ffffffff8021183c:	00000013          	nop
ffffffff80211840:	00000013          	nop
ffffffff80211844:	00000013          	nop
ffffffff80211848:	00000013          	nop
ffffffff8021184c:	00000013          	nop
ffffffff80211850:	00000013          	nop
ffffffff80211854:	00000013          	nop
ffffffff80211858:	00000013          	nop
ffffffff8021185c:	00000013          	nop
ffffffff80211860:	00000013          	nop
ffffffff80211864:	00000013          	nop
ffffffff80211868:	00000013          	nop
ffffffff8021186c:	00000013          	nop
ffffffff80211870:	00000013          	nop
ffffffff80211874:	00000013          	nop
ffffffff80211878:	00000013          	nop
ffffffff8021187c:	00000013          	nop
ffffffff80211880:	00000013          	nop
ffffffff80211884:	00000013          	nop
ffffffff80211888:	00000013          	nop
ffffffff8021188c:	00000013          	nop
ffffffff80211890:	00000013          	nop
ffffffff80211894:	00000013          	nop
ffffffff80211898:	00000013          	nop
ffffffff8021189c:	00000013          	nop
ffffffff802118a0:	00000013          	nop
ffffffff802118a4:	00000013          	nop
ffffffff802118a8:	00000013          	nop
ffffffff802118ac:	00000013          	nop
ffffffff802118b0:	00000013          	nop
ffffffff802118b4:	00000013          	nop
ffffffff802118b8:	00000013          	nop
ffffffff802118bc:	00000013          	nop
ffffffff802118c0:	00000013          	nop
ffffffff802118c4:	00000013          	nop
ffffffff802118c8:	00000013          	nop
ffffffff802118cc:	00000013          	nop
ffffffff802118d0:	00000013          	nop
ffffffff802118d4:	00000013          	nop
ffffffff802118d8:	00000013          	nop
ffffffff802118dc:	00000013          	nop
ffffffff802118e0:	00000013          	nop
ffffffff802118e4:	00000013          	nop
ffffffff802118e8:	00000013          	nop
ffffffff802118ec:	00000013          	nop
ffffffff802118f0:	00000013          	nop
ffffffff802118f4:	00000013          	nop
ffffffff802118f8:	00000013          	nop
ffffffff802118fc:	00000013          	nop
ffffffff80211900:	00000013          	nop
ffffffff80211904:	00000013          	nop
ffffffff80211908:	00000013          	nop
ffffffff8021190c:	00000013          	nop
ffffffff80211910:	00000013          	nop
ffffffff80211914:	00000013          	nop
ffffffff80211918:	00000013          	nop
ffffffff8021191c:	00000013          	nop
ffffffff80211920:	00000013          	nop
ffffffff80211924:	00000013          	nop
ffffffff80211928:	00000013          	nop
ffffffff8021192c:	00000013          	nop
ffffffff80211930:	00000013          	nop
ffffffff80211934:	00000013          	nop
ffffffff80211938:	00000013          	nop
ffffffff8021193c:	00000013          	nop
ffffffff80211940:	00000013          	nop
ffffffff80211944:	00000013          	nop
ffffffff80211948:	00000013          	nop
ffffffff8021194c:	00000013          	nop
ffffffff80211950:	00000013          	nop
ffffffff80211954:	00000013          	nop
ffffffff80211958:	00000013          	nop
ffffffff8021195c:	00000013          	nop
ffffffff80211960:	00000013          	nop
ffffffff80211964:	00000013          	nop
ffffffff80211968:	00000013          	nop
ffffffff8021196c:	00000013          	nop
ffffffff80211970:	00000013          	nop
ffffffff80211974:	00000013          	nop
ffffffff80211978:	00000013          	nop
ffffffff8021197c:	00000013          	nop
ffffffff80211980:	00000013          	nop
ffffffff80211984:	00000013          	nop
ffffffff80211988:	00000013          	nop
ffffffff8021198c:	00000013          	nop
ffffffff80211990:	00000013          	nop
ffffffff80211994:	00000013          	nop
ffffffff80211998:	00000013          	nop
ffffffff8021199c:	00000013          	nop
ffffffff802119a0:	00000013          	nop
ffffffff802119a4:	00000013          	nop
ffffffff802119a8:	00000013          	nop
ffffffff802119ac:	00000013          	nop
ffffffff802119b0:	00000013          	nop
ffffffff802119b4:	00000013          	nop
ffffffff802119b8:	00000013          	nop
ffffffff802119bc:	00000013          	nop
ffffffff802119c0:	00000013          	nop
ffffffff802119c4:	00000013          	nop
ffffffff802119c8:	00000013          	nop
ffffffff802119cc:	00000013          	nop
ffffffff802119d0:	00000013          	nop
ffffffff802119d4:	00000013          	nop
ffffffff802119d8:	00000013          	nop
ffffffff802119dc:	00000013          	nop
ffffffff802119e0:	00000013          	nop
ffffffff802119e4:	00000013          	nop
ffffffff802119e8:	00000013          	nop
ffffffff802119ec:	00000013          	nop
ffffffff802119f0:	00000013          	nop
ffffffff802119f4:	00000013          	nop
ffffffff802119f8:	00000013          	nop
ffffffff802119fc:	00000013          	nop
ffffffff80211a00:	00000013          	nop
ffffffff80211a04:	00000013          	nop
ffffffff80211a08:	00000013          	nop
ffffffff80211a0c:	00000013          	nop
ffffffff80211a10:	00000013          	nop
ffffffff80211a14:	00000013          	nop
ffffffff80211a18:	00000013          	nop
ffffffff80211a1c:	00000013          	nop
ffffffff80211a20:	00000013          	nop
ffffffff80211a24:	00000013          	nop
ffffffff80211a28:	00000013          	nop
ffffffff80211a2c:	00000013          	nop
ffffffff80211a30:	00000013          	nop
ffffffff80211a34:	00000013          	nop
ffffffff80211a38:	00000013          	nop
ffffffff80211a3c:	00000013          	nop
ffffffff80211a40:	00000013          	nop
ffffffff80211a44:	00000013          	nop
ffffffff80211a48:	00000013          	nop
ffffffff80211a4c:	00000013          	nop
ffffffff80211a50:	00000013          	nop
ffffffff80211a54:	00000013          	nop
ffffffff80211a58:	00000013          	nop
ffffffff80211a5c:	00000013          	nop
ffffffff80211a60:	00000013          	nop
ffffffff80211a64:	00000013          	nop
ffffffff80211a68:	00000013          	nop
ffffffff80211a6c:	00000013          	nop
ffffffff80211a70:	00000013          	nop
ffffffff80211a74:	00000013          	nop
ffffffff80211a78:	00000013          	nop
ffffffff80211a7c:	00000013          	nop
ffffffff80211a80:	00000013          	nop
ffffffff80211a84:	00000013          	nop
ffffffff80211a88:	00000013          	nop
ffffffff80211a8c:	00000013          	nop
ffffffff80211a90:	00000013          	nop
ffffffff80211a94:	00000013          	nop
ffffffff80211a98:	00000013          	nop
ffffffff80211a9c:	00000013          	nop
ffffffff80211aa0:	00000013          	nop
ffffffff80211aa4:	00000013          	nop
ffffffff80211aa8:	00000013          	nop
ffffffff80211aac:	00000013          	nop
ffffffff80211ab0:	00000013          	nop
ffffffff80211ab4:	00000013          	nop
ffffffff80211ab8:	00000013          	nop
ffffffff80211abc:	00000013          	nop
ffffffff80211ac0:	00000013          	nop
ffffffff80211ac4:	00000013          	nop
ffffffff80211ac8:	00000013          	nop
ffffffff80211acc:	00000013          	nop
ffffffff80211ad0:	00000013          	nop
ffffffff80211ad4:	00000013          	nop
ffffffff80211ad8:	00000013          	nop
ffffffff80211adc:	00000013          	nop
ffffffff80211ae0:	00000013          	nop
ffffffff80211ae4:	00000013          	nop
ffffffff80211ae8:	00000013          	nop
ffffffff80211aec:	00000013          	nop
ffffffff80211af0:	00000013          	nop
ffffffff80211af4:	00000013          	nop
ffffffff80211af8:	00000013          	nop
ffffffff80211afc:	00000013          	nop
ffffffff80211b00:	00000013          	nop
ffffffff80211b04:	00000013          	nop
ffffffff80211b08:	00000013          	nop
ffffffff80211b0c:	00000013          	nop
ffffffff80211b10:	00000013          	nop
ffffffff80211b14:	00000013          	nop
ffffffff80211b18:	00000013          	nop
ffffffff80211b1c:	00000013          	nop
ffffffff80211b20:	00000013          	nop
ffffffff80211b24:	00000013          	nop
ffffffff80211b28:	00000013          	nop
ffffffff80211b2c:	00000013          	nop
ffffffff80211b30:	00000013          	nop
ffffffff80211b34:	00000013          	nop
ffffffff80211b38:	00000013          	nop
ffffffff80211b3c:	00000013          	nop
ffffffff80211b40:	00000013          	nop
ffffffff80211b44:	00000013          	nop
ffffffff80211b48:	00000013          	nop
ffffffff80211b4c:	00000013          	nop
ffffffff80211b50:	00000013          	nop
ffffffff80211b54:	00000013          	nop
ffffffff80211b58:	00000013          	nop
ffffffff80211b5c:	00000013          	nop
ffffffff80211b60:	00000013          	nop
ffffffff80211b64:	00000013          	nop
ffffffff80211b68:	00000013          	nop
ffffffff80211b6c:	00000013          	nop
ffffffff80211b70:	00000013          	nop
ffffffff80211b74:	00000013          	nop
ffffffff80211b78:	00000013          	nop
ffffffff80211b7c:	00000013          	nop
ffffffff80211b80:	00000013          	nop
ffffffff80211b84:	00000013          	nop
ffffffff80211b88:	00000013          	nop
ffffffff80211b8c:	00000013          	nop
ffffffff80211b90:	00000013          	nop
ffffffff80211b94:	00000013          	nop
ffffffff80211b98:	00000013          	nop
ffffffff80211b9c:	00000013          	nop
ffffffff80211ba0:	00000013          	nop
ffffffff80211ba4:	00000013          	nop
ffffffff80211ba8:	00000013          	nop
ffffffff80211bac:	00000013          	nop
ffffffff80211bb0:	00000013          	nop
ffffffff80211bb4:	00000013          	nop
ffffffff80211bb8:	00000013          	nop
ffffffff80211bbc:	00000013          	nop
ffffffff80211bc0:	00000013          	nop
ffffffff80211bc4:	00000013          	nop
ffffffff80211bc8:	00000013          	nop
ffffffff80211bcc:	00000013          	nop
ffffffff80211bd0:	00000013          	nop
ffffffff80211bd4:	00000013          	nop
ffffffff80211bd8:	00000013          	nop
ffffffff80211bdc:	00000013          	nop
ffffffff80211be0:	00000013          	nop
ffffffff80211be4:	00000013          	nop
ffffffff80211be8:	00000013          	nop
ffffffff80211bec:	00000013          	nop
ffffffff80211bf0:	00000013          	nop
ffffffff80211bf4:	00000013          	nop
ffffffff80211bf8:	00000013          	nop
ffffffff80211bfc:	00000013          	nop
ffffffff80211c00:	00000013          	nop
ffffffff80211c04:	00000013          	nop
ffffffff80211c08:	00000013          	nop
ffffffff80211c0c:	00000013          	nop
ffffffff80211c10:	00000013          	nop
ffffffff80211c14:	00000013          	nop
ffffffff80211c18:	00000013          	nop
ffffffff80211c1c:	00000013          	nop
ffffffff80211c20:	00000013          	nop
ffffffff80211c24:	00000013          	nop
ffffffff80211c28:	00000013          	nop
ffffffff80211c2c:	00000013          	nop
ffffffff80211c30:	00000013          	nop
ffffffff80211c34:	00000013          	nop
ffffffff80211c38:	00000013          	nop
ffffffff80211c3c:	00000013          	nop
ffffffff80211c40:	00000013          	nop
ffffffff80211c44:	00000013          	nop
ffffffff80211c48:	00000013          	nop
ffffffff80211c4c:	00000013          	nop
ffffffff80211c50:	00000013          	nop
ffffffff80211c54:	00000013          	nop
ffffffff80211c58:	00000013          	nop
ffffffff80211c5c:	00000013          	nop
ffffffff80211c60:	00000013          	nop
ffffffff80211c64:	00000013          	nop
ffffffff80211c68:	00000013          	nop
ffffffff80211c6c:	00000013          	nop
ffffffff80211c70:	00000013          	nop
ffffffff80211c74:	00000013          	nop
ffffffff80211c78:	00000013          	nop
ffffffff80211c7c:	00000013          	nop
ffffffff80211c80:	00000013          	nop
ffffffff80211c84:	00000013          	nop
ffffffff80211c88:	00000013          	nop
ffffffff80211c8c:	00000013          	nop
ffffffff80211c90:	00000013          	nop
ffffffff80211c94:	00000013          	nop
ffffffff80211c98:	00000013          	nop
ffffffff80211c9c:	00000013          	nop
ffffffff80211ca0:	00000013          	nop
ffffffff80211ca4:	00000013          	nop
ffffffff80211ca8:	00000013          	nop
ffffffff80211cac:	00000013          	nop
ffffffff80211cb0:	00000013          	nop
ffffffff80211cb4:	00000013          	nop
ffffffff80211cb8:	00000013          	nop
ffffffff80211cbc:	00000013          	nop
ffffffff80211cc0:	00000013          	nop
ffffffff80211cc4:	00000013          	nop
ffffffff80211cc8:	00000013          	nop
ffffffff80211ccc:	00000013          	nop
ffffffff80211cd0:	00000013          	nop
ffffffff80211cd4:	00000013          	nop
ffffffff80211cd8:	00000013          	nop
ffffffff80211cdc:	00000013          	nop
ffffffff80211ce0:	00000013          	nop
ffffffff80211ce4:	00000013          	nop
ffffffff80211ce8:	00000013          	nop
ffffffff80211cec:	00000013          	nop
ffffffff80211cf0:	00000013          	nop
ffffffff80211cf4:	00000013          	nop
ffffffff80211cf8:	00000013          	nop
ffffffff80211cfc:	00000013          	nop
ffffffff80211d00:	00000013          	nop
ffffffff80211d04:	00000013          	nop
ffffffff80211d08:	00000013          	nop
ffffffff80211d0c:	00000013          	nop
ffffffff80211d10:	00000013          	nop
ffffffff80211d14:	00000013          	nop
ffffffff80211d18:	00000013          	nop
ffffffff80211d1c:	00000013          	nop
ffffffff80211d20:	00000013          	nop
ffffffff80211d24:	00000013          	nop
ffffffff80211d28:	00000013          	nop
ffffffff80211d2c:	00000013          	nop
ffffffff80211d30:	00000013          	nop
ffffffff80211d34:	00000013          	nop
ffffffff80211d38:	00000013          	nop
ffffffff80211d3c:	00000013          	nop
ffffffff80211d40:	00000013          	nop
ffffffff80211d44:	00000013          	nop
ffffffff80211d48:	00000013          	nop
ffffffff80211d4c:	00000013          	nop
ffffffff80211d50:	00000013          	nop
ffffffff80211d54:	00000013          	nop
ffffffff80211d58:	00000013          	nop
ffffffff80211d5c:	00000013          	nop
ffffffff80211d60:	00000013          	nop
ffffffff80211d64:	00000013          	nop
ffffffff80211d68:	00000013          	nop
ffffffff80211d6c:	00000013          	nop
ffffffff80211d70:	00000013          	nop
ffffffff80211d74:	00000013          	nop
ffffffff80211d78:	00000013          	nop
ffffffff80211d7c:	00000013          	nop
ffffffff80211d80:	00000013          	nop
ffffffff80211d84:	00000013          	nop
ffffffff80211d88:	00000013          	nop
ffffffff80211d8c:	00000013          	nop
ffffffff80211d90:	00000013          	nop
ffffffff80211d94:	00000013          	nop
ffffffff80211d98:	00000013          	nop
ffffffff80211d9c:	00000013          	nop
ffffffff80211da0:	00000013          	nop
ffffffff80211da4:	00000013          	nop
ffffffff80211da8:	00000013          	nop
ffffffff80211dac:	00000013          	nop
ffffffff80211db0:	00000013          	nop
ffffffff80211db4:	00000013          	nop
ffffffff80211db8:	00000013          	nop
ffffffff80211dbc:	00000013          	nop
ffffffff80211dc0:	00000013          	nop
ffffffff80211dc4:	00000013          	nop
ffffffff80211dc8:	00000013          	nop
ffffffff80211dcc:	00000013          	nop
ffffffff80211dd0:	00000013          	nop
ffffffff80211dd4:	00000013          	nop
ffffffff80211dd8:	00000013          	nop
ffffffff80211ddc:	00000013          	nop
ffffffff80211de0:	00000013          	nop
ffffffff80211de4:	00000013          	nop
ffffffff80211de8:	00000013          	nop
ffffffff80211dec:	00000013          	nop
ffffffff80211df0:	00000013          	nop
ffffffff80211df4:	00000013          	nop
ffffffff80211df8:	00000013          	nop
ffffffff80211dfc:	00000013          	nop
ffffffff80211e00:	00000013          	nop
ffffffff80211e04:	00000013          	nop
ffffffff80211e08:	00000013          	nop
ffffffff80211e0c:	00000013          	nop
ffffffff80211e10:	00000013          	nop
ffffffff80211e14:	00000013          	nop
ffffffff80211e18:	00000013          	nop
ffffffff80211e1c:	00000013          	nop
ffffffff80211e20:	00000013          	nop
ffffffff80211e24:	00000013          	nop
ffffffff80211e28:	00000013          	nop
ffffffff80211e2c:	00000013          	nop
ffffffff80211e30:	00000013          	nop
ffffffff80211e34:	00000013          	nop
ffffffff80211e38:	00000013          	nop
ffffffff80211e3c:	00000013          	nop
ffffffff80211e40:	00000013          	nop
ffffffff80211e44:	00000013          	nop
ffffffff80211e48:	00000013          	nop
ffffffff80211e4c:	00000013          	nop
ffffffff80211e50:	00000013          	nop
ffffffff80211e54:	00000013          	nop
ffffffff80211e58:	00000013          	nop
ffffffff80211e5c:	00000013          	nop
ffffffff80211e60:	00000013          	nop
ffffffff80211e64:	00000013          	nop
ffffffff80211e68:	00000013          	nop
ffffffff80211e6c:	00000013          	nop
ffffffff80211e70:	00000013          	nop
ffffffff80211e74:	00000013          	nop
ffffffff80211e78:	00000013          	nop
ffffffff80211e7c:	00000013          	nop
ffffffff80211e80:	00000013          	nop
ffffffff80211e84:	00000013          	nop
ffffffff80211e88:	00000013          	nop
ffffffff80211e8c:	00000013          	nop
ffffffff80211e90:	00000013          	nop
ffffffff80211e94:	00000013          	nop
ffffffff80211e98:	00000013          	nop
ffffffff80211e9c:	00000013          	nop
ffffffff80211ea0:	00000013          	nop
ffffffff80211ea4:	00000013          	nop
ffffffff80211ea8:	00000013          	nop
ffffffff80211eac:	00000013          	nop
ffffffff80211eb0:	00000013          	nop
ffffffff80211eb4:	00000013          	nop
ffffffff80211eb8:	00000013          	nop
ffffffff80211ebc:	00000013          	nop
ffffffff80211ec0:	00000013          	nop
ffffffff80211ec4:	00000013          	nop
ffffffff80211ec8:	00000013          	nop
ffffffff80211ecc:	00000013          	nop
ffffffff80211ed0:	00000013          	nop
ffffffff80211ed4:	00000013          	nop
ffffffff80211ed8:	00000013          	nop
ffffffff80211edc:	00000013          	nop
ffffffff80211ee0:	00000013          	nop
ffffffff80211ee4:	00000013          	nop
ffffffff80211ee8:	00000013          	nop
ffffffff80211eec:	00000013          	nop
ffffffff80211ef0:	00000013          	nop
ffffffff80211ef4:	00000013          	nop
ffffffff80211ef8:	00000013          	nop
ffffffff80211efc:	00000013          	nop
ffffffff80211f00:	00000013          	nop
ffffffff80211f04:	00000013          	nop
ffffffff80211f08:	00000013          	nop
ffffffff80211f0c:	00000013          	nop
ffffffff80211f10:	00000013          	nop
ffffffff80211f14:	00000013          	nop
ffffffff80211f18:	00000013          	nop
ffffffff80211f1c:	00000013          	nop
ffffffff80211f20:	00000013          	nop
ffffffff80211f24:	00000013          	nop
ffffffff80211f28:	00000013          	nop
ffffffff80211f2c:	00000013          	nop
ffffffff80211f30:	00000013          	nop
ffffffff80211f34:	00000013          	nop
ffffffff80211f38:	00000013          	nop
ffffffff80211f3c:	00000013          	nop
ffffffff80211f40:	00000013          	nop
ffffffff80211f44:	00000013          	nop
ffffffff80211f48:	00000013          	nop
ffffffff80211f4c:	00000013          	nop
ffffffff80211f50:	00000013          	nop
ffffffff80211f54:	00000013          	nop
ffffffff80211f58:	00000013          	nop
ffffffff80211f5c:	00000013          	nop
ffffffff80211f60:	00000013          	nop
ffffffff80211f64:	00000013          	nop
ffffffff80211f68:	00000013          	nop
ffffffff80211f6c:	00000013          	nop
ffffffff80211f70:	00000013          	nop
ffffffff80211f74:	00000013          	nop
ffffffff80211f78:	00000013          	nop
ffffffff80211f7c:	00000013          	nop
ffffffff80211f80:	00000013          	nop
ffffffff80211f84:	00000013          	nop
ffffffff80211f88:	00000013          	nop
ffffffff80211f8c:	00000013          	nop
ffffffff80211f90:	00000013          	nop
ffffffff80211f94:	00000013          	nop
ffffffff80211f98:	00000013          	nop
ffffffff80211f9c:	00000013          	nop
ffffffff80211fa0:	00000013          	nop
ffffffff80211fa4:	00000013          	nop
ffffffff80211fa8:	00000013          	nop
ffffffff80211fac:	00000013          	nop
ffffffff80211fb0:	00000013          	nop
ffffffff80211fb4:	00000013          	nop
ffffffff80211fb8:	00000013          	nop
ffffffff80211fbc:	00000013          	nop
ffffffff80211fc0:	00000013          	nop
ffffffff80211fc4:	00000013          	nop
ffffffff80211fc8:	00000013          	nop
ffffffff80211fcc:	00000013          	nop
ffffffff80211fd0:	00000013          	nop
ffffffff80211fd4:	00000013          	nop
ffffffff80211fd8:	00000013          	nop
ffffffff80211fdc:	00000013          	nop
ffffffff80211fe0:	00000013          	nop
ffffffff80211fe4:	00000013          	nop
ffffffff80211fe8:	00000013          	nop
ffffffff80211fec:	00000013          	nop
ffffffff80211ff0:	00000013          	nop
ffffffff80211ff4:	00000013          	nop
ffffffff80211ff8:	00000013          	nop
ffffffff80211ffc:	00000013          	nop
ffffffff80212000:	00000013          	nop
ffffffff80212004:	00000013          	nop
ffffffff80212008:	00000013          	nop
ffffffff8021200c:	00000013          	nop
ffffffff80212010:	00000013          	nop
ffffffff80212014:	00000013          	nop
ffffffff80212018:	00000013          	nop
ffffffff8021201c:	00000013          	nop
ffffffff80212020:	00000013          	nop
ffffffff80212024:	00000013          	nop
ffffffff80212028:	00000013          	nop
ffffffff8021202c:	00000013          	nop
ffffffff80212030:	00000013          	nop
ffffffff80212034:	00000013          	nop
ffffffff80212038:	00000013          	nop
ffffffff8021203c:	00000013          	nop
ffffffff80212040:	00000013          	nop
ffffffff80212044:	00000013          	nop
ffffffff80212048:	00000013          	nop
ffffffff8021204c:	00000013          	nop
ffffffff80212050:	00000013          	nop
ffffffff80212054:	00000013          	nop
ffffffff80212058:	00000013          	nop
ffffffff8021205c:	00000013          	nop
ffffffff80212060:	00000013          	nop
ffffffff80212064:	00000013          	nop
ffffffff80212068:	00000013          	nop
ffffffff8021206c:	00000013          	nop
ffffffff80212070:	00000013          	nop
ffffffff80212074:	00000013          	nop
ffffffff80212078:	00000013          	nop
ffffffff8021207c:	00000013          	nop
ffffffff80212080:	00000013          	nop
ffffffff80212084:	00000013          	nop
ffffffff80212088:	00000013          	nop
ffffffff8021208c:	00000013          	nop
ffffffff80212090:	00000013          	nop
ffffffff80212094:	00000013          	nop
ffffffff80212098:	00000013          	nop
ffffffff8021209c:	00000013          	nop
ffffffff802120a0:	00000013          	nop
ffffffff802120a4:	00000013          	nop
ffffffff802120a8:	00000013          	nop
ffffffff802120ac:	00000013          	nop
ffffffff802120b0:	00000013          	nop
ffffffff802120b4:	00000013          	nop
ffffffff802120b8:	00000013          	nop
ffffffff802120bc:	00000013          	nop
ffffffff802120c0:	00000013          	nop
ffffffff802120c4:	00000013          	nop
ffffffff802120c8:	00000013          	nop
ffffffff802120cc:	00000013          	nop
ffffffff802120d0:	00000013          	nop
ffffffff802120d4:	00000013          	nop
ffffffff802120d8:	00000013          	nop
ffffffff802120dc:	00000013          	nop
ffffffff802120e0:	00000013          	nop
ffffffff802120e4:	00000013          	nop
ffffffff802120e8:	00000013          	nop
ffffffff802120ec:	00000013          	nop
ffffffff802120f0:	00000013          	nop
ffffffff802120f4:	00000013          	nop
ffffffff802120f8:	00000013          	nop
ffffffff802120fc:	00000013          	nop
ffffffff80212100:	00000013          	nop
ffffffff80212104:	00000013          	nop
ffffffff80212108:	00000013          	nop
ffffffff8021210c:	00000013          	nop
ffffffff80212110:	00000013          	nop
ffffffff80212114:	00000013          	nop
ffffffff80212118:	00000013          	nop
ffffffff8021211c:	00000013          	nop
ffffffff80212120:	00000013          	nop
ffffffff80212124:	00000013          	nop
ffffffff80212128:	00000013          	nop
ffffffff8021212c:	00000013          	nop
ffffffff80212130:	00000013          	nop
ffffffff80212134:	00000013          	nop
ffffffff80212138:	00000013          	nop
ffffffff8021213c:	00000013          	nop
ffffffff80212140:	00000013          	nop
ffffffff80212144:	00000013          	nop
ffffffff80212148:	00000013          	nop
ffffffff8021214c:	00000013          	nop
ffffffff80212150:	00000013          	nop
ffffffff80212154:	00000013          	nop
ffffffff80212158:	00000013          	nop
ffffffff8021215c:	00000013          	nop
ffffffff80212160:	00000013          	nop
ffffffff80212164:	00000013          	nop
ffffffff80212168:	00000013          	nop
ffffffff8021216c:	00000013          	nop
ffffffff80212170:	00000013          	nop
ffffffff80212174:	00000013          	nop
ffffffff80212178:	00000013          	nop
ffffffff8021217c:	00000013          	nop
ffffffff80212180:	00000013          	nop
ffffffff80212184:	00000013          	nop
ffffffff80212188:	00000013          	nop
ffffffff8021218c:	00000013          	nop
ffffffff80212190:	00000013          	nop
ffffffff80212194:	00000013          	nop
ffffffff80212198:	00000013          	nop
ffffffff8021219c:	00000013          	nop
ffffffff802121a0:	00000013          	nop
ffffffff802121a4:	00000013          	nop
ffffffff802121a8:	00000013          	nop
ffffffff802121ac:	00000013          	nop
ffffffff802121b0:	00000013          	nop
ffffffff802121b4:	00000013          	nop
ffffffff802121b8:	00000013          	nop
ffffffff802121bc:	00000013          	nop
ffffffff802121c0:	00000013          	nop
ffffffff802121c4:	00000013          	nop
ffffffff802121c8:	00000013          	nop
ffffffff802121cc:	00000013          	nop
ffffffff802121d0:	00000013          	nop
ffffffff802121d4:	00000013          	nop
ffffffff802121d8:	00000013          	nop
ffffffff802121dc:	00000013          	nop
ffffffff802121e0:	00000013          	nop
ffffffff802121e4:	00000013          	nop
ffffffff802121e8:	00000013          	nop
ffffffff802121ec:	00000013          	nop
ffffffff802121f0:	00000013          	nop
ffffffff802121f4:	00000013          	nop
ffffffff802121f8:	00000013          	nop
ffffffff802121fc:	00000013          	nop
ffffffff80212200:	00000013          	nop
ffffffff80212204:	00000013          	nop
ffffffff80212208:	00000013          	nop
ffffffff8021220c:	00000013          	nop
ffffffff80212210:	00000013          	nop
ffffffff80212214:	00000013          	nop
ffffffff80212218:	00000013          	nop
ffffffff8021221c:	00000013          	nop
ffffffff80212220:	00000013          	nop
ffffffff80212224:	00000013          	nop
ffffffff80212228:	00000013          	nop
ffffffff8021222c:	00000013          	nop
ffffffff80212230:	00000013          	nop
ffffffff80212234:	00000013          	nop
ffffffff80212238:	00000013          	nop
ffffffff8021223c:	00000013          	nop
ffffffff80212240:	00000013          	nop
ffffffff80212244:	00000013          	nop
ffffffff80212248:	00000013          	nop
ffffffff8021224c:	00000013          	nop
ffffffff80212250:	00000013          	nop
ffffffff80212254:	00000013          	nop
ffffffff80212258:	00000013          	nop
ffffffff8021225c:	00000013          	nop
ffffffff80212260:	00000013          	nop
ffffffff80212264:	00000013          	nop
ffffffff80212268:	00000013          	nop
ffffffff8021226c:	00000013          	nop
ffffffff80212270:	00000013          	nop
ffffffff80212274:	00000013          	nop
ffffffff80212278:	00000013          	nop
ffffffff8021227c:	00000013          	nop
ffffffff80212280:	00000013          	nop
ffffffff80212284:	00000013          	nop
ffffffff80212288:	00000013          	nop
ffffffff8021228c:	00000013          	nop
ffffffff80212290:	00000013          	nop
ffffffff80212294:	00000013          	nop
ffffffff80212298:	00000013          	nop
ffffffff8021229c:	00000013          	nop
ffffffff802122a0:	00000013          	nop
ffffffff802122a4:	00000013          	nop
ffffffff802122a8:	00000013          	nop
ffffffff802122ac:	00000013          	nop
ffffffff802122b0:	00000013          	nop
ffffffff802122b4:	00000013          	nop
ffffffff802122b8:	00000013          	nop
ffffffff802122bc:	00000013          	nop
ffffffff802122c0:	00000013          	nop
ffffffff802122c4:	00000013          	nop
ffffffff802122c8:	00000013          	nop
ffffffff802122cc:	00000013          	nop
ffffffff802122d0:	00000013          	nop
ffffffff802122d4:	00000013          	nop
ffffffff802122d8:	00000013          	nop
ffffffff802122dc:	00000013          	nop
ffffffff802122e0:	00000013          	nop
ffffffff802122e4:	00000013          	nop
ffffffff802122e8:	00000013          	nop
ffffffff802122ec:	00000013          	nop
ffffffff802122f0:	00000013          	nop
ffffffff802122f4:	00000013          	nop
ffffffff802122f8:	00000013          	nop
ffffffff802122fc:	00000013          	nop
ffffffff80212300:	00000013          	nop
ffffffff80212304:	00000013          	nop
ffffffff80212308:	00000013          	nop
ffffffff8021230c:	00000013          	nop
ffffffff80212310:	00000013          	nop
ffffffff80212314:	00000013          	nop
ffffffff80212318:	00000013          	nop
ffffffff8021231c:	00000013          	nop
ffffffff80212320:	00000013          	nop
ffffffff80212324:	00000013          	nop
ffffffff80212328:	00000013          	nop
ffffffff8021232c:	00000013          	nop
ffffffff80212330:	00000013          	nop
ffffffff80212334:	00000013          	nop
ffffffff80212338:	00000013          	nop
ffffffff8021233c:	00000013          	nop
ffffffff80212340:	00000013          	nop
ffffffff80212344:	00000013          	nop
ffffffff80212348:	00000013          	nop
ffffffff8021234c:	00000013          	nop
ffffffff80212350:	00000013          	nop
ffffffff80212354:	00000013          	nop
ffffffff80212358:	00000013          	nop
ffffffff8021235c:	00000013          	nop
ffffffff80212360:	00000013          	nop
ffffffff80212364:	00000013          	nop
ffffffff80212368:	00000013          	nop
ffffffff8021236c:	00000013          	nop
ffffffff80212370:	00000013          	nop
ffffffff80212374:	00000013          	nop
ffffffff80212378:	00000013          	nop
ffffffff8021237c:	00000013          	nop
ffffffff80212380:	00000013          	nop
ffffffff80212384:	00000013          	nop
ffffffff80212388:	00000013          	nop
ffffffff8021238c:	00000013          	nop
ffffffff80212390:	00000013          	nop
ffffffff80212394:	00000013          	nop
ffffffff80212398:	00000013          	nop
ffffffff8021239c:	00000013          	nop
ffffffff802123a0:	00000013          	nop
ffffffff802123a4:	00000013          	nop
ffffffff802123a8:	00000013          	nop
ffffffff802123ac:	00000013          	nop
ffffffff802123b0:	00000013          	nop
ffffffff802123b4:	00000013          	nop
ffffffff802123b8:	00000013          	nop
ffffffff802123bc:	00000013          	nop
ffffffff802123c0:	00000013          	nop
ffffffff802123c4:	00000013          	nop
ffffffff802123c8:	00000013          	nop
ffffffff802123cc:	00000013          	nop
ffffffff802123d0:	00000013          	nop
ffffffff802123d4:	00000013          	nop
ffffffff802123d8:	00000013          	nop
ffffffff802123dc:	00000013          	nop
ffffffff802123e0:	00000013          	nop
ffffffff802123e4:	00000013          	nop
ffffffff802123e8:	00000013          	nop
ffffffff802123ec:	00000013          	nop
ffffffff802123f0:	00000013          	nop
ffffffff802123f4:	00000013          	nop
ffffffff802123f8:	00000013          	nop
ffffffff802123fc:	00000013          	nop
ffffffff80212400:	00000013          	nop
ffffffff80212404:	00000013          	nop
ffffffff80212408:	00000013          	nop
ffffffff8021240c:	00000013          	nop
ffffffff80212410:	00000013          	nop
ffffffff80212414:	00000013          	nop
ffffffff80212418:	00000013          	nop
ffffffff8021241c:	00000013          	nop
ffffffff80212420:	00000013          	nop
ffffffff80212424:	00000013          	nop
ffffffff80212428:	00000013          	nop
ffffffff8021242c:	00000013          	nop
ffffffff80212430:	00000013          	nop
ffffffff80212434:	00000013          	nop
ffffffff80212438:	00000013          	nop
ffffffff8021243c:	00000013          	nop
ffffffff80212440:	00000013          	nop
ffffffff80212444:	00000013          	nop
ffffffff80212448:	00000013          	nop
ffffffff8021244c:	00000013          	nop
ffffffff80212450:	00000013          	nop
ffffffff80212454:	00000013          	nop
ffffffff80212458:	00000013          	nop
ffffffff8021245c:	00000013          	nop
ffffffff80212460:	00000013          	nop
ffffffff80212464:	00000013          	nop
ffffffff80212468:	00000013          	nop
ffffffff8021246c:	00000013          	nop
ffffffff80212470:	00000013          	nop
ffffffff80212474:	00000013          	nop
ffffffff80212478:	00000013          	nop
ffffffff8021247c:	00000013          	nop
ffffffff80212480:	00000013          	nop
ffffffff80212484:	00000013          	nop
ffffffff80212488:	00000013          	nop
ffffffff8021248c:	00000013          	nop
ffffffff80212490:	00000013          	nop
ffffffff80212494:	00000013          	nop
ffffffff80212498:	00000013          	nop
ffffffff8021249c:	00000013          	nop
ffffffff802124a0:	00000013          	nop
ffffffff802124a4:	00000013          	nop
ffffffff802124a8:	00000013          	nop
ffffffff802124ac:	00000013          	nop
ffffffff802124b0:	00000013          	nop
ffffffff802124b4:	00000013          	nop
ffffffff802124b8:	00000013          	nop
ffffffff802124bc:	00000013          	nop
ffffffff802124c0:	00000013          	nop
ffffffff802124c4:	00000013          	nop
ffffffff802124c8:	00000013          	nop
ffffffff802124cc:	00000013          	nop
ffffffff802124d0:	00000013          	nop
ffffffff802124d4:	00000013          	nop
ffffffff802124d8:	00000013          	nop
ffffffff802124dc:	00000013          	nop
ffffffff802124e0:	00000013          	nop
ffffffff802124e4:	00000013          	nop
ffffffff802124e8:	00000013          	nop
ffffffff802124ec:	00000013          	nop
ffffffff802124f0:	00000013          	nop
ffffffff802124f4:	00000013          	nop
ffffffff802124f8:	00000013          	nop
ffffffff802124fc:	00000013          	nop
ffffffff80212500:	00000013          	nop
ffffffff80212504:	00000013          	nop
ffffffff80212508:	00000013          	nop
ffffffff8021250c:	00000013          	nop
ffffffff80212510:	00000013          	nop
ffffffff80212514:	00000013          	nop
ffffffff80212518:	00000013          	nop
ffffffff8021251c:	00000013          	nop
ffffffff80212520:	00000013          	nop
ffffffff80212524:	00000013          	nop
ffffffff80212528:	00000013          	nop
ffffffff8021252c:	00000013          	nop
ffffffff80212530:	00000013          	nop
ffffffff80212534:	00000013          	nop
ffffffff80212538:	00000013          	nop
ffffffff8021253c:	00000013          	nop
ffffffff80212540:	00000013          	nop
ffffffff80212544:	00000013          	nop
ffffffff80212548:	00000013          	nop
ffffffff8021254c:	00000013          	nop
ffffffff80212550:	00000013          	nop
ffffffff80212554:	00000013          	nop
ffffffff80212558:	00000013          	nop
ffffffff8021255c:	00000013          	nop
ffffffff80212560:	00000013          	nop
ffffffff80212564:	00000013          	nop
ffffffff80212568:	00000013          	nop
ffffffff8021256c:	00000013          	nop
ffffffff80212570:	00000013          	nop
ffffffff80212574:	00000013          	nop
ffffffff80212578:	00000013          	nop
ffffffff8021257c:	00000013          	nop
ffffffff80212580:	00000013          	nop
ffffffff80212584:	00000013          	nop
ffffffff80212588:	00000013          	nop
ffffffff8021258c:	00000013          	nop
ffffffff80212590:	00000013          	nop
ffffffff80212594:	00000013          	nop
ffffffff80212598:	00000013          	nop
ffffffff8021259c:	00000013          	nop
ffffffff802125a0:	00000013          	nop
ffffffff802125a4:	00000013          	nop
ffffffff802125a8:	00000013          	nop
ffffffff802125ac:	00000013          	nop
ffffffff802125b0:	00000013          	nop
ffffffff802125b4:	00000013          	nop
ffffffff802125b8:	00000013          	nop
ffffffff802125bc:	00000013          	nop
ffffffff802125c0:	00000013          	nop
ffffffff802125c4:	00000013          	nop
ffffffff802125c8:	00000013          	nop
ffffffff802125cc:	00000013          	nop
ffffffff802125d0:	00000013          	nop
ffffffff802125d4:	00000013          	nop
ffffffff802125d8:	00000013          	nop
ffffffff802125dc:	00000013          	nop
ffffffff802125e0:	00000013          	nop
ffffffff802125e4:	00000013          	nop
ffffffff802125e8:	00000013          	nop
ffffffff802125ec:	00000013          	nop
ffffffff802125f0:	00000013          	nop
ffffffff802125f4:	00000013          	nop
ffffffff802125f8:	00000013          	nop
ffffffff802125fc:	00000013          	nop
ffffffff80212600:	00000013          	nop
ffffffff80212604:	00000013          	nop
ffffffff80212608:	00000013          	nop
ffffffff8021260c:	00000013          	nop
ffffffff80212610:	00000013          	nop
ffffffff80212614:	00000013          	nop
ffffffff80212618:	00000013          	nop
ffffffff8021261c:	00000013          	nop
ffffffff80212620:	00000013          	nop
ffffffff80212624:	00000013          	nop
ffffffff80212628:	00000013          	nop
ffffffff8021262c:	00000013          	nop
ffffffff80212630:	00000013          	nop
ffffffff80212634:	00000013          	nop
ffffffff80212638:	00000013          	nop
ffffffff8021263c:	00000013          	nop
ffffffff80212640:	00000013          	nop
ffffffff80212644:	00000013          	nop
ffffffff80212648:	00000013          	nop
ffffffff8021264c:	00000013          	nop
ffffffff80212650:	00000013          	nop
ffffffff80212654:	00000013          	nop
ffffffff80212658:	00000013          	nop
ffffffff8021265c:	00000013          	nop
ffffffff80212660:	00000013          	nop
ffffffff80212664:	00000013          	nop
ffffffff80212668:	00000013          	nop
ffffffff8021266c:	00000013          	nop
ffffffff80212670:	00000013          	nop
ffffffff80212674:	00000013          	nop
ffffffff80212678:	00000013          	nop
ffffffff8021267c:	00000013          	nop
ffffffff80212680:	00000013          	nop
ffffffff80212684:	00000013          	nop
ffffffff80212688:	00000013          	nop
ffffffff8021268c:	00000013          	nop
ffffffff80212690:	00000013          	nop
ffffffff80212694:	00000013          	nop
ffffffff80212698:	00000013          	nop
ffffffff8021269c:	00000013          	nop
ffffffff802126a0:	00000013          	nop
ffffffff802126a4:	00000013          	nop
ffffffff802126a8:	00000013          	nop
ffffffff802126ac:	00000013          	nop
ffffffff802126b0:	00000013          	nop
ffffffff802126b4:	00000013          	nop
ffffffff802126b8:	00000013          	nop
ffffffff802126bc:	00000013          	nop
ffffffff802126c0:	00000013          	nop
ffffffff802126c4:	00000013          	nop
ffffffff802126c8:	00000013          	nop
ffffffff802126cc:	00000013          	nop
ffffffff802126d0:	00000013          	nop
ffffffff802126d4:	00000013          	nop
ffffffff802126d8:	00000013          	nop
ffffffff802126dc:	00000013          	nop
ffffffff802126e0:	00000013          	nop
ffffffff802126e4:	00000013          	nop
ffffffff802126e8:	00000013          	nop
ffffffff802126ec:	00000013          	nop
ffffffff802126f0:	00000013          	nop
ffffffff802126f4:	00000013          	nop
ffffffff802126f8:	00000013          	nop
ffffffff802126fc:	00000013          	nop
ffffffff80212700:	00000013          	nop
ffffffff80212704:	00000013          	nop
ffffffff80212708:	00000013          	nop
ffffffff8021270c:	00000013          	nop
ffffffff80212710:	00000013          	nop
ffffffff80212714:	00000013          	nop
ffffffff80212718:	00000013          	nop
ffffffff8021271c:	00000013          	nop
ffffffff80212720:	00000013          	nop
ffffffff80212724:	00000013          	nop
ffffffff80212728:	00000013          	nop
ffffffff8021272c:	00000013          	nop
ffffffff80212730:	00000013          	nop
ffffffff80212734:	00000013          	nop
ffffffff80212738:	00000013          	nop
ffffffff8021273c:	00000013          	nop
ffffffff80212740:	00000013          	nop
ffffffff80212744:	00000013          	nop
ffffffff80212748:	00000013          	nop
ffffffff8021274c:	00000013          	nop
ffffffff80212750:	00000013          	nop
ffffffff80212754:	00000013          	nop
ffffffff80212758:	00000013          	nop
ffffffff8021275c:	00000013          	nop
ffffffff80212760:	00000013          	nop
ffffffff80212764:	00000013          	nop
ffffffff80212768:	00000013          	nop
ffffffff8021276c:	00000013          	nop
ffffffff80212770:	00000013          	nop
ffffffff80212774:	00000013          	nop
ffffffff80212778:	00000013          	nop
ffffffff8021277c:	00000013          	nop
ffffffff80212780:	00000013          	nop
ffffffff80212784:	00000013          	nop
ffffffff80212788:	00000013          	nop
ffffffff8021278c:	00000013          	nop
ffffffff80212790:	00000013          	nop
ffffffff80212794:	00000013          	nop
ffffffff80212798:	00000013          	nop
ffffffff8021279c:	00000013          	nop
ffffffff802127a0:	00000013          	nop
ffffffff802127a4:	00000013          	nop
ffffffff802127a8:	00000013          	nop
ffffffff802127ac:	00000013          	nop
ffffffff802127b0:	00000013          	nop
ffffffff802127b4:	00000013          	nop
ffffffff802127b8:	00000013          	nop
ffffffff802127bc:	00000013          	nop
ffffffff802127c0:	00000013          	nop
ffffffff802127c4:	00000013          	nop
ffffffff802127c8:	00000013          	nop
ffffffff802127cc:	00000013          	nop
ffffffff802127d0:	00000013          	nop
ffffffff802127d4:	00000013          	nop
ffffffff802127d8:	00000013          	nop
ffffffff802127dc:	00000013          	nop
ffffffff802127e0:	00000013          	nop
ffffffff802127e4:	00000013          	nop
ffffffff802127e8:	00000013          	nop
ffffffff802127ec:	00000013          	nop
ffffffff802127f0:	00000013          	nop
ffffffff802127f4:	00000013          	nop
ffffffff802127f8:	00000013          	nop
ffffffff802127fc:	00000013          	nop
ffffffff80212800:	00000013          	nop
ffffffff80212804:	00000013          	nop
ffffffff80212808:	00000013          	nop
ffffffff8021280c:	00000013          	nop
ffffffff80212810:	00000013          	nop
ffffffff80212814:	00000013          	nop
ffffffff80212818:	00000013          	nop
ffffffff8021281c:	00000013          	nop
ffffffff80212820:	00000013          	nop
ffffffff80212824:	00000013          	nop
ffffffff80212828:	00000013          	nop
ffffffff8021282c:	00000013          	nop
ffffffff80212830:	00000013          	nop
ffffffff80212834:	00000013          	nop
ffffffff80212838:	00000013          	nop
ffffffff8021283c:	00000013          	nop
ffffffff80212840:	00000013          	nop
ffffffff80212844:	00000013          	nop
ffffffff80212848:	00000013          	nop
ffffffff8021284c:	00000013          	nop
ffffffff80212850:	00000013          	nop
ffffffff80212854:	00000013          	nop
ffffffff80212858:	00000013          	nop
ffffffff8021285c:	00000013          	nop
ffffffff80212860:	00000013          	nop
ffffffff80212864:	00000013          	nop
ffffffff80212868:	00000013          	nop
ffffffff8021286c:	00000013          	nop
ffffffff80212870:	00000013          	nop
ffffffff80212874:	00000013          	nop
ffffffff80212878:	00000013          	nop
ffffffff8021287c:	00000013          	nop
ffffffff80212880:	00000013          	nop
ffffffff80212884:	00000013          	nop
ffffffff80212888:	00000013          	nop
ffffffff8021288c:	00000013          	nop
ffffffff80212890:	00000013          	nop
ffffffff80212894:	00000013          	nop
ffffffff80212898:	00000013          	nop
ffffffff8021289c:	00000013          	nop
ffffffff802128a0:	00000013          	nop
ffffffff802128a4:	00000013          	nop
ffffffff802128a8:	00000013          	nop
ffffffff802128ac:	00000013          	nop
ffffffff802128b0:	00000013          	nop
ffffffff802128b4:	00000013          	nop
ffffffff802128b8:	00000013          	nop
ffffffff802128bc:	00000013          	nop
ffffffff802128c0:	00000013          	nop
ffffffff802128c4:	00000013          	nop
ffffffff802128c8:	00000013          	nop
ffffffff802128cc:	00000013          	nop
ffffffff802128d0:	00000013          	nop
ffffffff802128d4:	00000013          	nop
ffffffff802128d8:	00000013          	nop
ffffffff802128dc:	00000013          	nop
ffffffff802128e0:	00000013          	nop
ffffffff802128e4:	00000013          	nop
ffffffff802128e8:	00000013          	nop
ffffffff802128ec:	00000013          	nop
ffffffff802128f0:	00000013          	nop
ffffffff802128f4:	00000013          	nop
ffffffff802128f8:	00000013          	nop
ffffffff802128fc:	00000013          	nop
ffffffff80212900:	00000013          	nop
ffffffff80212904:	00000013          	nop
ffffffff80212908:	00000013          	nop
ffffffff8021290c:	00000013          	nop
ffffffff80212910:	00000013          	nop
ffffffff80212914:	00000013          	nop
ffffffff80212918:	00000013          	nop
ffffffff8021291c:	00000013          	nop
ffffffff80212920:	00000013          	nop
ffffffff80212924:	00000013          	nop
ffffffff80212928:	00000013          	nop
ffffffff8021292c:	00000013          	nop
ffffffff80212930:	00000013          	nop
ffffffff80212934:	00000013          	nop
ffffffff80212938:	00000013          	nop
ffffffff8021293c:	00000013          	nop
ffffffff80212940:	00000013          	nop
ffffffff80212944:	00000013          	nop
ffffffff80212948:	00000013          	nop
ffffffff8021294c:	00000013          	nop
ffffffff80212950:	00000013          	nop
ffffffff80212954:	00000013          	nop
ffffffff80212958:	00000013          	nop
ffffffff8021295c:	00000013          	nop
ffffffff80212960:	00000013          	nop
ffffffff80212964:	00000013          	nop
ffffffff80212968:	00000013          	nop
ffffffff8021296c:	00000013          	nop
ffffffff80212970:	00000013          	nop
ffffffff80212974:	00000013          	nop
ffffffff80212978:	00000013          	nop
ffffffff8021297c:	00000013          	nop
ffffffff80212980:	00000013          	nop
ffffffff80212984:	00000013          	nop
ffffffff80212988:	00000013          	nop
ffffffff8021298c:	00000013          	nop
ffffffff80212990:	00000013          	nop
ffffffff80212994:	00000013          	nop
ffffffff80212998:	00000013          	nop
ffffffff8021299c:	00000013          	nop
ffffffff802129a0:	00000013          	nop
ffffffff802129a4:	00000013          	nop
ffffffff802129a8:	00000013          	nop
ffffffff802129ac:	00000013          	nop
ffffffff802129b0:	00000013          	nop
ffffffff802129b4:	00000013          	nop
ffffffff802129b8:	00000013          	nop
ffffffff802129bc:	00000013          	nop
ffffffff802129c0:	00000013          	nop
ffffffff802129c4:	00000013          	nop
ffffffff802129c8:	00000013          	nop
ffffffff802129cc:	00000013          	nop
ffffffff802129d0:	00000013          	nop
ffffffff802129d4:	00000013          	nop
ffffffff802129d8:	00000013          	nop
ffffffff802129dc:	00000013          	nop
ffffffff802129e0:	00000013          	nop
ffffffff802129e4:	00000013          	nop
ffffffff802129e8:	00000013          	nop
ffffffff802129ec:	00000013          	nop
ffffffff802129f0:	00000013          	nop
ffffffff802129f4:	00000013          	nop
ffffffff802129f8:	00000013          	nop
ffffffff802129fc:	00000013          	nop
ffffffff80212a00:	00000013          	nop
ffffffff80212a04:	00000013          	nop
ffffffff80212a08:	00000013          	nop
ffffffff80212a0c:	00000013          	nop
ffffffff80212a10:	00000013          	nop
ffffffff80212a14:	00000013          	nop
ffffffff80212a18:	00000013          	nop
ffffffff80212a1c:	00000013          	nop
ffffffff80212a20:	00000013          	nop
ffffffff80212a24:	00000013          	nop
ffffffff80212a28:	00000013          	nop
ffffffff80212a2c:	00000013          	nop
ffffffff80212a30:	00000013          	nop
ffffffff80212a34:	00000013          	nop
ffffffff80212a38:	00000013          	nop
ffffffff80212a3c:	00000013          	nop
ffffffff80212a40:	00000013          	nop
ffffffff80212a44:	00000013          	nop
ffffffff80212a48:	00000013          	nop
ffffffff80212a4c:	00000013          	nop
ffffffff80212a50:	00000013          	nop
ffffffff80212a54:	00000013          	nop
ffffffff80212a58:	00000013          	nop
ffffffff80212a5c:	00000013          	nop
ffffffff80212a60:	00000013          	nop
ffffffff80212a64:	00000013          	nop
ffffffff80212a68:	00000013          	nop
ffffffff80212a6c:	00000013          	nop
ffffffff80212a70:	00000013          	nop
ffffffff80212a74:	00000013          	nop
ffffffff80212a78:	00000013          	nop
ffffffff80212a7c:	00000013          	nop
ffffffff80212a80:	00000013          	nop
ffffffff80212a84:	00000013          	nop
ffffffff80212a88:	00000013          	nop
ffffffff80212a8c:	00000013          	nop
ffffffff80212a90:	00000013          	nop
ffffffff80212a94:	00000013          	nop
ffffffff80212a98:	00000013          	nop
ffffffff80212a9c:	00000013          	nop
ffffffff80212aa0:	00000013          	nop
ffffffff80212aa4:	00000013          	nop
ffffffff80212aa8:	00000013          	nop
ffffffff80212aac:	00000013          	nop
ffffffff80212ab0:	00000013          	nop
ffffffff80212ab4:	00000013          	nop
ffffffff80212ab8:	00000013          	nop
ffffffff80212abc:	00000013          	nop
ffffffff80212ac0:	00000013          	nop
ffffffff80212ac4:	00000013          	nop
ffffffff80212ac8:	00000013          	nop
ffffffff80212acc:	00000013          	nop
ffffffff80212ad0:	00000013          	nop
ffffffff80212ad4:	00000013          	nop
ffffffff80212ad8:	00000013          	nop
ffffffff80212adc:	00000013          	nop
ffffffff80212ae0:	00000013          	nop
ffffffff80212ae4:	00000013          	nop
ffffffff80212ae8:	00000013          	nop
ffffffff80212aec:	00000013          	nop
ffffffff80212af0:	00000013          	nop
ffffffff80212af4:	00000013          	nop
ffffffff80212af8:	00000013          	nop
ffffffff80212afc:	00000013          	nop
ffffffff80212b00:	00000013          	nop
ffffffff80212b04:	00000013          	nop
ffffffff80212b08:	00000013          	nop
ffffffff80212b0c:	00000013          	nop
ffffffff80212b10:	00000013          	nop
ffffffff80212b14:	00000013          	nop
ffffffff80212b18:	00000013          	nop
ffffffff80212b1c:	00000013          	nop
ffffffff80212b20:	00000013          	nop
ffffffff80212b24:	00000013          	nop
ffffffff80212b28:	00000013          	nop
ffffffff80212b2c:	00000013          	nop
ffffffff80212b30:	00000013          	nop
ffffffff80212b34:	00000013          	nop
ffffffff80212b38:	00000013          	nop
ffffffff80212b3c:	00000013          	nop
ffffffff80212b40:	00000013          	nop
ffffffff80212b44:	00000013          	nop
ffffffff80212b48:	00000013          	nop
ffffffff80212b4c:	00000013          	nop
ffffffff80212b50:	00000013          	nop
ffffffff80212b54:	00000013          	nop
ffffffff80212b58:	00000013          	nop
ffffffff80212b5c:	00000013          	nop
ffffffff80212b60:	00000013          	nop
ffffffff80212b64:	00000013          	nop
ffffffff80212b68:	00000013          	nop
ffffffff80212b6c:	00000013          	nop
ffffffff80212b70:	00000013          	nop
ffffffff80212b74:	00000013          	nop
ffffffff80212b78:	00000013          	nop
ffffffff80212b7c:	00000013          	nop
ffffffff80212b80:	00000013          	nop
ffffffff80212b84:	00000013          	nop
ffffffff80212b88:	00000013          	nop
ffffffff80212b8c:	00000013          	nop
ffffffff80212b90:	00000013          	nop
ffffffff80212b94:	00000013          	nop
ffffffff80212b98:	00000013          	nop
ffffffff80212b9c:	00000013          	nop
ffffffff80212ba0:	00000013          	nop
ffffffff80212ba4:	00000013          	nop
ffffffff80212ba8:	00000013          	nop
ffffffff80212bac:	00000013          	nop
ffffffff80212bb0:	00000013          	nop
ffffffff80212bb4:	00000013          	nop
ffffffff80212bb8:	00000013          	nop
ffffffff80212bbc:	00000013          	nop
ffffffff80212bc0:	00000013          	nop
ffffffff80212bc4:	00000013          	nop
ffffffff80212bc8:	00000013          	nop
ffffffff80212bcc:	00000013          	nop
ffffffff80212bd0:	00000013          	nop
ffffffff80212bd4:	00000013          	nop
ffffffff80212bd8:	00000013          	nop
ffffffff80212bdc:	00000013          	nop
ffffffff80212be0:	00000013          	nop
ffffffff80212be4:	00000013          	nop
ffffffff80212be8:	00000013          	nop
ffffffff80212bec:	00000013          	nop
ffffffff80212bf0:	00000013          	nop
ffffffff80212bf4:	00000013          	nop
ffffffff80212bf8:	00000013          	nop
ffffffff80212bfc:	00000013          	nop
ffffffff80212c00:	00000013          	nop
ffffffff80212c04:	00000013          	nop
ffffffff80212c08:	00000013          	nop
ffffffff80212c0c:	00000013          	nop
ffffffff80212c10:	00000013          	nop
ffffffff80212c14:	00000013          	nop
ffffffff80212c18:	00000013          	nop
ffffffff80212c1c:	00000013          	nop
ffffffff80212c20:	00000013          	nop
ffffffff80212c24:	00000013          	nop
ffffffff80212c28:	00000013          	nop
ffffffff80212c2c:	00000013          	nop
ffffffff80212c30:	00000013          	nop
ffffffff80212c34:	00000013          	nop
ffffffff80212c38:	00000013          	nop
ffffffff80212c3c:	00000013          	nop
ffffffff80212c40:	00000013          	nop
ffffffff80212c44:	00000013          	nop
ffffffff80212c48:	00000013          	nop
ffffffff80212c4c:	00000013          	nop
ffffffff80212c50:	00000013          	nop
ffffffff80212c54:	00000013          	nop
ffffffff80212c58:	00000013          	nop
ffffffff80212c5c:	00000013          	nop
ffffffff80212c60:	00000013          	nop
ffffffff80212c64:	00000013          	nop
ffffffff80212c68:	00000013          	nop
ffffffff80212c6c:	00000013          	nop
ffffffff80212c70:	00000013          	nop
ffffffff80212c74:	00000013          	nop
ffffffff80212c78:	00000013          	nop
ffffffff80212c7c:	00000013          	nop
ffffffff80212c80:	00000013          	nop
ffffffff80212c84:	00000013          	nop
ffffffff80212c88:	00000013          	nop
ffffffff80212c8c:	00000013          	nop
ffffffff80212c90:	00000013          	nop
ffffffff80212c94:	00000013          	nop
ffffffff80212c98:	00000013          	nop
ffffffff80212c9c:	00000013          	nop
ffffffff80212ca0:	00000013          	nop
ffffffff80212ca4:	00000013          	nop
ffffffff80212ca8:	00000013          	nop
ffffffff80212cac:	00000013          	nop
ffffffff80212cb0:	00000013          	nop
ffffffff80212cb4:	00000013          	nop
ffffffff80212cb8:	00000013          	nop
ffffffff80212cbc:	00000013          	nop
ffffffff80212cc0:	00000013          	nop
ffffffff80212cc4:	00000013          	nop
ffffffff80212cc8:	00000013          	nop
ffffffff80212ccc:	00000013          	nop
ffffffff80212cd0:	00000013          	nop
ffffffff80212cd4:	00000013          	nop
ffffffff80212cd8:	00000013          	nop
ffffffff80212cdc:	00000013          	nop
ffffffff80212ce0:	00000013          	nop
ffffffff80212ce4:	00000013          	nop
ffffffff80212ce8:	00000013          	nop
ffffffff80212cec:	00000013          	nop
ffffffff80212cf0:	00000013          	nop
ffffffff80212cf4:	00000013          	nop
ffffffff80212cf8:	00000013          	nop
ffffffff80212cfc:	00000013          	nop
ffffffff80212d00:	00000013          	nop
ffffffff80212d04:	00000013          	nop
ffffffff80212d08:	00000013          	nop
ffffffff80212d0c:	00000013          	nop
ffffffff80212d10:	00000013          	nop
ffffffff80212d14:	00000013          	nop
ffffffff80212d18:	00000013          	nop
ffffffff80212d1c:	00000013          	nop
ffffffff80212d20:	00000013          	nop
ffffffff80212d24:	00000013          	nop
ffffffff80212d28:	00000013          	nop
ffffffff80212d2c:	00000013          	nop
ffffffff80212d30:	00000013          	nop
ffffffff80212d34:	00000013          	nop
ffffffff80212d38:	00000013          	nop
ffffffff80212d3c:	00000013          	nop
ffffffff80212d40:	00000013          	nop
ffffffff80212d44:	00000013          	nop
ffffffff80212d48:	00000013          	nop
ffffffff80212d4c:	00000013          	nop
ffffffff80212d50:	00000013          	nop
ffffffff80212d54:	00000013          	nop
ffffffff80212d58:	00000013          	nop
ffffffff80212d5c:	00000013          	nop
ffffffff80212d60:	00000013          	nop
ffffffff80212d64:	00000013          	nop
ffffffff80212d68:	00000013          	nop
ffffffff80212d6c:	00000013          	nop
ffffffff80212d70:	00000013          	nop
ffffffff80212d74:	00000013          	nop
ffffffff80212d78:	00000013          	nop
ffffffff80212d7c:	00000013          	nop
ffffffff80212d80:	00000013          	nop
ffffffff80212d84:	00000013          	nop
ffffffff80212d88:	00000013          	nop
ffffffff80212d8c:	00000013          	nop
ffffffff80212d90:	00000013          	nop
ffffffff80212d94:	00000013          	nop
ffffffff80212d98:	00000013          	nop
ffffffff80212d9c:	00000013          	nop
ffffffff80212da0:	00000013          	nop
ffffffff80212da4:	00000013          	nop
ffffffff80212da8:	00000013          	nop
ffffffff80212dac:	00000013          	nop
ffffffff80212db0:	00000013          	nop
ffffffff80212db4:	00000013          	nop
ffffffff80212db8:	00000013          	nop
ffffffff80212dbc:	00000013          	nop
ffffffff80212dc0:	00000013          	nop
ffffffff80212dc4:	00000013          	nop
ffffffff80212dc8:	00000013          	nop
ffffffff80212dcc:	00000013          	nop
ffffffff80212dd0:	00000013          	nop
ffffffff80212dd4:	00000013          	nop
ffffffff80212dd8:	00000013          	nop
ffffffff80212ddc:	00000013          	nop
ffffffff80212de0:	00000013          	nop
ffffffff80212de4:	00000013          	nop
ffffffff80212de8:	00000013          	nop
ffffffff80212dec:	00000013          	nop
ffffffff80212df0:	00000013          	nop
ffffffff80212df4:	00000013          	nop
ffffffff80212df8:	00000013          	nop
ffffffff80212dfc:	00000013          	nop
ffffffff80212e00:	00000013          	nop
ffffffff80212e04:	00000013          	nop
ffffffff80212e08:	00000013          	nop
ffffffff80212e0c:	00000013          	nop
ffffffff80212e10:	00000013          	nop
ffffffff80212e14:	00000013          	nop
ffffffff80212e18:	00000013          	nop
ffffffff80212e1c:	00000013          	nop
ffffffff80212e20:	00000013          	nop
ffffffff80212e24:	00000013          	nop
ffffffff80212e28:	00000013          	nop
ffffffff80212e2c:	00000013          	nop
ffffffff80212e30:	00000013          	nop
ffffffff80212e34:	00000013          	nop
ffffffff80212e38:	00000013          	nop
ffffffff80212e3c:	00000013          	nop
ffffffff80212e40:	00000013          	nop
ffffffff80212e44:	00000013          	nop
ffffffff80212e48:	00000013          	nop
ffffffff80212e4c:	00000013          	nop
ffffffff80212e50:	00000013          	nop
ffffffff80212e54:	00000013          	nop
ffffffff80212e58:	00000013          	nop
ffffffff80212e5c:	00000013          	nop
ffffffff80212e60:	00000013          	nop
ffffffff80212e64:	00000013          	nop
ffffffff80212e68:	00000013          	nop
ffffffff80212e6c:	00000013          	nop
ffffffff80212e70:	00000013          	nop
ffffffff80212e74:	00000013          	nop
ffffffff80212e78:	00000013          	nop
ffffffff80212e7c:	00000013          	nop
ffffffff80212e80:	00000013          	nop
ffffffff80212e84:	00000013          	nop
ffffffff80212e88:	00000013          	nop
ffffffff80212e8c:	00000013          	nop
ffffffff80212e90:	00000013          	nop
ffffffff80212e94:	00000013          	nop
ffffffff80212e98:	00000013          	nop
ffffffff80212e9c:	00000013          	nop
ffffffff80212ea0:	00000013          	nop
ffffffff80212ea4:	00000013          	nop
ffffffff80212ea8:	00000013          	nop
ffffffff80212eac:	00000013          	nop
ffffffff80212eb0:	00000013          	nop
ffffffff80212eb4:	00000013          	nop
ffffffff80212eb8:	00000013          	nop
ffffffff80212ebc:	00000013          	nop
ffffffff80212ec0:	00000013          	nop
ffffffff80212ec4:	00000013          	nop
ffffffff80212ec8:	00000013          	nop
ffffffff80212ecc:	00000013          	nop
ffffffff80212ed0:	00000013          	nop
ffffffff80212ed4:	00000013          	nop
ffffffff80212ed8:	00000013          	nop
ffffffff80212edc:	00000013          	nop
ffffffff80212ee0:	00000013          	nop
ffffffff80212ee4:	00000013          	nop
ffffffff80212ee8:	00000013          	nop
ffffffff80212eec:	00000013          	nop
ffffffff80212ef0:	00000013          	nop
ffffffff80212ef4:	00000013          	nop
ffffffff80212ef8:	00000013          	nop
ffffffff80212efc:	00000013          	nop
ffffffff80212f00:	00000013          	nop
ffffffff80212f04:	00000013          	nop
ffffffff80212f08:	00000013          	nop
ffffffff80212f0c:	00000013          	nop
ffffffff80212f10:	00000013          	nop
ffffffff80212f14:	00000013          	nop
ffffffff80212f18:	00000013          	nop
ffffffff80212f1c:	00000013          	nop
ffffffff80212f20:	00000013          	nop
ffffffff80212f24:	00000013          	nop
ffffffff80212f28:	00000013          	nop
ffffffff80212f2c:	00000013          	nop
ffffffff80212f30:	00000013          	nop
ffffffff80212f34:	00000013          	nop
ffffffff80212f38:	00000013          	nop
ffffffff80212f3c:	00000013          	nop
ffffffff80212f40:	00000013          	nop
ffffffff80212f44:	00000013          	nop
ffffffff80212f48:	00000013          	nop
ffffffff80212f4c:	00000013          	nop
ffffffff80212f50:	00000013          	nop
ffffffff80212f54:	00000013          	nop
ffffffff80212f58:	00000013          	nop
ffffffff80212f5c:	00000013          	nop
ffffffff80212f60:	00000013          	nop
ffffffff80212f64:	00000013          	nop
ffffffff80212f68:	00000013          	nop
ffffffff80212f6c:	00000013          	nop
ffffffff80212f70:	00000013          	nop
ffffffff80212f74:	00000013          	nop
ffffffff80212f78:	00000013          	nop
ffffffff80212f7c:	00000013          	nop
ffffffff80212f80:	00000013          	nop
ffffffff80212f84:	00000013          	nop
ffffffff80212f88:	00000013          	nop
ffffffff80212f8c:	00000013          	nop
ffffffff80212f90:	00000013          	nop
ffffffff80212f94:	00000013          	nop
ffffffff80212f98:	00000013          	nop
ffffffff80212f9c:	00000013          	nop
ffffffff80212fa0:	00000013          	nop
ffffffff80212fa4:	00000013          	nop
ffffffff80212fa8:	00000013          	nop
ffffffff80212fac:	00000013          	nop
ffffffff80212fb0:	00000013          	nop
ffffffff80212fb4:	00000013          	nop
ffffffff80212fb8:	00000013          	nop
ffffffff80212fbc:	00000013          	nop
ffffffff80212fc0:	00000013          	nop
ffffffff80212fc4:	00000013          	nop
ffffffff80212fc8:	00000013          	nop
ffffffff80212fcc:	00000013          	nop
ffffffff80212fd0:	00000013          	nop
ffffffff80212fd4:	00000013          	nop
ffffffff80212fd8:	00000013          	nop
ffffffff80212fdc:	00000013          	nop
ffffffff80212fe0:	00000013          	nop
ffffffff80212fe4:	00000013          	nop
ffffffff80212fe8:	00000013          	nop
ffffffff80212fec:	00000013          	nop
ffffffff80212ff0:	00000013          	nop
ffffffff80212ff4:	00000013          	nop
ffffffff80212ff8:	00000013          	nop
ffffffff80212ffc:	00000013          	nop
ffffffff80213000:	00000013          	nop
ffffffff80213004:	00000013          	nop
ffffffff80213008:	00000013          	nop
ffffffff8021300c:	00000013          	nop
ffffffff80213010:	00000013          	nop
ffffffff80213014:	00000013          	nop
ffffffff80213018:	00000013          	nop
ffffffff8021301c:	00000013          	nop
ffffffff80213020:	00000013          	nop
ffffffff80213024:	00000013          	nop
ffffffff80213028:	00000013          	nop
ffffffff8021302c:	00000013          	nop
ffffffff80213030:	00000013          	nop
ffffffff80213034:	00000013          	nop
ffffffff80213038:	00000013          	nop
ffffffff8021303c:	00000013          	nop
ffffffff80213040:	00000013          	nop
ffffffff80213044:	00000013          	nop
ffffffff80213048:	00000013          	nop
ffffffff8021304c:	00000013          	nop
ffffffff80213050:	00000013          	nop
ffffffff80213054:	00000013          	nop
ffffffff80213058:	00000013          	nop
ffffffff8021305c:	00000013          	nop
ffffffff80213060:	00000013          	nop
ffffffff80213064:	00000013          	nop
ffffffff80213068:	00000013          	nop
ffffffff8021306c:	00000013          	nop
ffffffff80213070:	00000013          	nop
ffffffff80213074:	00000013          	nop
ffffffff80213078:	00000013          	nop
ffffffff8021307c:	00000013          	nop
ffffffff80213080:	00000013          	nop
ffffffff80213084:	00000013          	nop
ffffffff80213088:	00000013          	nop
ffffffff8021308c:	00000013          	nop
ffffffff80213090:	00000013          	nop
ffffffff80213094:	00000013          	nop
ffffffff80213098:	00000013          	nop
ffffffff8021309c:	00000013          	nop
ffffffff802130a0:	00000013          	nop
ffffffff802130a4:	00000013          	nop
ffffffff802130a8:	00000013          	nop
ffffffff802130ac:	00000013          	nop
ffffffff802130b0:	00000013          	nop
ffffffff802130b4:	00000013          	nop
ffffffff802130b8:	00000013          	nop
ffffffff802130bc:	00000013          	nop
ffffffff802130c0:	00000013          	nop
ffffffff802130c4:	00000013          	nop
ffffffff802130c8:	00000013          	nop
ffffffff802130cc:	00000013          	nop
ffffffff802130d0:	00000013          	nop
ffffffff802130d4:	00000013          	nop
ffffffff802130d8:	00000013          	nop
ffffffff802130dc:	00000013          	nop
ffffffff802130e0:	00000013          	nop
ffffffff802130e4:	00000013          	nop
ffffffff802130e8:	00000013          	nop
ffffffff802130ec:	00000013          	nop
ffffffff802130f0:	00000013          	nop
ffffffff802130f4:	00000013          	nop
ffffffff802130f8:	00000013          	nop
ffffffff802130fc:	00000013          	nop
ffffffff80213100:	00000013          	nop
ffffffff80213104:	00000013          	nop
ffffffff80213108:	00000013          	nop
ffffffff8021310c:	00000013          	nop
ffffffff80213110:	00000013          	nop
ffffffff80213114:	00000013          	nop
ffffffff80213118:	00000013          	nop
ffffffff8021311c:	00000013          	nop
ffffffff80213120:	00000013          	nop
ffffffff80213124:	00000013          	nop
ffffffff80213128:	00000013          	nop
ffffffff8021312c:	00000013          	nop
ffffffff80213130:	00000013          	nop
ffffffff80213134:	00000013          	nop
ffffffff80213138:	00000013          	nop
ffffffff8021313c:	00000013          	nop
ffffffff80213140:	00000013          	nop
ffffffff80213144:	00000013          	nop
ffffffff80213148:	00000013          	nop
ffffffff8021314c:	00000013          	nop
ffffffff80213150:	00000013          	nop
ffffffff80213154:	00000013          	nop
ffffffff80213158:	00000013          	nop
ffffffff8021315c:	00000013          	nop
ffffffff80213160:	00000013          	nop
ffffffff80213164:	00000013          	nop
ffffffff80213168:	00000013          	nop
ffffffff8021316c:	00000013          	nop
ffffffff80213170:	00000013          	nop
ffffffff80213174:	00000013          	nop
ffffffff80213178:	00000013          	nop
ffffffff8021317c:	00000013          	nop
ffffffff80213180:	00000013          	nop
ffffffff80213184:	00000013          	nop
ffffffff80213188:	00000013          	nop
ffffffff8021318c:	00000013          	nop
ffffffff80213190:	00000013          	nop
ffffffff80213194:	00000013          	nop
ffffffff80213198:	00000013          	nop
ffffffff8021319c:	00000013          	nop
ffffffff802131a0:	00000013          	nop
ffffffff802131a4:	00000013          	nop
ffffffff802131a8:	00000013          	nop
ffffffff802131ac:	00000013          	nop
ffffffff802131b0:	00000013          	nop
ffffffff802131b4:	00000013          	nop
ffffffff802131b8:	00000013          	nop
ffffffff802131bc:	00000013          	nop
ffffffff802131c0:	00000013          	nop
ffffffff802131c4:	00000013          	nop
ffffffff802131c8:	00000013          	nop
ffffffff802131cc:	00000013          	nop
ffffffff802131d0:	00000013          	nop
ffffffff802131d4:	00000013          	nop
ffffffff802131d8:	00000013          	nop
ffffffff802131dc:	00000013          	nop
ffffffff802131e0:	00000013          	nop
ffffffff802131e4:	00000013          	nop
ffffffff802131e8:	00000013          	nop
ffffffff802131ec:	00000013          	nop
ffffffff802131f0:	00000013          	nop
ffffffff802131f4:	00000013          	nop
ffffffff802131f8:	00000013          	nop
ffffffff802131fc:	00000013          	nop
ffffffff80213200:	00000013          	nop
ffffffff80213204:	00000013          	nop
ffffffff80213208:	00000013          	nop
ffffffff8021320c:	00000013          	nop
ffffffff80213210:	00000013          	nop
ffffffff80213214:	00000013          	nop
ffffffff80213218:	00000013          	nop
ffffffff8021321c:	00000013          	nop
ffffffff80213220:	00000013          	nop
ffffffff80213224:	00000013          	nop
ffffffff80213228:	00000013          	nop
ffffffff8021322c:	00000013          	nop
ffffffff80213230:	00000013          	nop
ffffffff80213234:	00000013          	nop
ffffffff80213238:	00000013          	nop
ffffffff8021323c:	00000013          	nop
ffffffff80213240:	00000013          	nop
ffffffff80213244:	00000013          	nop
ffffffff80213248:	00000013          	nop
ffffffff8021324c:	00000013          	nop
ffffffff80213250:	00000013          	nop
ffffffff80213254:	00000013          	nop
ffffffff80213258:	00000013          	nop
ffffffff8021325c:	00000013          	nop
ffffffff80213260:	00000013          	nop
ffffffff80213264:	00000013          	nop
ffffffff80213268:	00000013          	nop
ffffffff8021326c:	00000013          	nop
ffffffff80213270:	00000013          	nop
ffffffff80213274:	00000013          	nop
ffffffff80213278:	00000013          	nop
ffffffff8021327c:	00000013          	nop
ffffffff80213280:	00000013          	nop
ffffffff80213284:	00000013          	nop
ffffffff80213288:	00000013          	nop
ffffffff8021328c:	00000013          	nop
ffffffff80213290:	00000013          	nop
ffffffff80213294:	00000013          	nop
ffffffff80213298:	00000013          	nop
ffffffff8021329c:	00000013          	nop
ffffffff802132a0:	00000013          	nop
ffffffff802132a4:	00000013          	nop
ffffffff802132a8:	00000013          	nop
ffffffff802132ac:	00000013          	nop
ffffffff802132b0:	00000013          	nop
ffffffff802132b4:	00000013          	nop
ffffffff802132b8:	00000013          	nop
ffffffff802132bc:	00000013          	nop
ffffffff802132c0:	00000013          	nop
ffffffff802132c4:	00000013          	nop
ffffffff802132c8:	00000013          	nop
ffffffff802132cc:	00000013          	nop
ffffffff802132d0:	00000013          	nop
ffffffff802132d4:	00000013          	nop
ffffffff802132d8:	00000013          	nop
ffffffff802132dc:	00000013          	nop
ffffffff802132e0:	00000013          	nop
ffffffff802132e4:	00000013          	nop
ffffffff802132e8:	00000013          	nop
ffffffff802132ec:	00000013          	nop
ffffffff802132f0:	00000013          	nop
ffffffff802132f4:	00000013          	nop
ffffffff802132f8:	00000013          	nop
ffffffff802132fc:	00000013          	nop
ffffffff80213300:	00000013          	nop
ffffffff80213304:	00000013          	nop
ffffffff80213308:	00000013          	nop
ffffffff8021330c:	00000013          	nop
ffffffff80213310:	00000013          	nop
ffffffff80213314:	00000013          	nop
ffffffff80213318:	00000013          	nop
ffffffff8021331c:	00000013          	nop
ffffffff80213320:	00000013          	nop
ffffffff80213324:	00000013          	nop
ffffffff80213328:	00000013          	nop
ffffffff8021332c:	00000013          	nop
ffffffff80213330:	00000013          	nop
ffffffff80213334:	00000013          	nop
ffffffff80213338:	00000013          	nop
ffffffff8021333c:	00000013          	nop
ffffffff80213340:	00000013          	nop
ffffffff80213344:	00000013          	nop
ffffffff80213348:	00000013          	nop
ffffffff8021334c:	00000013          	nop
ffffffff80213350:	00000013          	nop
ffffffff80213354:	00000013          	nop
ffffffff80213358:	00000013          	nop
ffffffff8021335c:	00000013          	nop
ffffffff80213360:	00000013          	nop
ffffffff80213364:	00000013          	nop
ffffffff80213368:	00000013          	nop
ffffffff8021336c:	00000013          	nop
ffffffff80213370:	00000013          	nop
ffffffff80213374:	00000013          	nop
ffffffff80213378:	00000013          	nop
ffffffff8021337c:	00000013          	nop
ffffffff80213380:	00000013          	nop
ffffffff80213384:	00000013          	nop
ffffffff80213388:	00000013          	nop
ffffffff8021338c:	00000013          	nop
ffffffff80213390:	00000013          	nop
ffffffff80213394:	00000013          	nop
ffffffff80213398:	00000013          	nop
ffffffff8021339c:	00000013          	nop
ffffffff802133a0:	00000013          	nop
ffffffff802133a4:	00000013          	nop
ffffffff802133a8:	00000013          	nop
ffffffff802133ac:	00000013          	nop
ffffffff802133b0:	00000013          	nop
ffffffff802133b4:	00000013          	nop
ffffffff802133b8:	00000013          	nop
ffffffff802133bc:	00000013          	nop
ffffffff802133c0:	00000013          	nop
ffffffff802133c4:	00000013          	nop
ffffffff802133c8:	00000013          	nop
ffffffff802133cc:	00000013          	nop
ffffffff802133d0:	00000013          	nop
ffffffff802133d4:	00000013          	nop
ffffffff802133d8:	00000013          	nop
ffffffff802133dc:	00000013          	nop
ffffffff802133e0:	00000013          	nop
ffffffff802133e4:	00000013          	nop
ffffffff802133e8:	00000013          	nop
ffffffff802133ec:	00000013          	nop
ffffffff802133f0:	00000013          	nop
ffffffff802133f4:	00000013          	nop
ffffffff802133f8:	00000013          	nop
ffffffff802133fc:	00000013          	nop
ffffffff80213400:	00000013          	nop
ffffffff80213404:	00000013          	nop
ffffffff80213408:	00000013          	nop
ffffffff8021340c:	00000013          	nop
ffffffff80213410:	00000013          	nop
ffffffff80213414:	00000013          	nop
ffffffff80213418:	00000013          	nop
ffffffff8021341c:	00000013          	nop
ffffffff80213420:	00000013          	nop
ffffffff80213424:	00000013          	nop
ffffffff80213428:	00000013          	nop
ffffffff8021342c:	00000013          	nop
ffffffff80213430:	00000013          	nop
ffffffff80213434:	00000013          	nop
ffffffff80213438:	00000013          	nop
ffffffff8021343c:	00000013          	nop
ffffffff80213440:	00000013          	nop
ffffffff80213444:	00000013          	nop
ffffffff80213448:	00000013          	nop
ffffffff8021344c:	00000013          	nop
ffffffff80213450:	00000013          	nop
ffffffff80213454:	00000013          	nop
ffffffff80213458:	00000013          	nop
ffffffff8021345c:	00000013          	nop
ffffffff80213460:	00000013          	nop
ffffffff80213464:	00000013          	nop
ffffffff80213468:	00000013          	nop
ffffffff8021346c:	00000013          	nop
ffffffff80213470:	00000013          	nop
ffffffff80213474:	00000013          	nop
ffffffff80213478:	00000013          	nop
ffffffff8021347c:	00000013          	nop
ffffffff80213480:	00000013          	nop
ffffffff80213484:	00000013          	nop
ffffffff80213488:	00000013          	nop
ffffffff8021348c:	00000013          	nop
ffffffff80213490:	00000013          	nop
ffffffff80213494:	00000013          	nop
ffffffff80213498:	00000013          	nop
ffffffff8021349c:	00000013          	nop
ffffffff802134a0:	00000013          	nop
ffffffff802134a4:	00000013          	nop
ffffffff802134a8:	00000013          	nop
ffffffff802134ac:	00000013          	nop
ffffffff802134b0:	00000013          	nop
ffffffff802134b4:	00000013          	nop
ffffffff802134b8:	00000013          	nop
ffffffff802134bc:	00000013          	nop
ffffffff802134c0:	00000013          	nop
ffffffff802134c4:	00000013          	nop
ffffffff802134c8:	00000013          	nop
ffffffff802134cc:	00000013          	nop
ffffffff802134d0:	00000013          	nop
ffffffff802134d4:	00000013          	nop
ffffffff802134d8:	00000013          	nop
ffffffff802134dc:	00000013          	nop
ffffffff802134e0:	00000013          	nop
ffffffff802134e4:	00000013          	nop
ffffffff802134e8:	00000013          	nop
ffffffff802134ec:	00000013          	nop
ffffffff802134f0:	00000013          	nop
ffffffff802134f4:	00000013          	nop
ffffffff802134f8:	00000013          	nop
ffffffff802134fc:	00000013          	nop
ffffffff80213500:	00000013          	nop
ffffffff80213504:	00000013          	nop
ffffffff80213508:	00000013          	nop
ffffffff8021350c:	00000013          	nop
ffffffff80213510:	00000013          	nop
ffffffff80213514:	00000013          	nop
ffffffff80213518:	00000013          	nop
ffffffff8021351c:	00000013          	nop
ffffffff80213520:	00000013          	nop
ffffffff80213524:	00000013          	nop
ffffffff80213528:	00000013          	nop
ffffffff8021352c:	00000013          	nop
ffffffff80213530:	00000013          	nop
ffffffff80213534:	00000013          	nop
ffffffff80213538:	00000013          	nop
ffffffff8021353c:	00000013          	nop
ffffffff80213540:	00000013          	nop
ffffffff80213544:	00000013          	nop
ffffffff80213548:	00000013          	nop
ffffffff8021354c:	00000013          	nop
ffffffff80213550:	00000013          	nop
ffffffff80213554:	00000013          	nop
ffffffff80213558:	00000013          	nop
ffffffff8021355c:	00000013          	nop
ffffffff80213560:	00000013          	nop
ffffffff80213564:	00000013          	nop
ffffffff80213568:	00000013          	nop
ffffffff8021356c:	00000013          	nop
ffffffff80213570:	00000013          	nop
ffffffff80213574:	00000013          	nop
ffffffff80213578:	00000013          	nop
ffffffff8021357c:	00000013          	nop
ffffffff80213580:	00000013          	nop
ffffffff80213584:	00000013          	nop
ffffffff80213588:	00000013          	nop
ffffffff8021358c:	00000013          	nop
ffffffff80213590:	00000013          	nop
ffffffff80213594:	00000013          	nop
ffffffff80213598:	00000013          	nop
ffffffff8021359c:	00000013          	nop
ffffffff802135a0:	00000013          	nop
ffffffff802135a4:	00000013          	nop
ffffffff802135a8:	00000013          	nop
ffffffff802135ac:	00000013          	nop
ffffffff802135b0:	00000013          	nop
ffffffff802135b4:	00000013          	nop
ffffffff802135b8:	00000013          	nop
ffffffff802135bc:	00000013          	nop
ffffffff802135c0:	00000013          	nop
ffffffff802135c4:	00000013          	nop
ffffffff802135c8:	00000013          	nop
ffffffff802135cc:	00000013          	nop
ffffffff802135d0:	00000013          	nop
ffffffff802135d4:	00000013          	nop
ffffffff802135d8:	00000013          	nop
ffffffff802135dc:	00000013          	nop
ffffffff802135e0:	00000013          	nop
ffffffff802135e4:	00000013          	nop
ffffffff802135e8:	00000013          	nop
ffffffff802135ec:	00000013          	nop
ffffffff802135f0:	00000013          	nop
ffffffff802135f4:	00000013          	nop
ffffffff802135f8:	00000013          	nop
ffffffff802135fc:	00000013          	nop
ffffffff80213600:	00000013          	nop
ffffffff80213604:	00000013          	nop
ffffffff80213608:	00000013          	nop
ffffffff8021360c:	00000013          	nop
ffffffff80213610:	00000013          	nop
ffffffff80213614:	00000013          	nop
ffffffff80213618:	00000013          	nop
ffffffff8021361c:	00000013          	nop
ffffffff80213620:	00000013          	nop
ffffffff80213624:	00000013          	nop
ffffffff80213628:	00000013          	nop
ffffffff8021362c:	00000013          	nop
ffffffff80213630:	00000013          	nop
ffffffff80213634:	00000013          	nop
ffffffff80213638:	00000013          	nop
ffffffff8021363c:	00000013          	nop
ffffffff80213640:	00000013          	nop
ffffffff80213644:	00000013          	nop
ffffffff80213648:	00000013          	nop
ffffffff8021364c:	00000013          	nop
ffffffff80213650:	00000013          	nop
ffffffff80213654:	00000013          	nop
ffffffff80213658:	00000013          	nop
ffffffff8021365c:	00000013          	nop
ffffffff80213660:	00000013          	nop
ffffffff80213664:	00000013          	nop
ffffffff80213668:	00000013          	nop
ffffffff8021366c:	00000013          	nop
ffffffff80213670:	00000013          	nop
ffffffff80213674:	00000013          	nop
ffffffff80213678:	00000013          	nop
ffffffff8021367c:	00000013          	nop
ffffffff80213680:	00000013          	nop
ffffffff80213684:	00000013          	nop
ffffffff80213688:	00000013          	nop
ffffffff8021368c:	00000013          	nop
ffffffff80213690:	00000013          	nop
ffffffff80213694:	00000013          	nop
ffffffff80213698:	00000013          	nop
ffffffff8021369c:	00000013          	nop
ffffffff802136a0:	00000013          	nop
ffffffff802136a4:	00000013          	nop
ffffffff802136a8:	00000013          	nop
ffffffff802136ac:	00000013          	nop
ffffffff802136b0:	00000013          	nop
ffffffff802136b4:	00000013          	nop
ffffffff802136b8:	00000013          	nop
ffffffff802136bc:	00000013          	nop
ffffffff802136c0:	00000013          	nop
ffffffff802136c4:	00000013          	nop
ffffffff802136c8:	00000013          	nop
ffffffff802136cc:	00000013          	nop
ffffffff802136d0:	00000013          	nop
ffffffff802136d4:	00000013          	nop
ffffffff802136d8:	00000013          	nop
ffffffff802136dc:	00000013          	nop
ffffffff802136e0:	00000013          	nop
ffffffff802136e4:	00000013          	nop
ffffffff802136e8:	00000013          	nop
ffffffff802136ec:	00000013          	nop
ffffffff802136f0:	00000013          	nop
ffffffff802136f4:	00000013          	nop
ffffffff802136f8:	00000013          	nop
ffffffff802136fc:	00000013          	nop
ffffffff80213700:	00000013          	nop
ffffffff80213704:	00000013          	nop
ffffffff80213708:	00000013          	nop
ffffffff8021370c:	00000013          	nop
ffffffff80213710:	00000013          	nop
ffffffff80213714:	00000013          	nop
ffffffff80213718:	00000013          	nop
ffffffff8021371c:	00000013          	nop
ffffffff80213720:	00000013          	nop
ffffffff80213724:	00000013          	nop
ffffffff80213728:	00000013          	nop
ffffffff8021372c:	00000013          	nop
ffffffff80213730:	00000013          	nop
ffffffff80213734:	00000013          	nop
ffffffff80213738:	00000013          	nop
ffffffff8021373c:	00000013          	nop
ffffffff80213740:	00000013          	nop
ffffffff80213744:	00000013          	nop
ffffffff80213748:	00000013          	nop
ffffffff8021374c:	00000013          	nop
ffffffff80213750:	00000013          	nop
ffffffff80213754:	00000013          	nop
ffffffff80213758:	00000013          	nop
ffffffff8021375c:	00000013          	nop
ffffffff80213760:	00000013          	nop
ffffffff80213764:	00000013          	nop
ffffffff80213768:	00000013          	nop
ffffffff8021376c:	00000013          	nop
ffffffff80213770:	00000013          	nop
ffffffff80213774:	00000013          	nop
ffffffff80213778:	00000013          	nop
ffffffff8021377c:	00000013          	nop
ffffffff80213780:	00000013          	nop
ffffffff80213784:	00000013          	nop
ffffffff80213788:	00000013          	nop
ffffffff8021378c:	00000013          	nop
ffffffff80213790:	00000013          	nop
ffffffff80213794:	00000013          	nop
ffffffff80213798:	00000013          	nop
ffffffff8021379c:	00000013          	nop
ffffffff802137a0:	00000013          	nop
ffffffff802137a4:	00000013          	nop
ffffffff802137a8:	00000013          	nop
ffffffff802137ac:	00000013          	nop
ffffffff802137b0:	00000013          	nop
ffffffff802137b4:	00000013          	nop
ffffffff802137b8:	00000013          	nop
ffffffff802137bc:	00000013          	nop
ffffffff802137c0:	00000013          	nop
ffffffff802137c4:	00000013          	nop
ffffffff802137c8:	00000013          	nop
ffffffff802137cc:	00000013          	nop
ffffffff802137d0:	00000013          	nop
ffffffff802137d4:	00000013          	nop
ffffffff802137d8:	00000013          	nop
ffffffff802137dc:	00000013          	nop
ffffffff802137e0:	00000013          	nop
ffffffff802137e4:	00000013          	nop
ffffffff802137e8:	00000013          	nop
ffffffff802137ec:	00000013          	nop
ffffffff802137f0:	00000013          	nop
ffffffff802137f4:	00000013          	nop
ffffffff802137f8:	00000013          	nop
ffffffff802137fc:	00000013          	nop
ffffffff80213800:	00000013          	nop
ffffffff80213804:	00000013          	nop
ffffffff80213808:	00000013          	nop
ffffffff8021380c:	00000013          	nop
ffffffff80213810:	00000013          	nop
ffffffff80213814:	00000013          	nop
ffffffff80213818:	00000013          	nop
ffffffff8021381c:	00000013          	nop
ffffffff80213820:	00000013          	nop
ffffffff80213824:	00000013          	nop
ffffffff80213828:	00000013          	nop
ffffffff8021382c:	00000013          	nop
ffffffff80213830:	00000013          	nop
ffffffff80213834:	00000013          	nop
ffffffff80213838:	00000013          	nop
ffffffff8021383c:	00000013          	nop
ffffffff80213840:	00000013          	nop
ffffffff80213844:	00000013          	nop
ffffffff80213848:	00000013          	nop
ffffffff8021384c:	00000013          	nop
ffffffff80213850:	00000013          	nop
ffffffff80213854:	00000013          	nop
ffffffff80213858:	00000013          	nop
ffffffff8021385c:	00000013          	nop
ffffffff80213860:	00000013          	nop
ffffffff80213864:	00000013          	nop
ffffffff80213868:	00000013          	nop
ffffffff8021386c:	00000013          	nop
ffffffff80213870:	00000013          	nop
ffffffff80213874:	00000013          	nop
ffffffff80213878:	00000013          	nop
ffffffff8021387c:	00000013          	nop
ffffffff80213880:	00000013          	nop
ffffffff80213884:	00000013          	nop
ffffffff80213888:	00000013          	nop
ffffffff8021388c:	00000013          	nop
ffffffff80213890:	00000013          	nop
ffffffff80213894:	00000013          	nop
ffffffff80213898:	00000013          	nop
ffffffff8021389c:	00000013          	nop
ffffffff802138a0:	00000013          	nop
ffffffff802138a4:	00000013          	nop
ffffffff802138a8:	00000013          	nop
ffffffff802138ac:	00000013          	nop
ffffffff802138b0:	00000013          	nop
ffffffff802138b4:	00000013          	nop
ffffffff802138b8:	00000013          	nop
ffffffff802138bc:	00000013          	nop
ffffffff802138c0:	00000013          	nop
ffffffff802138c4:	00000013          	nop
ffffffff802138c8:	00000013          	nop
ffffffff802138cc:	00000013          	nop
ffffffff802138d0:	00000013          	nop
ffffffff802138d4:	00000013          	nop
ffffffff802138d8:	00000013          	nop
ffffffff802138dc:	00000013          	nop
ffffffff802138e0:	00000013          	nop
ffffffff802138e4:	00000013          	nop
ffffffff802138e8:	00000013          	nop
ffffffff802138ec:	00000013          	nop
ffffffff802138f0:	00000013          	nop
ffffffff802138f4:	00000013          	nop
ffffffff802138f8:	00000013          	nop
ffffffff802138fc:	00000013          	nop
ffffffff80213900:	00000013          	nop
ffffffff80213904:	00000013          	nop
ffffffff80213908:	00000013          	nop
ffffffff8021390c:	00000013          	nop
ffffffff80213910:	00000013          	nop
ffffffff80213914:	00000013          	nop
ffffffff80213918:	00000013          	nop
ffffffff8021391c:	00000013          	nop
ffffffff80213920:	00000013          	nop
ffffffff80213924:	00000013          	nop
ffffffff80213928:	00000013          	nop
ffffffff8021392c:	00000013          	nop
ffffffff80213930:	00000013          	nop
ffffffff80213934:	00000013          	nop
ffffffff80213938:	00000013          	nop
ffffffff8021393c:	00000013          	nop
ffffffff80213940:	00000013          	nop
ffffffff80213944:	00000013          	nop
ffffffff80213948:	00000013          	nop
ffffffff8021394c:	00000013          	nop
ffffffff80213950:	00000013          	nop
ffffffff80213954:	00000013          	nop
ffffffff80213958:	00000013          	nop
ffffffff8021395c:	00000013          	nop
ffffffff80213960:	00000013          	nop
ffffffff80213964:	00000013          	nop
ffffffff80213968:	00000013          	nop
ffffffff8021396c:	00000013          	nop
ffffffff80213970:	00000013          	nop
ffffffff80213974:	00000013          	nop
ffffffff80213978:	00000013          	nop
ffffffff8021397c:	00000013          	nop
ffffffff80213980:	00000013          	nop
ffffffff80213984:	00000013          	nop
ffffffff80213988:	00000013          	nop
ffffffff8021398c:	00000013          	nop
ffffffff80213990:	00000013          	nop
ffffffff80213994:	00000013          	nop
ffffffff80213998:	00000013          	nop
ffffffff8021399c:	00000013          	nop
ffffffff802139a0:	00000013          	nop
ffffffff802139a4:	00000013          	nop
ffffffff802139a8:	00000013          	nop
ffffffff802139ac:	00000013          	nop
ffffffff802139b0:	00000013          	nop
ffffffff802139b4:	00000013          	nop
ffffffff802139b8:	00000013          	nop
ffffffff802139bc:	00000013          	nop
ffffffff802139c0:	00000013          	nop
ffffffff802139c4:	00000013          	nop
ffffffff802139c8:	00000013          	nop
ffffffff802139cc:	00000013          	nop
ffffffff802139d0:	00000013          	nop
ffffffff802139d4:	00000013          	nop
ffffffff802139d8:	00000013          	nop
ffffffff802139dc:	00000013          	nop
ffffffff802139e0:	00000013          	nop
ffffffff802139e4:	00000013          	nop
ffffffff802139e8:	00000013          	nop
ffffffff802139ec:	00000013          	nop
ffffffff802139f0:	00000013          	nop
ffffffff802139f4:	00000013          	nop
ffffffff802139f8:	00000013          	nop
ffffffff802139fc:	00000013          	nop
ffffffff80213a00:	00000013          	nop
ffffffff80213a04:	00000013          	nop
ffffffff80213a08:	00000013          	nop
ffffffff80213a0c:	00000013          	nop
ffffffff80213a10:	00000013          	nop
ffffffff80213a14:	00000013          	nop
ffffffff80213a18:	00000013          	nop
ffffffff80213a1c:	00000013          	nop
ffffffff80213a20:	00000013          	nop
ffffffff80213a24:	00000013          	nop
ffffffff80213a28:	00000013          	nop
ffffffff80213a2c:	00000013          	nop
ffffffff80213a30:	00000013          	nop
ffffffff80213a34:	00000013          	nop
ffffffff80213a38:	00000013          	nop
ffffffff80213a3c:	00000013          	nop
ffffffff80213a40:	00000013          	nop
ffffffff80213a44:	00000013          	nop
ffffffff80213a48:	00000013          	nop
ffffffff80213a4c:	00000013          	nop
ffffffff80213a50:	00000013          	nop
ffffffff80213a54:	00000013          	nop
ffffffff80213a58:	00000013          	nop
ffffffff80213a5c:	00000013          	nop
ffffffff80213a60:	00000013          	nop
ffffffff80213a64:	00000013          	nop
ffffffff80213a68:	00000013          	nop
ffffffff80213a6c:	00000013          	nop
ffffffff80213a70:	00000013          	nop
ffffffff80213a74:	00000013          	nop
ffffffff80213a78:	00000013          	nop
ffffffff80213a7c:	00000013          	nop
ffffffff80213a80:	00000013          	nop
ffffffff80213a84:	00000013          	nop
ffffffff80213a88:	00000013          	nop
ffffffff80213a8c:	00000013          	nop
ffffffff80213a90:	00000013          	nop
ffffffff80213a94:	00000013          	nop
ffffffff80213a98:	00000013          	nop
ffffffff80213a9c:	00000013          	nop
ffffffff80213aa0:	00000013          	nop
ffffffff80213aa4:	00000013          	nop
ffffffff80213aa8:	00000013          	nop
ffffffff80213aac:	00000013          	nop
ffffffff80213ab0:	00000013          	nop
ffffffff80213ab4:	00000013          	nop
ffffffff80213ab8:	00000013          	nop
ffffffff80213abc:	00000013          	nop
ffffffff80213ac0:	00000013          	nop
ffffffff80213ac4:	00000013          	nop
ffffffff80213ac8:	00000013          	nop
ffffffff80213acc:	00000013          	nop
ffffffff80213ad0:	00000013          	nop
ffffffff80213ad4:	00000013          	nop
ffffffff80213ad8:	00000013          	nop
ffffffff80213adc:	00000013          	nop
ffffffff80213ae0:	00000013          	nop
ffffffff80213ae4:	00000013          	nop
ffffffff80213ae8:	00000013          	nop
ffffffff80213aec:	00000013          	nop
ffffffff80213af0:	00000013          	nop
ffffffff80213af4:	00000013          	nop
ffffffff80213af8:	00000013          	nop
ffffffff80213afc:	00000013          	nop
ffffffff80213b00:	00000013          	nop
ffffffff80213b04:	00000013          	nop
ffffffff80213b08:	00000013          	nop
ffffffff80213b0c:	00000013          	nop
ffffffff80213b10:	00000013          	nop
ffffffff80213b14:	00000013          	nop
ffffffff80213b18:	00000013          	nop
ffffffff80213b1c:	00000013          	nop
ffffffff80213b20:	00000013          	nop
ffffffff80213b24:	00000013          	nop
ffffffff80213b28:	00000013          	nop
ffffffff80213b2c:	00000013          	nop
ffffffff80213b30:	00000013          	nop
ffffffff80213b34:	00000013          	nop
ffffffff80213b38:	00000013          	nop
ffffffff80213b3c:	00000013          	nop
ffffffff80213b40:	00000013          	nop
ffffffff80213b44:	00000013          	nop
ffffffff80213b48:	00000013          	nop
ffffffff80213b4c:	00000013          	nop
ffffffff80213b50:	00000013          	nop
ffffffff80213b54:	00000013          	nop
ffffffff80213b58:	00000013          	nop
ffffffff80213b5c:	00000013          	nop
ffffffff80213b60:	00000013          	nop
ffffffff80213b64:	00000013          	nop
ffffffff80213b68:	00000013          	nop
ffffffff80213b6c:	00000013          	nop
ffffffff80213b70:	00000013          	nop
ffffffff80213b74:	00000013          	nop
ffffffff80213b78:	00000013          	nop
ffffffff80213b7c:	00000013          	nop
ffffffff80213b80:	00000013          	nop
ffffffff80213b84:	00000013          	nop
ffffffff80213b88:	00000013          	nop
ffffffff80213b8c:	00000013          	nop
ffffffff80213b90:	00000013          	nop
ffffffff80213b94:	00000013          	nop
ffffffff80213b98:	00000013          	nop
ffffffff80213b9c:	00000013          	nop
ffffffff80213ba0:	00000013          	nop
ffffffff80213ba4:	00000013          	nop
ffffffff80213ba8:	00000013          	nop
ffffffff80213bac:	00000013          	nop
ffffffff80213bb0:	00000013          	nop
ffffffff80213bb4:	00000013          	nop
ffffffff80213bb8:	00000013          	nop
ffffffff80213bbc:	00000013          	nop
ffffffff80213bc0:	00000013          	nop
ffffffff80213bc4:	00000013          	nop
ffffffff80213bc8:	00000013          	nop
ffffffff80213bcc:	00000013          	nop
ffffffff80213bd0:	00000013          	nop
ffffffff80213bd4:	00000013          	nop
ffffffff80213bd8:	00000013          	nop
ffffffff80213bdc:	00000013          	nop
ffffffff80213be0:	00000013          	nop
ffffffff80213be4:	00000013          	nop
ffffffff80213be8:	00000013          	nop
ffffffff80213bec:	00000013          	nop
ffffffff80213bf0:	00000013          	nop
ffffffff80213bf4:	00000013          	nop
ffffffff80213bf8:	00000013          	nop
ffffffff80213bfc:	00000013          	nop
ffffffff80213c00:	00000013          	nop
ffffffff80213c04:	00000013          	nop
ffffffff80213c08:	00000013          	nop
ffffffff80213c0c:	00000013          	nop
ffffffff80213c10:	00000013          	nop
ffffffff80213c14:	00000013          	nop
ffffffff80213c18:	00000013          	nop
ffffffff80213c1c:	00000013          	nop
ffffffff80213c20:	00000013          	nop
ffffffff80213c24:	00000013          	nop
ffffffff80213c28:	00000013          	nop
ffffffff80213c2c:	00000013          	nop
ffffffff80213c30:	00000013          	nop
ffffffff80213c34:	00000013          	nop
ffffffff80213c38:	00000013          	nop
ffffffff80213c3c:	00000013          	nop
ffffffff80213c40:	00000013          	nop
ffffffff80213c44:	00000013          	nop
ffffffff80213c48:	00000013          	nop
ffffffff80213c4c:	00000013          	nop
ffffffff80213c50:	00000013          	nop
ffffffff80213c54:	00000013          	nop
ffffffff80213c58:	00000013          	nop
ffffffff80213c5c:	00000013          	nop
ffffffff80213c60:	00000013          	nop
ffffffff80213c64:	00000013          	nop
ffffffff80213c68:	00000013          	nop
ffffffff80213c6c:	00000013          	nop
ffffffff80213c70:	00000013          	nop
ffffffff80213c74:	00000013          	nop
ffffffff80213c78:	00000013          	nop
ffffffff80213c7c:	00000013          	nop
ffffffff80213c80:	00000013          	nop
ffffffff80213c84:	00000013          	nop
ffffffff80213c88:	00000013          	nop
ffffffff80213c8c:	00000013          	nop
ffffffff80213c90:	00000013          	nop
ffffffff80213c94:	00000013          	nop
ffffffff80213c98:	00000013          	nop
ffffffff80213c9c:	00000013          	nop
ffffffff80213ca0:	00000013          	nop
ffffffff80213ca4:	00000013          	nop
ffffffff80213ca8:	00000013          	nop
ffffffff80213cac:	00000013          	nop
ffffffff80213cb0:	00000013          	nop
ffffffff80213cb4:	00000013          	nop
ffffffff80213cb8:	00000013          	nop
ffffffff80213cbc:	00000013          	nop
ffffffff80213cc0:	00000013          	nop
ffffffff80213cc4:	00000013          	nop
ffffffff80213cc8:	00000013          	nop
ffffffff80213ccc:	00000013          	nop
ffffffff80213cd0:	00000013          	nop
ffffffff80213cd4:	00000013          	nop
ffffffff80213cd8:	00000013          	nop
ffffffff80213cdc:	00000013          	nop
ffffffff80213ce0:	00000013          	nop
ffffffff80213ce4:	00000013          	nop
ffffffff80213ce8:	00000013          	nop
ffffffff80213cec:	00000013          	nop
ffffffff80213cf0:	00000013          	nop
ffffffff80213cf4:	00000013          	nop
ffffffff80213cf8:	00000013          	nop
ffffffff80213cfc:	00000013          	nop
ffffffff80213d00:	00000013          	nop
ffffffff80213d04:	00000013          	nop
ffffffff80213d08:	00000013          	nop
ffffffff80213d0c:	00000013          	nop
ffffffff80213d10:	00000013          	nop
ffffffff80213d14:	00000013          	nop
ffffffff80213d18:	00000013          	nop
ffffffff80213d1c:	00000013          	nop
ffffffff80213d20:	00000013          	nop
ffffffff80213d24:	00000013          	nop
ffffffff80213d28:	00000013          	nop
ffffffff80213d2c:	00000013          	nop
ffffffff80213d30:	00000013          	nop
ffffffff80213d34:	00000013          	nop
ffffffff80213d38:	00000013          	nop
ffffffff80213d3c:	00000013          	nop
ffffffff80213d40:	00000013          	nop
ffffffff80213d44:	00000013          	nop
ffffffff80213d48:	00000013          	nop
ffffffff80213d4c:	00000013          	nop
ffffffff80213d50:	00000013          	nop
ffffffff80213d54:	00000013          	nop
ffffffff80213d58:	00000013          	nop
ffffffff80213d5c:	00000013          	nop
ffffffff80213d60:	00000013          	nop
ffffffff80213d64:	00000013          	nop
ffffffff80213d68:	00000013          	nop
ffffffff80213d6c:	00000013          	nop
ffffffff80213d70:	00000013          	nop
ffffffff80213d74:	00000013          	nop
ffffffff80213d78:	00000013          	nop
ffffffff80213d7c:	00000013          	nop
ffffffff80213d80:	00000013          	nop
ffffffff80213d84:	00000013          	nop
ffffffff80213d88:	00000013          	nop
ffffffff80213d8c:	00000013          	nop
ffffffff80213d90:	00000013          	nop
ffffffff80213d94:	00000013          	nop
ffffffff80213d98:	00000013          	nop
ffffffff80213d9c:	00000013          	nop
ffffffff80213da0:	00000013          	nop
ffffffff80213da4:	00000013          	nop
ffffffff80213da8:	00000013          	nop
ffffffff80213dac:	00000013          	nop
ffffffff80213db0:	00000013          	nop
ffffffff80213db4:	00000013          	nop
ffffffff80213db8:	00000013          	nop
ffffffff80213dbc:	00000013          	nop
ffffffff80213dc0:	00000013          	nop
ffffffff80213dc4:	00000013          	nop
ffffffff80213dc8:	00000013          	nop
ffffffff80213dcc:	00000013          	nop
ffffffff80213dd0:	00000013          	nop
ffffffff80213dd4:	00000013          	nop
ffffffff80213dd8:	00000013          	nop
ffffffff80213ddc:	00000013          	nop
ffffffff80213de0:	00000013          	nop
ffffffff80213de4:	00000013          	nop
ffffffff80213de8:	00000013          	nop
ffffffff80213dec:	00000013          	nop
ffffffff80213df0:	00000013          	nop
ffffffff80213df4:	00000013          	nop
ffffffff80213df8:	00000013          	nop
ffffffff80213dfc:	00000013          	nop
ffffffff80213e00:	00000013          	nop
ffffffff80213e04:	00000013          	nop
ffffffff80213e08:	00000013          	nop
ffffffff80213e0c:	00000013          	nop
ffffffff80213e10:	00000013          	nop
ffffffff80213e14:	00000013          	nop
ffffffff80213e18:	00000013          	nop
ffffffff80213e1c:	00000013          	nop
ffffffff80213e20:	00000013          	nop
ffffffff80213e24:	00000013          	nop
ffffffff80213e28:	00000013          	nop
ffffffff80213e2c:	00000013          	nop
ffffffff80213e30:	00000013          	nop
ffffffff80213e34:	00000013          	nop
ffffffff80213e38:	00000013          	nop
ffffffff80213e3c:	00000013          	nop
ffffffff80213e40:	00000013          	nop
ffffffff80213e44:	00000013          	nop
ffffffff80213e48:	00000013          	nop
ffffffff80213e4c:	00000013          	nop
ffffffff80213e50:	00000013          	nop
ffffffff80213e54:	00000013          	nop
ffffffff80213e58:	00000013          	nop
ffffffff80213e5c:	00000013          	nop
ffffffff80213e60:	00000013          	nop
ffffffff80213e64:	00000013          	nop
ffffffff80213e68:	00000013          	nop
ffffffff80213e6c:	00000013          	nop
ffffffff80213e70:	00000013          	nop
ffffffff80213e74:	00000013          	nop
ffffffff80213e78:	00000013          	nop
ffffffff80213e7c:	00000013          	nop
ffffffff80213e80:	00000013          	nop
ffffffff80213e84:	00000013          	nop
ffffffff80213e88:	00000013          	nop
ffffffff80213e8c:	00000013          	nop
ffffffff80213e90:	00000013          	nop
ffffffff80213e94:	00000013          	nop
ffffffff80213e98:	00000013          	nop
ffffffff80213e9c:	00000013          	nop
ffffffff80213ea0:	00000013          	nop
ffffffff80213ea4:	00000013          	nop
ffffffff80213ea8:	00000013          	nop
ffffffff80213eac:	00000013          	nop
ffffffff80213eb0:	00000013          	nop
ffffffff80213eb4:	00000013          	nop
ffffffff80213eb8:	00000013          	nop
ffffffff80213ebc:	00000013          	nop
ffffffff80213ec0:	00000013          	nop
ffffffff80213ec4:	00000013          	nop
ffffffff80213ec8:	00000013          	nop
ffffffff80213ecc:	00000013          	nop
ffffffff80213ed0:	00000013          	nop
ffffffff80213ed4:	00000013          	nop
ffffffff80213ed8:	00000013          	nop
ffffffff80213edc:	00000013          	nop
ffffffff80213ee0:	00000013          	nop
ffffffff80213ee4:	00000013          	nop
ffffffff80213ee8:	00000013          	nop
ffffffff80213eec:	00000013          	nop
ffffffff80213ef0:	00000013          	nop
ffffffff80213ef4:	00000013          	nop
ffffffff80213ef8:	00000013          	nop
ffffffff80213efc:	00000013          	nop
ffffffff80213f00:	00000013          	nop
ffffffff80213f04:	00000013          	nop
ffffffff80213f08:	00000013          	nop
ffffffff80213f0c:	00000013          	nop
ffffffff80213f10:	00000013          	nop
ffffffff80213f14:	00000013          	nop
ffffffff80213f18:	00000013          	nop
ffffffff80213f1c:	00000013          	nop
ffffffff80213f20:	00000013          	nop
ffffffff80213f24:	00000013          	nop
ffffffff80213f28:	00000013          	nop
ffffffff80213f2c:	00000013          	nop
ffffffff80213f30:	00000013          	nop
ffffffff80213f34:	00000013          	nop
ffffffff80213f38:	00000013          	nop
ffffffff80213f3c:	00000013          	nop
ffffffff80213f40:	00000013          	nop
ffffffff80213f44:	00000013          	nop
ffffffff80213f48:	00000013          	nop
ffffffff80213f4c:	00000013          	nop
ffffffff80213f50:	00000013          	nop
ffffffff80213f54:	00000013          	nop
ffffffff80213f58:	00000013          	nop
ffffffff80213f5c:	00000013          	nop
ffffffff80213f60:	00000013          	nop
ffffffff80213f64:	00000013          	nop
ffffffff80213f68:	00000013          	nop
ffffffff80213f6c:	00000013          	nop
ffffffff80213f70:	00000013          	nop
ffffffff80213f74:	00000013          	nop
ffffffff80213f78:	00000013          	nop
ffffffff80213f7c:	00000013          	nop
ffffffff80213f80:	00000013          	nop
ffffffff80213f84:	00000013          	nop
ffffffff80213f88:	00000013          	nop
ffffffff80213f8c:	00000013          	nop
ffffffff80213f90:	00000013          	nop
ffffffff80213f94:	00000013          	nop
ffffffff80213f98:	00000013          	nop
ffffffff80213f9c:	00000013          	nop
ffffffff80213fa0:	00000013          	nop
ffffffff80213fa4:	00000013          	nop
ffffffff80213fa8:	00000013          	nop
ffffffff80213fac:	00000013          	nop
ffffffff80213fb0:	00000013          	nop
ffffffff80213fb4:	00000013          	nop
ffffffff80213fb8:	00000013          	nop
ffffffff80213fbc:	00000013          	nop
ffffffff80213fc0:	00000013          	nop
ffffffff80213fc4:	00000013          	nop
ffffffff80213fc8:	00000013          	nop
ffffffff80213fcc:	00000013          	nop
ffffffff80213fd0:	00000013          	nop
ffffffff80213fd4:	00000013          	nop
ffffffff80213fd8:	00000013          	nop
ffffffff80213fdc:	00000013          	nop
ffffffff80213fe0:	00000013          	nop
ffffffff80213fe4:	00000013          	nop
ffffffff80213fe8:	00000013          	nop
ffffffff80213fec:	00000013          	nop
ffffffff80213ff0:	00000013          	nop
ffffffff80213ff4:	00000013          	nop
ffffffff80213ff8:	00000013          	nop
ffffffff80213ffc:	00000013          	nop
ffffffff80214000:	00000013          	nop
ffffffff80214004:	00000013          	nop
ffffffff80214008:	00000013          	nop
ffffffff8021400c:	00000013          	nop
ffffffff80214010:	00000013          	nop
ffffffff80214014:	00000013          	nop
ffffffff80214018:	00000013          	nop
ffffffff8021401c:	00000013          	nop
ffffffff80214020:	00000013          	nop
ffffffff80214024:	00000013          	nop
ffffffff80214028:	00000013          	nop
ffffffff8021402c:	00000013          	nop
ffffffff80214030:	00000013          	nop
ffffffff80214034:	00000013          	nop
ffffffff80214038:	00000013          	nop
ffffffff8021403c:	00000013          	nop
ffffffff80214040:	00000013          	nop
ffffffff80214044:	00000013          	nop
ffffffff80214048:	00000013          	nop
ffffffff8021404c:	00000013          	nop
ffffffff80214050:	00000013          	nop
ffffffff80214054:	00000013          	nop
ffffffff80214058:	00000013          	nop
ffffffff8021405c:	00000013          	nop
ffffffff80214060:	00000013          	nop
ffffffff80214064:	00000013          	nop
ffffffff80214068:	00000013          	nop
ffffffff8021406c:	00000013          	nop
ffffffff80214070:	00000013          	nop
ffffffff80214074:	00000013          	nop
ffffffff80214078:	00000013          	nop
ffffffff8021407c:	00000013          	nop
ffffffff80214080:	00000013          	nop
ffffffff80214084:	00000013          	nop
ffffffff80214088:	00000013          	nop
ffffffff8021408c:	00000013          	nop
ffffffff80214090:	00000013          	nop
ffffffff80214094:	00000013          	nop
ffffffff80214098:	00000013          	nop
ffffffff8021409c:	00000013          	nop
ffffffff802140a0:	00000013          	nop
ffffffff802140a4:	00000013          	nop
ffffffff802140a8:	00000013          	nop
ffffffff802140ac:	00000013          	nop
ffffffff802140b0:	00000013          	nop
ffffffff802140b4:	00000013          	nop
ffffffff802140b8:	00000013          	nop
ffffffff802140bc:	00000013          	nop
ffffffff802140c0:	00000013          	nop
ffffffff802140c4:	00000013          	nop
ffffffff802140c8:	00000013          	nop
ffffffff802140cc:	00000013          	nop
ffffffff802140d0:	00000013          	nop
ffffffff802140d4:	00000013          	nop
ffffffff802140d8:	00000013          	nop
ffffffff802140dc:	00000013          	nop
ffffffff802140e0:	00000013          	nop
ffffffff802140e4:	00000013          	nop
ffffffff802140e8:	00000013          	nop
ffffffff802140ec:	00000013          	nop
ffffffff802140f0:	00000013          	nop
ffffffff802140f4:	00000013          	nop
ffffffff802140f8:	00000013          	nop
ffffffff802140fc:	00000013          	nop
ffffffff80214100:	00000013          	nop
ffffffff80214104:	00000013          	nop
ffffffff80214108:	00000013          	nop
ffffffff8021410c:	00000013          	nop
ffffffff80214110:	00000013          	nop
ffffffff80214114:	00000013          	nop
ffffffff80214118:	00000013          	nop
ffffffff8021411c:	00000013          	nop
ffffffff80214120:	00000013          	nop
ffffffff80214124:	00000013          	nop
ffffffff80214128:	00000013          	nop
ffffffff8021412c:	00000013          	nop
ffffffff80214130:	00000013          	nop
ffffffff80214134:	00000013          	nop
ffffffff80214138:	00000013          	nop
ffffffff8021413c:	00000013          	nop
ffffffff80214140:	00000013          	nop
ffffffff80214144:	00000013          	nop
ffffffff80214148:	00000013          	nop
ffffffff8021414c:	00000013          	nop
ffffffff80214150:	00000013          	nop
ffffffff80214154:	00000013          	nop
ffffffff80214158:	00000013          	nop
ffffffff8021415c:	00000013          	nop
ffffffff80214160:	00000013          	nop
ffffffff80214164:	00000013          	nop
ffffffff80214168:	00000013          	nop
ffffffff8021416c:	00000013          	nop
ffffffff80214170:	00000013          	nop
ffffffff80214174:	00000013          	nop
ffffffff80214178:	00000013          	nop
ffffffff8021417c:	00000013          	nop
ffffffff80214180:	00000013          	nop
ffffffff80214184:	00000013          	nop
ffffffff80214188:	00000013          	nop
ffffffff8021418c:	00000013          	nop
ffffffff80214190:	00000013          	nop
ffffffff80214194:	00000013          	nop
ffffffff80214198:	00000013          	nop
ffffffff8021419c:	00000013          	nop
ffffffff802141a0:	00000013          	nop
ffffffff802141a4:	00000013          	nop
ffffffff802141a8:	00000013          	nop
ffffffff802141ac:	00000013          	nop
ffffffff802141b0:	00000013          	nop
ffffffff802141b4:	00000013          	nop
ffffffff802141b8:	00000013          	nop
ffffffff802141bc:	00000013          	nop
ffffffff802141c0:	00000013          	nop
ffffffff802141c4:	00000013          	nop
ffffffff802141c8:	00000013          	nop
ffffffff802141cc:	00000013          	nop
ffffffff802141d0:	00000013          	nop
ffffffff802141d4:	00000013          	nop
ffffffff802141d8:	00000013          	nop
ffffffff802141dc:	00000013          	nop
ffffffff802141e0:	00000013          	nop
ffffffff802141e4:	00000013          	nop
ffffffff802141e8:	00000013          	nop
ffffffff802141ec:	00000013          	nop
ffffffff802141f0:	00000013          	nop
ffffffff802141f4:	00000013          	nop
ffffffff802141f8:	00000013          	nop
ffffffff802141fc:	00000013          	nop
ffffffff80214200:	00000013          	nop
ffffffff80214204:	00000013          	nop
ffffffff80214208:	00000013          	nop
ffffffff8021420c:	00000013          	nop
ffffffff80214210:	00000013          	nop
ffffffff80214214:	00000013          	nop
ffffffff80214218:	00000013          	nop
ffffffff8021421c:	00000013          	nop
ffffffff80214220:	00000013          	nop
ffffffff80214224:	00000013          	nop
ffffffff80214228:	00000013          	nop
ffffffff8021422c:	00000013          	nop
ffffffff80214230:	00000013          	nop
ffffffff80214234:	00000013          	nop
ffffffff80214238:	00000013          	nop
ffffffff8021423c:	00000013          	nop
ffffffff80214240:	00000013          	nop
ffffffff80214244:	00000013          	nop
ffffffff80214248:	00000013          	nop
ffffffff8021424c:	00000013          	nop
ffffffff80214250:	00000013          	nop
ffffffff80214254:	00000013          	nop
ffffffff80214258:	00000013          	nop
ffffffff8021425c:	00000013          	nop
ffffffff80214260:	00000013          	nop
ffffffff80214264:	00000013          	nop
ffffffff80214268:	00000013          	nop
ffffffff8021426c:	00000013          	nop
ffffffff80214270:	00000013          	nop
ffffffff80214274:	00000013          	nop
ffffffff80214278:	00000013          	nop
ffffffff8021427c:	00000013          	nop
ffffffff80214280:	00000013          	nop
ffffffff80214284:	00000013          	nop
ffffffff80214288:	00000013          	nop
ffffffff8021428c:	00000013          	nop
ffffffff80214290:	00000013          	nop
ffffffff80214294:	00000013          	nop
ffffffff80214298:	00000013          	nop
ffffffff8021429c:	00000013          	nop
ffffffff802142a0:	00000013          	nop
ffffffff802142a4:	00000013          	nop
ffffffff802142a8:	00000013          	nop
ffffffff802142ac:	00000013          	nop
ffffffff802142b0:	00000013          	nop
ffffffff802142b4:	00000013          	nop
ffffffff802142b8:	00000013          	nop
ffffffff802142bc:	00000013          	nop
ffffffff802142c0:	00000013          	nop
ffffffff802142c4:	00000013          	nop
ffffffff802142c8:	00000013          	nop
ffffffff802142cc:	00000013          	nop
ffffffff802142d0:	00000013          	nop
ffffffff802142d4:	00000013          	nop
ffffffff802142d8:	00000013          	nop
ffffffff802142dc:	00000013          	nop
ffffffff802142e0:	00000013          	nop
ffffffff802142e4:	00000013          	nop
ffffffff802142e8:	00000013          	nop
ffffffff802142ec:	00000013          	nop
ffffffff802142f0:	00000013          	nop
ffffffff802142f4:	00000013          	nop
ffffffff802142f8:	00000013          	nop
ffffffff802142fc:	00000013          	nop
ffffffff80214300:	00000013          	nop
ffffffff80214304:	00000013          	nop
ffffffff80214308:	00000013          	nop
ffffffff8021430c:	00000013          	nop
ffffffff80214310:	00000013          	nop
ffffffff80214314:	00000013          	nop
ffffffff80214318:	00000013          	nop
ffffffff8021431c:	00000013          	nop
ffffffff80214320:	00000013          	nop
ffffffff80214324:	00000013          	nop
ffffffff80214328:	00000013          	nop
ffffffff8021432c:	00000013          	nop
ffffffff80214330:	00000013          	nop
ffffffff80214334:	00000013          	nop
ffffffff80214338:	00000013          	nop
ffffffff8021433c:	00000013          	nop
ffffffff80214340:	00000013          	nop
ffffffff80214344:	00000013          	nop
ffffffff80214348:	00000013          	nop
ffffffff8021434c:	00000013          	nop
ffffffff80214350:	00000013          	nop
ffffffff80214354:	00000013          	nop
ffffffff80214358:	00000013          	nop
ffffffff8021435c:	00000013          	nop
ffffffff80214360:	00000013          	nop
ffffffff80214364:	00000013          	nop
ffffffff80214368:	00000013          	nop
ffffffff8021436c:	00000013          	nop
ffffffff80214370:	00000013          	nop
ffffffff80214374:	00000013          	nop
ffffffff80214378:	00000013          	nop
ffffffff8021437c:	00000013          	nop
ffffffff80214380:	00000013          	nop
ffffffff80214384:	00000013          	nop
ffffffff80214388:	00000013          	nop
ffffffff8021438c:	00000013          	nop
ffffffff80214390:	00000013          	nop
ffffffff80214394:	00000013          	nop
ffffffff80214398:	00000013          	nop
ffffffff8021439c:	00000013          	nop
ffffffff802143a0:	00000013          	nop
ffffffff802143a4:	00000013          	nop
ffffffff802143a8:	00000013          	nop
ffffffff802143ac:	00000013          	nop
ffffffff802143b0:	00000013          	nop
ffffffff802143b4:	00000013          	nop
ffffffff802143b8:	00000013          	nop
ffffffff802143bc:	00000013          	nop
ffffffff802143c0:	00000013          	nop
ffffffff802143c4:	00000013          	nop
ffffffff802143c8:	00000013          	nop
ffffffff802143cc:	00000013          	nop
ffffffff802143d0:	00000013          	nop
ffffffff802143d4:	00000013          	nop
ffffffff802143d8:	00000013          	nop
ffffffff802143dc:	00000013          	nop
ffffffff802143e0:	00000013          	nop
ffffffff802143e4:	00000013          	nop
ffffffff802143e8:	00000013          	nop
ffffffff802143ec:	00000013          	nop
ffffffff802143f0:	00000013          	nop
ffffffff802143f4:	00000013          	nop
ffffffff802143f8:	00000013          	nop
ffffffff802143fc:	00000013          	nop
ffffffff80214400:	00000013          	nop
ffffffff80214404:	00000013          	nop
ffffffff80214408:	00000013          	nop
ffffffff8021440c:	00000013          	nop
ffffffff80214410:	00000013          	nop
ffffffff80214414:	00000013          	nop
ffffffff80214418:	00000013          	nop
ffffffff8021441c:	00000013          	nop
ffffffff80214420:	00000013          	nop
ffffffff80214424:	00000013          	nop
ffffffff80214428:	00000013          	nop
ffffffff8021442c:	00000013          	nop
ffffffff80214430:	00000013          	nop
ffffffff80214434:	00000013          	nop
ffffffff80214438:	00000013          	nop
ffffffff8021443c:	00000013          	nop
ffffffff80214440:	00000013          	nop
ffffffff80214444:	00000013          	nop
ffffffff80214448:	00000013          	nop
ffffffff8021444c:	00000013          	nop
ffffffff80214450:	00000013          	nop
ffffffff80214454:	00000013          	nop
ffffffff80214458:	00000013          	nop
ffffffff8021445c:	00000013          	nop
ffffffff80214460:	00000013          	nop
ffffffff80214464:	00000013          	nop
ffffffff80214468:	00000013          	nop
ffffffff8021446c:	00000013          	nop
ffffffff80214470:	00000013          	nop
ffffffff80214474:	00000013          	nop
ffffffff80214478:	00000013          	nop
ffffffff8021447c:	00000013          	nop
ffffffff80214480:	00000013          	nop
ffffffff80214484:	00000013          	nop
ffffffff80214488:	00000013          	nop
ffffffff8021448c:	00000013          	nop
ffffffff80214490:	00000013          	nop
ffffffff80214494:	00000013          	nop
ffffffff80214498:	00000013          	nop
ffffffff8021449c:	00000013          	nop
ffffffff802144a0:	00000013          	nop
ffffffff802144a4:	00000013          	nop
ffffffff802144a8:	00000013          	nop
ffffffff802144ac:	00000013          	nop
ffffffff802144b0:	00000013          	nop
ffffffff802144b4:	00000013          	nop
ffffffff802144b8:	00000013          	nop
ffffffff802144bc:	00000013          	nop
ffffffff802144c0:	00000013          	nop
ffffffff802144c4:	00000013          	nop
ffffffff802144c8:	00000013          	nop
ffffffff802144cc:	00000013          	nop
ffffffff802144d0:	00000013          	nop
ffffffff802144d4:	00000013          	nop
ffffffff802144d8:	00000013          	nop
ffffffff802144dc:	00000013          	nop
ffffffff802144e0:	00000013          	nop
ffffffff802144e4:	00000013          	nop
ffffffff802144e8:	00000013          	nop
ffffffff802144ec:	00000013          	nop
ffffffff802144f0:	00000013          	nop
ffffffff802144f4:	00000013          	nop
ffffffff802144f8:	00000013          	nop
ffffffff802144fc:	00000013          	nop
ffffffff80214500:	00000013          	nop
ffffffff80214504:	00000013          	nop
ffffffff80214508:	00000013          	nop
ffffffff8021450c:	00000013          	nop
ffffffff80214510:	00000013          	nop
ffffffff80214514:	00000013          	nop
ffffffff80214518:	00000013          	nop
ffffffff8021451c:	00000013          	nop
ffffffff80214520:	00000013          	nop
ffffffff80214524:	00000013          	nop
ffffffff80214528:	00000013          	nop
ffffffff8021452c:	00000013          	nop
ffffffff80214530:	00000013          	nop
ffffffff80214534:	00000013          	nop
ffffffff80214538:	00000013          	nop
ffffffff8021453c:	00000013          	nop
ffffffff80214540:	00000013          	nop
ffffffff80214544:	00000013          	nop
ffffffff80214548:	00000013          	nop
ffffffff8021454c:	00000013          	nop
ffffffff80214550:	00000013          	nop
ffffffff80214554:	00000013          	nop
ffffffff80214558:	00000013          	nop
ffffffff8021455c:	00000013          	nop
ffffffff80214560:	00000013          	nop
ffffffff80214564:	00000013          	nop
ffffffff80214568:	00000013          	nop
ffffffff8021456c:	00000013          	nop
ffffffff80214570:	00000013          	nop
ffffffff80214574:	00000013          	nop
ffffffff80214578:	00000013          	nop
ffffffff8021457c:	00000013          	nop
ffffffff80214580:	00000013          	nop
ffffffff80214584:	00000013          	nop
ffffffff80214588:	00000013          	nop
ffffffff8021458c:	00000013          	nop
ffffffff80214590:	00000013          	nop
ffffffff80214594:	00000013          	nop
ffffffff80214598:	00000013          	nop
ffffffff8021459c:	00000013          	nop
ffffffff802145a0:	00000013          	nop
ffffffff802145a4:	00000013          	nop
ffffffff802145a8:	00000013          	nop
ffffffff802145ac:	00000013          	nop
ffffffff802145b0:	00000013          	nop
ffffffff802145b4:	00000013          	nop
ffffffff802145b8:	00000013          	nop
ffffffff802145bc:	00000013          	nop
ffffffff802145c0:	00000013          	nop
ffffffff802145c4:	00000013          	nop
ffffffff802145c8:	00000013          	nop
ffffffff802145cc:	00000013          	nop
ffffffff802145d0:	00000013          	nop
ffffffff802145d4:	00000013          	nop
ffffffff802145d8:	00000013          	nop
ffffffff802145dc:	00000013          	nop
ffffffff802145e0:	00000013          	nop
ffffffff802145e4:	00000013          	nop
ffffffff802145e8:	00000013          	nop
ffffffff802145ec:	00000013          	nop
ffffffff802145f0:	00000013          	nop
ffffffff802145f4:	00000013          	nop
ffffffff802145f8:	00000013          	nop
ffffffff802145fc:	00000013          	nop
ffffffff80214600:	00000013          	nop
ffffffff80214604:	00000013          	nop
ffffffff80214608:	00000013          	nop
ffffffff8021460c:	00000013          	nop
ffffffff80214610:	00000013          	nop
ffffffff80214614:	00000013          	nop
ffffffff80214618:	00000013          	nop
ffffffff8021461c:	00000013          	nop
ffffffff80214620:	00000013          	nop
ffffffff80214624:	00000013          	nop
ffffffff80214628:	00000013          	nop
ffffffff8021462c:	00000013          	nop
ffffffff80214630:	00000013          	nop
ffffffff80214634:	00000013          	nop
ffffffff80214638:	00000013          	nop
ffffffff8021463c:	00000013          	nop
ffffffff80214640:	00000013          	nop
ffffffff80214644:	00000013          	nop
ffffffff80214648:	00000013          	nop
ffffffff8021464c:	00000013          	nop
ffffffff80214650:	00000013          	nop
ffffffff80214654:	00000013          	nop
ffffffff80214658:	00000013          	nop
ffffffff8021465c:	00000013          	nop
ffffffff80214660:	00000013          	nop
ffffffff80214664:	00000013          	nop
ffffffff80214668:	00000013          	nop
ffffffff8021466c:	00000013          	nop
ffffffff80214670:	00000013          	nop
ffffffff80214674:	00000013          	nop
ffffffff80214678:	00000013          	nop
ffffffff8021467c:	00000013          	nop
ffffffff80214680:	00000013          	nop
ffffffff80214684:	00000013          	nop
ffffffff80214688:	00000013          	nop
ffffffff8021468c:	00000013          	nop
ffffffff80214690:	00000013          	nop
ffffffff80214694:	00000013          	nop
ffffffff80214698:	00000013          	nop
ffffffff8021469c:	00000013          	nop
ffffffff802146a0:	00000013          	nop
ffffffff802146a4:	00000013          	nop
ffffffff802146a8:	00000013          	nop
ffffffff802146ac:	00000013          	nop
ffffffff802146b0:	00000013          	nop
ffffffff802146b4:	00000013          	nop
ffffffff802146b8:	00000013          	nop
ffffffff802146bc:	00000013          	nop
ffffffff802146c0:	00000013          	nop
ffffffff802146c4:	00000013          	nop
ffffffff802146c8:	00000013          	nop
ffffffff802146cc:	00000013          	nop
ffffffff802146d0:	00000013          	nop
ffffffff802146d4:	00000013          	nop
ffffffff802146d8:	00000013          	nop
ffffffff802146dc:	00000013          	nop
ffffffff802146e0:	00000013          	nop
ffffffff802146e4:	00000013          	nop
ffffffff802146e8:	00000013          	nop
ffffffff802146ec:	00000013          	nop
ffffffff802146f0:	00000013          	nop
ffffffff802146f4:	00000013          	nop
ffffffff802146f8:	00000013          	nop
ffffffff802146fc:	00000013          	nop
ffffffff80214700:	00000013          	nop
ffffffff80214704:	00000013          	nop
ffffffff80214708:	00000013          	nop
ffffffff8021470c:	00000013          	nop
ffffffff80214710:	00000013          	nop
ffffffff80214714:	00000013          	nop
ffffffff80214718:	00000013          	nop
ffffffff8021471c:	00000013          	nop
ffffffff80214720:	00000013          	nop
ffffffff80214724:	00000013          	nop
ffffffff80214728:	00000013          	nop
ffffffff8021472c:	00000013          	nop
ffffffff80214730:	00000013          	nop
ffffffff80214734:	00000013          	nop
ffffffff80214738:	00000013          	nop
ffffffff8021473c:	00000013          	nop
ffffffff80214740:	00000013          	nop
ffffffff80214744:	00000013          	nop
ffffffff80214748:	00000013          	nop
ffffffff8021474c:	00000013          	nop
ffffffff80214750:	00000013          	nop
ffffffff80214754:	00000013          	nop
ffffffff80214758:	00000013          	nop
ffffffff8021475c:	00000013          	nop
ffffffff80214760:	00000013          	nop
ffffffff80214764:	00000013          	nop
ffffffff80214768:	00000013          	nop
ffffffff8021476c:	00000013          	nop
ffffffff80214770:	00000013          	nop
ffffffff80214774:	00000013          	nop
ffffffff80214778:	00000013          	nop
ffffffff8021477c:	00000013          	nop
ffffffff80214780:	00000013          	nop
ffffffff80214784:	00000013          	nop
ffffffff80214788:	00000013          	nop
ffffffff8021478c:	00000013          	nop
ffffffff80214790:	00000013          	nop
ffffffff80214794:	00000013          	nop
ffffffff80214798:	00000013          	nop
ffffffff8021479c:	00000013          	nop
ffffffff802147a0:	00000013          	nop
ffffffff802147a4:	00000013          	nop
ffffffff802147a8:	00000013          	nop
ffffffff802147ac:	00000013          	nop
ffffffff802147b0:	00000013          	nop
ffffffff802147b4:	00000013          	nop
ffffffff802147b8:	00000013          	nop
ffffffff802147bc:	00000013          	nop
ffffffff802147c0:	00000013          	nop
ffffffff802147c4:	00000013          	nop
ffffffff802147c8:	00000013          	nop
ffffffff802147cc:	00000013          	nop
ffffffff802147d0:	00000013          	nop
ffffffff802147d4:	00000013          	nop
ffffffff802147d8:	00000013          	nop
ffffffff802147dc:	00000013          	nop
ffffffff802147e0:	00000013          	nop
ffffffff802147e4:	00000013          	nop
ffffffff802147e8:	00000013          	nop
ffffffff802147ec:	00000013          	nop
ffffffff802147f0:	00000013          	nop
ffffffff802147f4:	00000013          	nop
ffffffff802147f8:	00000013          	nop
ffffffff802147fc:	00000013          	nop
ffffffff80214800:	00000013          	nop
ffffffff80214804:	00000013          	nop
ffffffff80214808:	00000013          	nop
ffffffff8021480c:	00000013          	nop
ffffffff80214810:	00000013          	nop
ffffffff80214814:	00000013          	nop
ffffffff80214818:	00000013          	nop
ffffffff8021481c:	00000013          	nop
ffffffff80214820:	00000013          	nop
ffffffff80214824:	00000013          	nop
ffffffff80214828:	00000013          	nop
ffffffff8021482c:	00000013          	nop
ffffffff80214830:	00000013          	nop
ffffffff80214834:	00000013          	nop
ffffffff80214838:	00000013          	nop
ffffffff8021483c:	00000013          	nop
ffffffff80214840:	00000013          	nop
ffffffff80214844:	00000013          	nop
ffffffff80214848:	00000013          	nop
ffffffff8021484c:	00000013          	nop
ffffffff80214850:	00000013          	nop
ffffffff80214854:	00000013          	nop
ffffffff80214858:	00000013          	nop
ffffffff8021485c:	00000013          	nop
ffffffff80214860:	00000013          	nop
ffffffff80214864:	00000013          	nop
ffffffff80214868:	00000013          	nop
ffffffff8021486c:	00000013          	nop
ffffffff80214870:	00000013          	nop
ffffffff80214874:	00000013          	nop
ffffffff80214878:	00000013          	nop
ffffffff8021487c:	00000013          	nop
ffffffff80214880:	00000013          	nop
ffffffff80214884:	00000013          	nop
ffffffff80214888:	00000013          	nop
ffffffff8021488c:	00000013          	nop
ffffffff80214890:	00000013          	nop
ffffffff80214894:	00000013          	nop
ffffffff80214898:	00000013          	nop
ffffffff8021489c:	00000013          	nop
ffffffff802148a0:	00000013          	nop
ffffffff802148a4:	00000013          	nop
ffffffff802148a8:	00000013          	nop
ffffffff802148ac:	00000013          	nop
ffffffff802148b0:	00000013          	nop
ffffffff802148b4:	00000013          	nop
ffffffff802148b8:	00000013          	nop
ffffffff802148bc:	00000013          	nop
ffffffff802148c0:	00000013          	nop
ffffffff802148c4:	00000013          	nop
ffffffff802148c8:	00000013          	nop
ffffffff802148cc:	00000013          	nop
ffffffff802148d0:	00000013          	nop
ffffffff802148d4:	00000013          	nop
ffffffff802148d8:	00000013          	nop
ffffffff802148dc:	00000013          	nop
ffffffff802148e0:	00000013          	nop
ffffffff802148e4:	00000013          	nop
ffffffff802148e8:	00000013          	nop
ffffffff802148ec:	00000013          	nop
ffffffff802148f0:	00000013          	nop
ffffffff802148f4:	00000013          	nop
ffffffff802148f8:	00000013          	nop
ffffffff802148fc:	00000013          	nop
ffffffff80214900:	00000013          	nop
ffffffff80214904:	00000013          	nop
ffffffff80214908:	00000013          	nop
ffffffff8021490c:	00000013          	nop
ffffffff80214910:	00000013          	nop
ffffffff80214914:	00000013          	nop
ffffffff80214918:	00000013          	nop
ffffffff8021491c:	00000013          	nop
ffffffff80214920:	00000013          	nop
ffffffff80214924:	00000013          	nop
ffffffff80214928:	00000013          	nop
ffffffff8021492c:	00000013          	nop
ffffffff80214930:	00000013          	nop
ffffffff80214934:	00000013          	nop
ffffffff80214938:	00000013          	nop
ffffffff8021493c:	00000013          	nop
ffffffff80214940:	00000013          	nop
ffffffff80214944:	00000013          	nop
ffffffff80214948:	00000013          	nop
ffffffff8021494c:	00000013          	nop
ffffffff80214950:	00000013          	nop
ffffffff80214954:	00000013          	nop
ffffffff80214958:	00000013          	nop
ffffffff8021495c:	00000013          	nop
ffffffff80214960:	00000013          	nop
ffffffff80214964:	00000013          	nop
ffffffff80214968:	00000013          	nop
ffffffff8021496c:	00000013          	nop
ffffffff80214970:	00000013          	nop
ffffffff80214974:	00000013          	nop
ffffffff80214978:	00000013          	nop
ffffffff8021497c:	00000013          	nop
ffffffff80214980:	00000013          	nop
ffffffff80214984:	00000013          	nop
ffffffff80214988:	00000013          	nop
ffffffff8021498c:	00000013          	nop
ffffffff80214990:	00000013          	nop
ffffffff80214994:	00000013          	nop
ffffffff80214998:	00000013          	nop
ffffffff8021499c:	00000013          	nop
ffffffff802149a0:	00000013          	nop
ffffffff802149a4:	00000013          	nop
ffffffff802149a8:	00000013          	nop
ffffffff802149ac:	00000013          	nop
ffffffff802149b0:	00000013          	nop
ffffffff802149b4:	00000013          	nop
ffffffff802149b8:	00000013          	nop
ffffffff802149bc:	00000013          	nop
ffffffff802149c0:	00000013          	nop
ffffffff802149c4:	00000013          	nop
ffffffff802149c8:	00000013          	nop
ffffffff802149cc:	00000013          	nop
ffffffff802149d0:	00000013          	nop
ffffffff802149d4:	00000013          	nop
ffffffff802149d8:	00000013          	nop
ffffffff802149dc:	00000013          	nop
ffffffff802149e0:	00000013          	nop
ffffffff802149e4:	00000013          	nop
ffffffff802149e8:	00000013          	nop
ffffffff802149ec:	00000013          	nop
ffffffff802149f0:	00000013          	nop
ffffffff802149f4:	00000013          	nop
ffffffff802149f8:	00000013          	nop
ffffffff802149fc:	00000013          	nop
ffffffff80214a00:	00000013          	nop
ffffffff80214a04:	00000013          	nop
ffffffff80214a08:	00000013          	nop
ffffffff80214a0c:	00000013          	nop
ffffffff80214a10:	00000013          	nop
ffffffff80214a14:	00000013          	nop
ffffffff80214a18:	00000013          	nop
ffffffff80214a1c:	00000013          	nop
ffffffff80214a20:	00000013          	nop
ffffffff80214a24:	00000013          	nop
ffffffff80214a28:	00000013          	nop
ffffffff80214a2c:	00000013          	nop
ffffffff80214a30:	00000013          	nop
ffffffff80214a34:	00000013          	nop
ffffffff80214a38:	00000013          	nop
ffffffff80214a3c:	00000013          	nop
ffffffff80214a40:	00000013          	nop
ffffffff80214a44:	00000013          	nop
ffffffff80214a48:	00000013          	nop
ffffffff80214a4c:	00000013          	nop
ffffffff80214a50:	00000013          	nop
ffffffff80214a54:	00000013          	nop
ffffffff80214a58:	00000013          	nop
ffffffff80214a5c:	00000013          	nop
ffffffff80214a60:	00000013          	nop
ffffffff80214a64:	00000013          	nop
ffffffff80214a68:	00000013          	nop
ffffffff80214a6c:	00000013          	nop
ffffffff80214a70:	00000013          	nop
ffffffff80214a74:	00000013          	nop
ffffffff80214a78:	00000013          	nop
ffffffff80214a7c:	00000013          	nop
ffffffff80214a80:	00000013          	nop
ffffffff80214a84:	00000013          	nop
ffffffff80214a88:	00000013          	nop
ffffffff80214a8c:	00000013          	nop
ffffffff80214a90:	00000013          	nop
ffffffff80214a94:	00000013          	nop
ffffffff80214a98:	00000013          	nop
ffffffff80214a9c:	00000013          	nop
ffffffff80214aa0:	00000013          	nop
ffffffff80214aa4:	00000013          	nop
ffffffff80214aa8:	00000013          	nop
ffffffff80214aac:	00000013          	nop
ffffffff80214ab0:	00000013          	nop
ffffffff80214ab4:	00000013          	nop
ffffffff80214ab8:	00000013          	nop
ffffffff80214abc:	00000013          	nop
ffffffff80214ac0:	00000013          	nop
ffffffff80214ac4:	00000013          	nop
ffffffff80214ac8:	00000013          	nop
ffffffff80214acc:	00000013          	nop
ffffffff80214ad0:	00000013          	nop
ffffffff80214ad4:	00000013          	nop
ffffffff80214ad8:	00000013          	nop
ffffffff80214adc:	00000013          	nop
ffffffff80214ae0:	00000013          	nop
ffffffff80214ae4:	00000013          	nop
ffffffff80214ae8:	00000013          	nop
ffffffff80214aec:	00000013          	nop
ffffffff80214af0:	00000013          	nop
ffffffff80214af4:	00000013          	nop
ffffffff80214af8:	00000013          	nop
ffffffff80214afc:	00000013          	nop
ffffffff80214b00:	00000013          	nop
ffffffff80214b04:	00000013          	nop
ffffffff80214b08:	00000013          	nop
ffffffff80214b0c:	00000013          	nop
ffffffff80214b10:	00000013          	nop
ffffffff80214b14:	00000013          	nop
ffffffff80214b18:	00000013          	nop
ffffffff80214b1c:	00000013          	nop
ffffffff80214b20:	00000013          	nop
ffffffff80214b24:	00000013          	nop
ffffffff80214b28:	00000013          	nop
ffffffff80214b2c:	00000013          	nop
ffffffff80214b30:	00000013          	nop
ffffffff80214b34:	00000013          	nop
ffffffff80214b38:	00000013          	nop
ffffffff80214b3c:	00000013          	nop
ffffffff80214b40:	00000013          	nop
ffffffff80214b44:	00000013          	nop
ffffffff80214b48:	00000013          	nop
ffffffff80214b4c:	00000013          	nop
ffffffff80214b50:	00000013          	nop
ffffffff80214b54:	00000013          	nop
ffffffff80214b58:	00000013          	nop
ffffffff80214b5c:	00000013          	nop
ffffffff80214b60:	00000013          	nop
ffffffff80214b64:	00000013          	nop
ffffffff80214b68:	00000013          	nop
ffffffff80214b6c:	00000013          	nop
ffffffff80214b70:	00000013          	nop
ffffffff80214b74:	00000013          	nop
ffffffff80214b78:	00000013          	nop
ffffffff80214b7c:	00000013          	nop
ffffffff80214b80:	00000013          	nop
ffffffff80214b84:	00000013          	nop
ffffffff80214b88:	00000013          	nop
ffffffff80214b8c:	00000013          	nop
ffffffff80214b90:	00000013          	nop
ffffffff80214b94:	00000013          	nop
ffffffff80214b98:	00000013          	nop
ffffffff80214b9c:	00000013          	nop
ffffffff80214ba0:	00000013          	nop
ffffffff80214ba4:	00000013          	nop
ffffffff80214ba8:	00000013          	nop
ffffffff80214bac:	00000013          	nop
ffffffff80214bb0:	00000013          	nop
ffffffff80214bb4:	00000013          	nop
ffffffff80214bb8:	00000013          	nop
ffffffff80214bbc:	00000013          	nop
ffffffff80214bc0:	00000013          	nop
ffffffff80214bc4:	00000013          	nop
ffffffff80214bc8:	00000013          	nop
ffffffff80214bcc:	00000013          	nop
ffffffff80214bd0:	00000013          	nop
ffffffff80214bd4:	00000013          	nop
ffffffff80214bd8:	00000013          	nop
ffffffff80214bdc:	00000013          	nop
ffffffff80214be0:	00000013          	nop
ffffffff80214be4:	00000013          	nop
ffffffff80214be8:	00000013          	nop
ffffffff80214bec:	00000013          	nop
ffffffff80214bf0:	00000013          	nop
ffffffff80214bf4:	00000013          	nop
ffffffff80214bf8:	00000013          	nop
ffffffff80214bfc:	00000013          	nop
ffffffff80214c00:	00000013          	nop
ffffffff80214c04:	00000013          	nop
ffffffff80214c08:	00000013          	nop
ffffffff80214c0c:	00000013          	nop
ffffffff80214c10:	00000013          	nop
ffffffff80214c14:	00000013          	nop
ffffffff80214c18:	00000013          	nop
ffffffff80214c1c:	00000013          	nop
ffffffff80214c20:	00000013          	nop
ffffffff80214c24:	00000013          	nop
ffffffff80214c28:	00000013          	nop
ffffffff80214c2c:	00000013          	nop
ffffffff80214c30:	00000013          	nop
ffffffff80214c34:	00000013          	nop
ffffffff80214c38:	00000013          	nop
ffffffff80214c3c:	00000013          	nop
ffffffff80214c40:	00000013          	nop
ffffffff80214c44:	00000013          	nop
ffffffff80214c48:	00000013          	nop
ffffffff80214c4c:	00000013          	nop
ffffffff80214c50:	00000013          	nop
ffffffff80214c54:	00000013          	nop
ffffffff80214c58:	00000013          	nop
ffffffff80214c5c:	00000013          	nop
ffffffff80214c60:	00000013          	nop
ffffffff80214c64:	00000013          	nop
ffffffff80214c68:	00000013          	nop
ffffffff80214c6c:	00000013          	nop
ffffffff80214c70:	00000013          	nop
ffffffff80214c74:	00000013          	nop
ffffffff80214c78:	00000013          	nop
ffffffff80214c7c:	00000013          	nop
ffffffff80214c80:	00000013          	nop
ffffffff80214c84:	00000013          	nop
ffffffff80214c88:	00000013          	nop
ffffffff80214c8c:	00000013          	nop
ffffffff80214c90:	00000013          	nop
ffffffff80214c94:	00000013          	nop
ffffffff80214c98:	00000013          	nop
ffffffff80214c9c:	00000013          	nop
ffffffff80214ca0:	00000013          	nop
ffffffff80214ca4:	00000013          	nop
ffffffff80214ca8:	00000013          	nop
ffffffff80214cac:	00000013          	nop
ffffffff80214cb0:	00000013          	nop
ffffffff80214cb4:	00000013          	nop
ffffffff80214cb8:	00000013          	nop
ffffffff80214cbc:	00000013          	nop
ffffffff80214cc0:	00000013          	nop
ffffffff80214cc4:	00000013          	nop
ffffffff80214cc8:	00000013          	nop
ffffffff80214ccc:	00000013          	nop
ffffffff80214cd0:	00000013          	nop
ffffffff80214cd4:	00000013          	nop
ffffffff80214cd8:	00000013          	nop
ffffffff80214cdc:	00000013          	nop
ffffffff80214ce0:	00000013          	nop
ffffffff80214ce4:	00000013          	nop
ffffffff80214ce8:	00000013          	nop
ffffffff80214cec:	00000013          	nop
ffffffff80214cf0:	00000013          	nop
ffffffff80214cf4:	00000013          	nop
ffffffff80214cf8:	00000013          	nop
ffffffff80214cfc:	00000013          	nop
ffffffff80214d00:	00000013          	nop
ffffffff80214d04:	00000013          	nop
ffffffff80214d08:	00000013          	nop
ffffffff80214d0c:	00000013          	nop
ffffffff80214d10:	00000013          	nop
ffffffff80214d14:	00000013          	nop
ffffffff80214d18:	00000013          	nop
ffffffff80214d1c:	00000013          	nop
ffffffff80214d20:	00000013          	nop
ffffffff80214d24:	00000013          	nop
ffffffff80214d28:	00000013          	nop
ffffffff80214d2c:	00000013          	nop
ffffffff80214d30:	00000013          	nop
ffffffff80214d34:	00000013          	nop
ffffffff80214d38:	00000013          	nop
ffffffff80214d3c:	00000013          	nop
ffffffff80214d40:	00000013          	nop
ffffffff80214d44:	00000013          	nop
ffffffff80214d48:	00000013          	nop
ffffffff80214d4c:	00000013          	nop
ffffffff80214d50:	00000013          	nop
ffffffff80214d54:	00000013          	nop
ffffffff80214d58:	00000013          	nop
ffffffff80214d5c:	00000013          	nop
ffffffff80214d60:	00000013          	nop
ffffffff80214d64:	00000013          	nop
ffffffff80214d68:	00000013          	nop
ffffffff80214d6c:	00000013          	nop
ffffffff80214d70:	00000013          	nop
ffffffff80214d74:	00000013          	nop
ffffffff80214d78:	00000013          	nop
ffffffff80214d7c:	00000013          	nop
ffffffff80214d80:	00000013          	nop
ffffffff80214d84:	00000013          	nop
ffffffff80214d88:	00000013          	nop
ffffffff80214d8c:	00000013          	nop
ffffffff80214d90:	00000013          	nop
ffffffff80214d94:	00000013          	nop
ffffffff80214d98:	00000013          	nop
ffffffff80214d9c:	00000013          	nop
ffffffff80214da0:	00000013          	nop
ffffffff80214da4:	00000013          	nop
ffffffff80214da8:	00000013          	nop
ffffffff80214dac:	00000013          	nop
ffffffff80214db0:	00000013          	nop
ffffffff80214db4:	00000013          	nop
ffffffff80214db8:	00000013          	nop
ffffffff80214dbc:	00000013          	nop
ffffffff80214dc0:	00000013          	nop
ffffffff80214dc4:	00000013          	nop
ffffffff80214dc8:	00000013          	nop
ffffffff80214dcc:	00000013          	nop
ffffffff80214dd0:	00000013          	nop
ffffffff80214dd4:	00000013          	nop
ffffffff80214dd8:	00000013          	nop
ffffffff80214ddc:	00000013          	nop
ffffffff80214de0:	00000013          	nop
ffffffff80214de4:	00000013          	nop
ffffffff80214de8:	00000013          	nop
ffffffff80214dec:	00000013          	nop
ffffffff80214df0:	00000013          	nop
ffffffff80214df4:	00000013          	nop
ffffffff80214df8:	00000013          	nop
ffffffff80214dfc:	00000013          	nop
ffffffff80214e00:	00000013          	nop
ffffffff80214e04:	00000013          	nop
ffffffff80214e08:	00000013          	nop
ffffffff80214e0c:	00000013          	nop
ffffffff80214e10:	00000013          	nop
ffffffff80214e14:	00000013          	nop
ffffffff80214e18:	00000013          	nop
ffffffff80214e1c:	00000013          	nop
ffffffff80214e20:	00000013          	nop
ffffffff80214e24:	00000013          	nop
ffffffff80214e28:	00000013          	nop
ffffffff80214e2c:	00000013          	nop
ffffffff80214e30:	00000013          	nop
ffffffff80214e34:	00000013          	nop
ffffffff80214e38:	00000013          	nop
ffffffff80214e3c:	00000013          	nop
ffffffff80214e40:	00000013          	nop
ffffffff80214e44:	00000013          	nop
ffffffff80214e48:	00000013          	nop
ffffffff80214e4c:	00000013          	nop
ffffffff80214e50:	00000013          	nop
ffffffff80214e54:	00000013          	nop
ffffffff80214e58:	00000013          	nop
ffffffff80214e5c:	00000013          	nop
ffffffff80214e60:	00000013          	nop
ffffffff80214e64:	00000013          	nop
ffffffff80214e68:	00000013          	nop
ffffffff80214e6c:	00000013          	nop
ffffffff80214e70:	00000013          	nop
ffffffff80214e74:	00000013          	nop
ffffffff80214e78:	00000013          	nop
ffffffff80214e7c:	00000013          	nop
ffffffff80214e80:	00000013          	nop
ffffffff80214e84:	00000013          	nop
ffffffff80214e88:	00000013          	nop
ffffffff80214e8c:	00000013          	nop
ffffffff80214e90:	00000013          	nop
ffffffff80214e94:	00000013          	nop
ffffffff80214e98:	00000013          	nop
ffffffff80214e9c:	00000013          	nop
ffffffff80214ea0:	00000013          	nop
ffffffff80214ea4:	00000013          	nop
ffffffff80214ea8:	00000013          	nop
ffffffff80214eac:	00000013          	nop
ffffffff80214eb0:	00000013          	nop
ffffffff80214eb4:	00000013          	nop
ffffffff80214eb8:	00000013          	nop
ffffffff80214ebc:	00000013          	nop
ffffffff80214ec0:	00000013          	nop
ffffffff80214ec4:	00000013          	nop
ffffffff80214ec8:	00000013          	nop
ffffffff80214ecc:	00000013          	nop
ffffffff80214ed0:	00000013          	nop
ffffffff80214ed4:	00000013          	nop
ffffffff80214ed8:	00000013          	nop
ffffffff80214edc:	00000013          	nop
ffffffff80214ee0:	00000013          	nop
ffffffff80214ee4:	00000013          	nop
ffffffff80214ee8:	00000013          	nop
ffffffff80214eec:	00000013          	nop
ffffffff80214ef0:	00000013          	nop
ffffffff80214ef4:	00000013          	nop
ffffffff80214ef8:	00000013          	nop
ffffffff80214efc:	00000013          	nop
ffffffff80214f00:	00000013          	nop
ffffffff80214f04:	00000013          	nop
ffffffff80214f08:	00000013          	nop
ffffffff80214f0c:	00000013          	nop
ffffffff80214f10:	00000013          	nop
ffffffff80214f14:	00000013          	nop
ffffffff80214f18:	00000013          	nop
ffffffff80214f1c:	00000013          	nop
ffffffff80214f20:	00000013          	nop
ffffffff80214f24:	00000013          	nop
ffffffff80214f28:	00000013          	nop
ffffffff80214f2c:	00000013          	nop
ffffffff80214f30:	00000013          	nop
ffffffff80214f34:	00000013          	nop
ffffffff80214f38:	00000013          	nop
ffffffff80214f3c:	00000013          	nop
ffffffff80214f40:	00000013          	nop
ffffffff80214f44:	00000013          	nop
ffffffff80214f48:	00000013          	nop
ffffffff80214f4c:	00000013          	nop
ffffffff80214f50:	00000013          	nop
ffffffff80214f54:	00000013          	nop
ffffffff80214f58:	00000013          	nop
ffffffff80214f5c:	00000013          	nop
ffffffff80214f60:	00000013          	nop
ffffffff80214f64:	00000013          	nop
ffffffff80214f68:	00000013          	nop
ffffffff80214f6c:	00000013          	nop
ffffffff80214f70:	00000013          	nop
ffffffff80214f74:	00000013          	nop
ffffffff80214f78:	00000013          	nop
ffffffff80214f7c:	00000013          	nop
ffffffff80214f80:	00000013          	nop
ffffffff80214f84:	00000013          	nop
ffffffff80214f88:	00000013          	nop
ffffffff80214f8c:	00000013          	nop
ffffffff80214f90:	00000013          	nop
ffffffff80214f94:	00000013          	nop
ffffffff80214f98:	00000013          	nop
ffffffff80214f9c:	00000013          	nop
ffffffff80214fa0:	00000013          	nop
ffffffff80214fa4:	00000013          	nop
ffffffff80214fa8:	00000013          	nop
ffffffff80214fac:	00000013          	nop
ffffffff80214fb0:	00000013          	nop
ffffffff80214fb4:	00000013          	nop
ffffffff80214fb8:	00000013          	nop
ffffffff80214fbc:	00000013          	nop
ffffffff80214fc0:	00000013          	nop
ffffffff80214fc4:	00000013          	nop
ffffffff80214fc8:	00000013          	nop
ffffffff80214fcc:	00000013          	nop
ffffffff80214fd0:	00000013          	nop
ffffffff80214fd4:	00000013          	nop
ffffffff80214fd8:	00000013          	nop
ffffffff80214fdc:	00000013          	nop
ffffffff80214fe0:	00000013          	nop
ffffffff80214fe4:	00000013          	nop
ffffffff80214fe8:	00000013          	nop
ffffffff80214fec:	00000013          	nop
ffffffff80214ff0:	00000013          	nop
ffffffff80214ff4:	00000013          	nop
ffffffff80214ff8:	00000013          	nop
ffffffff80214ffc:	00000013          	nop
ffffffff80215000:	00000013          	nop
ffffffff80215004:	00000013          	nop
ffffffff80215008:	00000013          	nop
ffffffff8021500c:	00000013          	nop
ffffffff80215010:	00000013          	nop
ffffffff80215014:	00000013          	nop
ffffffff80215018:	00000013          	nop
ffffffff8021501c:	00000013          	nop
ffffffff80215020:	00000013          	nop
ffffffff80215024:	00000013          	nop
ffffffff80215028:	00000013          	nop
ffffffff8021502c:	00000013          	nop
ffffffff80215030:	00000013          	nop
ffffffff80215034:	00000013          	nop
ffffffff80215038:	00000013          	nop
ffffffff8021503c:	00000013          	nop
ffffffff80215040:	00000013          	nop
ffffffff80215044:	00000013          	nop
ffffffff80215048:	00000013          	nop
ffffffff8021504c:	00000013          	nop
ffffffff80215050:	00000013          	nop
ffffffff80215054:	00000013          	nop
ffffffff80215058:	00000013          	nop
ffffffff8021505c:	00000013          	nop
ffffffff80215060:	00000013          	nop
ffffffff80215064:	00000013          	nop
ffffffff80215068:	00000013          	nop
ffffffff8021506c:	00000013          	nop
ffffffff80215070:	00000013          	nop
ffffffff80215074:	00000013          	nop
ffffffff80215078:	00000013          	nop
ffffffff8021507c:	00000013          	nop
ffffffff80215080:	00000013          	nop
ffffffff80215084:	00000013          	nop
ffffffff80215088:	00000013          	nop
ffffffff8021508c:	00000013          	nop
ffffffff80215090:	00000013          	nop
ffffffff80215094:	00000013          	nop
ffffffff80215098:	00000013          	nop
ffffffff8021509c:	00000013          	nop
ffffffff802150a0:	00000013          	nop
ffffffff802150a4:	00000013          	nop
ffffffff802150a8:	00000013          	nop
ffffffff802150ac:	00000013          	nop
ffffffff802150b0:	00000013          	nop
ffffffff802150b4:	00000013          	nop
ffffffff802150b8:	00000013          	nop
ffffffff802150bc:	00000013          	nop
ffffffff802150c0:	00000013          	nop
ffffffff802150c4:	00000013          	nop
ffffffff802150c8:	00000013          	nop
ffffffff802150cc:	00000013          	nop
ffffffff802150d0:	00000013          	nop
ffffffff802150d4:	00000013          	nop
ffffffff802150d8:	00000013          	nop
ffffffff802150dc:	00000013          	nop
ffffffff802150e0:	00000013          	nop
ffffffff802150e4:	00000013          	nop
ffffffff802150e8:	00000013          	nop
ffffffff802150ec:	00000013          	nop
ffffffff802150f0:	00000013          	nop
ffffffff802150f4:	00000013          	nop
ffffffff802150f8:	00000013          	nop
ffffffff802150fc:	00000013          	nop
ffffffff80215100:	00000013          	nop
ffffffff80215104:	00000013          	nop
ffffffff80215108:	00000013          	nop
ffffffff8021510c:	00000013          	nop
ffffffff80215110:	00000013          	nop
ffffffff80215114:	00000013          	nop
ffffffff80215118:	00000013          	nop
ffffffff8021511c:	00000013          	nop
ffffffff80215120:	00000013          	nop
ffffffff80215124:	00000013          	nop
ffffffff80215128:	00000013          	nop
ffffffff8021512c:	00000013          	nop
ffffffff80215130:	00000013          	nop
ffffffff80215134:	00000013          	nop
ffffffff80215138:	00000013          	nop
ffffffff8021513c:	00000013          	nop
ffffffff80215140:	00000013          	nop
ffffffff80215144:	00000013          	nop
ffffffff80215148:	00000013          	nop
ffffffff8021514c:	00000013          	nop
ffffffff80215150:	00000013          	nop
ffffffff80215154:	00000013          	nop
ffffffff80215158:	00000013          	nop
ffffffff8021515c:	00000013          	nop
ffffffff80215160:	00000013          	nop
ffffffff80215164:	00000013          	nop
ffffffff80215168:	00000013          	nop
ffffffff8021516c:	00000013          	nop
ffffffff80215170:	00000013          	nop
ffffffff80215174:	00000013          	nop
ffffffff80215178:	00000013          	nop
ffffffff8021517c:	00000013          	nop
ffffffff80215180:	00000013          	nop
ffffffff80215184:	00000013          	nop
ffffffff80215188:	00000013          	nop
ffffffff8021518c:	00000013          	nop
ffffffff80215190:	00000013          	nop
ffffffff80215194:	00000013          	nop
ffffffff80215198:	00000013          	nop
ffffffff8021519c:	00000013          	nop
ffffffff802151a0:	00000013          	nop
ffffffff802151a4:	00000013          	nop
ffffffff802151a8:	00000013          	nop
ffffffff802151ac:	00000013          	nop
ffffffff802151b0:	00000013          	nop
ffffffff802151b4:	00000013          	nop
ffffffff802151b8:	00000013          	nop
ffffffff802151bc:	00000013          	nop
ffffffff802151c0:	00000013          	nop
ffffffff802151c4:	00000013          	nop
ffffffff802151c8:	00000013          	nop
ffffffff802151cc:	00000013          	nop
ffffffff802151d0:	00000013          	nop
ffffffff802151d4:	00000013          	nop
ffffffff802151d8:	00000013          	nop
ffffffff802151dc:	00000013          	nop
ffffffff802151e0:	00000013          	nop
ffffffff802151e4:	00000013          	nop
ffffffff802151e8:	00000013          	nop
ffffffff802151ec:	00000013          	nop
ffffffff802151f0:	00000013          	nop
ffffffff802151f4:	00000013          	nop
ffffffff802151f8:	00000013          	nop
ffffffff802151fc:	00000013          	nop
ffffffff80215200:	00000013          	nop
ffffffff80215204:	00000013          	nop
ffffffff80215208:	00000013          	nop
ffffffff8021520c:	00000013          	nop
ffffffff80215210:	00000013          	nop
ffffffff80215214:	00000013          	nop
ffffffff80215218:	00000013          	nop
ffffffff8021521c:	00000013          	nop
ffffffff80215220:	00000013          	nop
ffffffff80215224:	00000013          	nop
ffffffff80215228:	00000013          	nop
ffffffff8021522c:	00000013          	nop
ffffffff80215230:	00000013          	nop
ffffffff80215234:	00000013          	nop
ffffffff80215238:	00000013          	nop
ffffffff8021523c:	00000013          	nop
ffffffff80215240:	00000013          	nop
ffffffff80215244:	00000013          	nop
ffffffff80215248:	00000013          	nop
ffffffff8021524c:	00000013          	nop
ffffffff80215250:	00000013          	nop
ffffffff80215254:	00000013          	nop
ffffffff80215258:	00000013          	nop
ffffffff8021525c:	00000013          	nop
ffffffff80215260:	00000013          	nop
ffffffff80215264:	00000013          	nop
ffffffff80215268:	00000013          	nop
ffffffff8021526c:	00000013          	nop
ffffffff80215270:	00000013          	nop
ffffffff80215274:	00000013          	nop
ffffffff80215278:	00000013          	nop
ffffffff8021527c:	00000013          	nop
ffffffff80215280:	00000013          	nop
ffffffff80215284:	00000013          	nop
ffffffff80215288:	00000013          	nop
ffffffff8021528c:	00000013          	nop
ffffffff80215290:	00000013          	nop
ffffffff80215294:	00000013          	nop
ffffffff80215298:	00000013          	nop
ffffffff8021529c:	00000013          	nop
ffffffff802152a0:	00000013          	nop
ffffffff802152a4:	00000013          	nop
ffffffff802152a8:	00000013          	nop
ffffffff802152ac:	00000013          	nop
ffffffff802152b0:	00000013          	nop
ffffffff802152b4:	00000013          	nop
ffffffff802152b8:	00000013          	nop
ffffffff802152bc:	00000013          	nop
ffffffff802152c0:	00000013          	nop
ffffffff802152c4:	00000013          	nop
ffffffff802152c8:	00000013          	nop
ffffffff802152cc:	00000013          	nop
ffffffff802152d0:	00000013          	nop
ffffffff802152d4:	00000013          	nop
ffffffff802152d8:	00000013          	nop
ffffffff802152dc:	00000013          	nop
ffffffff802152e0:	00000013          	nop
ffffffff802152e4:	00000013          	nop
ffffffff802152e8:	00000013          	nop
ffffffff802152ec:	00000013          	nop
ffffffff802152f0:	00000013          	nop
ffffffff802152f4:	00000013          	nop
ffffffff802152f8:	00000013          	nop
ffffffff802152fc:	00000013          	nop
ffffffff80215300:	00000013          	nop
ffffffff80215304:	00000013          	nop
ffffffff80215308:	00000013          	nop
ffffffff8021530c:	00000013          	nop
ffffffff80215310:	00000013          	nop
ffffffff80215314:	00000013          	nop
ffffffff80215318:	00000013          	nop
ffffffff8021531c:	00000013          	nop
ffffffff80215320:	00000013          	nop
ffffffff80215324:	00000013          	nop
ffffffff80215328:	00000013          	nop
ffffffff8021532c:	00000013          	nop
ffffffff80215330:	00000013          	nop
ffffffff80215334:	00000013          	nop
ffffffff80215338:	00000013          	nop
ffffffff8021533c:	00000013          	nop
ffffffff80215340:	00000013          	nop
ffffffff80215344:	00000013          	nop
ffffffff80215348:	00000013          	nop
ffffffff8021534c:	00000013          	nop
ffffffff80215350:	00000013          	nop
ffffffff80215354:	00000013          	nop
ffffffff80215358:	00000013          	nop
ffffffff8021535c:	00000013          	nop
ffffffff80215360:	00000013          	nop
ffffffff80215364:	00000013          	nop
ffffffff80215368:	00000013          	nop
ffffffff8021536c:	00000013          	nop
ffffffff80215370:	00000013          	nop
ffffffff80215374:	00000013          	nop
ffffffff80215378:	00000013          	nop
ffffffff8021537c:	00000013          	nop
ffffffff80215380:	00000013          	nop
ffffffff80215384:	00000013          	nop
ffffffff80215388:	00000013          	nop
ffffffff8021538c:	00000013          	nop
ffffffff80215390:	00000013          	nop
ffffffff80215394:	00000013          	nop
ffffffff80215398:	00000013          	nop
ffffffff8021539c:	00000013          	nop
ffffffff802153a0:	00000013          	nop
ffffffff802153a4:	00000013          	nop
ffffffff802153a8:	00000013          	nop
ffffffff802153ac:	00000013          	nop
ffffffff802153b0:	00000013          	nop
ffffffff802153b4:	00000013          	nop
ffffffff802153b8:	00000013          	nop
ffffffff802153bc:	00000013          	nop
ffffffff802153c0:	00000013          	nop
ffffffff802153c4:	00000013          	nop
ffffffff802153c8:	00000013          	nop
ffffffff802153cc:	00000013          	nop
ffffffff802153d0:	00000013          	nop
ffffffff802153d4:	00000013          	nop
ffffffff802153d8:	00000013          	nop
ffffffff802153dc:	00000013          	nop
ffffffff802153e0:	00000013          	nop
ffffffff802153e4:	00000013          	nop
ffffffff802153e8:	00000013          	nop
ffffffff802153ec:	00000013          	nop
ffffffff802153f0:	00000013          	nop
ffffffff802153f4:	00000013          	nop
ffffffff802153f8:	00000013          	nop
ffffffff802153fc:	00000013          	nop
ffffffff80215400:	00000013          	nop
ffffffff80215404:	00000013          	nop
ffffffff80215408:	00000013          	nop
ffffffff8021540c:	00000013          	nop
ffffffff80215410:	00000013          	nop
ffffffff80215414:	00000013          	nop
ffffffff80215418:	00000013          	nop
ffffffff8021541c:	00000013          	nop
ffffffff80215420:	00000013          	nop
ffffffff80215424:	00000013          	nop
ffffffff80215428:	00000013          	nop
ffffffff8021542c:	00000013          	nop
ffffffff80215430:	00000013          	nop
ffffffff80215434:	00000013          	nop
ffffffff80215438:	00000013          	nop
ffffffff8021543c:	00000013          	nop
ffffffff80215440:	00000013          	nop
ffffffff80215444:	00000013          	nop
ffffffff80215448:	00000013          	nop
ffffffff8021544c:	00000013          	nop
ffffffff80215450:	00000013          	nop
ffffffff80215454:	00000013          	nop
ffffffff80215458:	00000013          	nop
ffffffff8021545c:	00000013          	nop
ffffffff80215460:	00000013          	nop
ffffffff80215464:	00000013          	nop
ffffffff80215468:	00000013          	nop
ffffffff8021546c:	00000013          	nop
ffffffff80215470:	00000013          	nop
ffffffff80215474:	00000013          	nop
ffffffff80215478:	00000013          	nop
ffffffff8021547c:	00000013          	nop
ffffffff80215480:	00000013          	nop
ffffffff80215484:	00000013          	nop
ffffffff80215488:	00000013          	nop
ffffffff8021548c:	00000013          	nop
ffffffff80215490:	00000013          	nop
ffffffff80215494:	00000013          	nop
ffffffff80215498:	00000013          	nop
ffffffff8021549c:	00000013          	nop
ffffffff802154a0:	00000013          	nop
ffffffff802154a4:	00000013          	nop
ffffffff802154a8:	00000013          	nop
ffffffff802154ac:	00000013          	nop
ffffffff802154b0:	00000013          	nop
ffffffff802154b4:	00000013          	nop
ffffffff802154b8:	00000013          	nop
ffffffff802154bc:	00000013          	nop
ffffffff802154c0:	00000013          	nop
ffffffff802154c4:	00000013          	nop
ffffffff802154c8:	00000013          	nop
ffffffff802154cc:	00000013          	nop
ffffffff802154d0:	00000013          	nop
ffffffff802154d4:	00000013          	nop
ffffffff802154d8:	00000013          	nop
ffffffff802154dc:	00000013          	nop
ffffffff802154e0:	00000013          	nop
ffffffff802154e4:	00000013          	nop
ffffffff802154e8:	00000013          	nop
ffffffff802154ec:	00000013          	nop
ffffffff802154f0:	00000013          	nop
ffffffff802154f4:	00000013          	nop
ffffffff802154f8:	00000013          	nop
ffffffff802154fc:	00000013          	nop
ffffffff80215500:	00000013          	nop
ffffffff80215504:	00000013          	nop
ffffffff80215508:	00000013          	nop
ffffffff8021550c:	00000013          	nop
ffffffff80215510:	00000013          	nop
ffffffff80215514:	00000013          	nop
ffffffff80215518:	00000013          	nop
ffffffff8021551c:	00000013          	nop
ffffffff80215520:	00000013          	nop
ffffffff80215524:	00000013          	nop
ffffffff80215528:	00000013          	nop
ffffffff8021552c:	00000013          	nop
ffffffff80215530:	00000013          	nop
ffffffff80215534:	00000013          	nop
ffffffff80215538:	00000013          	nop
ffffffff8021553c:	00000013          	nop
ffffffff80215540:	00000013          	nop
ffffffff80215544:	00000013          	nop
ffffffff80215548:	00000013          	nop
ffffffff8021554c:	00000013          	nop
ffffffff80215550:	00000013          	nop
ffffffff80215554:	00000013          	nop
ffffffff80215558:	00000013          	nop
ffffffff8021555c:	00000013          	nop
ffffffff80215560:	00000013          	nop
ffffffff80215564:	00000013          	nop
ffffffff80215568:	00000013          	nop
ffffffff8021556c:	00000013          	nop
ffffffff80215570:	00000013          	nop
ffffffff80215574:	00000013          	nop
ffffffff80215578:	00000013          	nop
ffffffff8021557c:	00000013          	nop
ffffffff80215580:	00000013          	nop
ffffffff80215584:	00000013          	nop
ffffffff80215588:	00000013          	nop
ffffffff8021558c:	00000013          	nop
ffffffff80215590:	00000013          	nop
ffffffff80215594:	00000013          	nop
ffffffff80215598:	00000013          	nop
ffffffff8021559c:	00000013          	nop
ffffffff802155a0:	00000013          	nop
ffffffff802155a4:	00000013          	nop
ffffffff802155a8:	00000013          	nop
ffffffff802155ac:	00000013          	nop
ffffffff802155b0:	00000013          	nop
ffffffff802155b4:	00000013          	nop
ffffffff802155b8:	00000013          	nop
ffffffff802155bc:	00000013          	nop
ffffffff802155c0:	00000013          	nop
ffffffff802155c4:	00000013          	nop
ffffffff802155c8:	00000013          	nop
ffffffff802155cc:	00000013          	nop
ffffffff802155d0:	00000013          	nop
ffffffff802155d4:	00000013          	nop
ffffffff802155d8:	00000013          	nop
ffffffff802155dc:	00000013          	nop
ffffffff802155e0:	00000013          	nop
ffffffff802155e4:	00000013          	nop
ffffffff802155e8:	00000013          	nop
ffffffff802155ec:	00000013          	nop
ffffffff802155f0:	00000013          	nop
ffffffff802155f4:	00000013          	nop
ffffffff802155f8:	00000013          	nop
ffffffff802155fc:	00000013          	nop
ffffffff80215600:	00000013          	nop
ffffffff80215604:	00000013          	nop
ffffffff80215608:	00000013          	nop
ffffffff8021560c:	00000013          	nop
ffffffff80215610:	00000013          	nop
ffffffff80215614:	00000013          	nop
ffffffff80215618:	00000013          	nop
ffffffff8021561c:	00000013          	nop
ffffffff80215620:	00000013          	nop
ffffffff80215624:	00000013          	nop
ffffffff80215628:	00000013          	nop
ffffffff8021562c:	00000013          	nop
ffffffff80215630:	00000013          	nop
ffffffff80215634:	00000013          	nop
ffffffff80215638:	00000013          	nop
ffffffff8021563c:	00000013          	nop
ffffffff80215640:	00000013          	nop
ffffffff80215644:	00000013          	nop
ffffffff80215648:	00000013          	nop
ffffffff8021564c:	00000013          	nop
ffffffff80215650:	00000013          	nop
ffffffff80215654:	00000013          	nop
ffffffff80215658:	00000013          	nop
ffffffff8021565c:	00000013          	nop
ffffffff80215660:	00000013          	nop
ffffffff80215664:	00000013          	nop
ffffffff80215668:	00000013          	nop
ffffffff8021566c:	00000013          	nop
ffffffff80215670:	00000013          	nop
ffffffff80215674:	00000013          	nop
ffffffff80215678:	00000013          	nop
ffffffff8021567c:	00000013          	nop
ffffffff80215680:	00000013          	nop
ffffffff80215684:	00000013          	nop
ffffffff80215688:	00000013          	nop
ffffffff8021568c:	00000013          	nop
ffffffff80215690:	00000013          	nop
ffffffff80215694:	00000013          	nop
ffffffff80215698:	00000013          	nop
ffffffff8021569c:	00000013          	nop
ffffffff802156a0:	00000013          	nop
ffffffff802156a4:	00000013          	nop
ffffffff802156a8:	00000013          	nop
ffffffff802156ac:	00000013          	nop
ffffffff802156b0:	00000013          	nop
ffffffff802156b4:	00000013          	nop
ffffffff802156b8:	00000013          	nop
ffffffff802156bc:	00000013          	nop
ffffffff802156c0:	00000013          	nop
ffffffff802156c4:	00000013          	nop
ffffffff802156c8:	00000013          	nop
ffffffff802156cc:	00000013          	nop
ffffffff802156d0:	00000013          	nop
ffffffff802156d4:	00000013          	nop
ffffffff802156d8:	00000013          	nop
ffffffff802156dc:	00000013          	nop
ffffffff802156e0:	00000013          	nop
ffffffff802156e4:	00000013          	nop
ffffffff802156e8:	00000013          	nop
ffffffff802156ec:	00000013          	nop
ffffffff802156f0:	00000013          	nop
ffffffff802156f4:	00000013          	nop
ffffffff802156f8:	00000013          	nop
ffffffff802156fc:	00000013          	nop
ffffffff80215700:	00000013          	nop
ffffffff80215704:	00000013          	nop
ffffffff80215708:	00000013          	nop
ffffffff8021570c:	00000013          	nop
ffffffff80215710:	00000013          	nop
ffffffff80215714:	00000013          	nop
ffffffff80215718:	00000013          	nop
ffffffff8021571c:	00000013          	nop
ffffffff80215720:	00000013          	nop
ffffffff80215724:	00000013          	nop
ffffffff80215728:	00000013          	nop
ffffffff8021572c:	00000013          	nop
ffffffff80215730:	00000013          	nop
ffffffff80215734:	00000013          	nop
ffffffff80215738:	00000013          	nop
ffffffff8021573c:	00000013          	nop
ffffffff80215740:	00000013          	nop
ffffffff80215744:	00000013          	nop
ffffffff80215748:	00000013          	nop
ffffffff8021574c:	00000013          	nop
ffffffff80215750:	00000013          	nop
ffffffff80215754:	00000013          	nop
ffffffff80215758:	00000013          	nop
ffffffff8021575c:	00000013          	nop
ffffffff80215760:	00000013          	nop
ffffffff80215764:	00000013          	nop
ffffffff80215768:	00000013          	nop
ffffffff8021576c:	00000013          	nop
ffffffff80215770:	00000013          	nop
ffffffff80215774:	00000013          	nop
ffffffff80215778:	00000013          	nop
ffffffff8021577c:	00000013          	nop
ffffffff80215780:	00000013          	nop
ffffffff80215784:	00000013          	nop
ffffffff80215788:	00000013          	nop
ffffffff8021578c:	00000013          	nop
ffffffff80215790:	00000013          	nop
ffffffff80215794:	00000013          	nop
ffffffff80215798:	00000013          	nop
ffffffff8021579c:	00000013          	nop
ffffffff802157a0:	00000013          	nop
ffffffff802157a4:	00000013          	nop
ffffffff802157a8:	00000013          	nop
ffffffff802157ac:	00000013          	nop
ffffffff802157b0:	00000013          	nop
ffffffff802157b4:	00000013          	nop
ffffffff802157b8:	00000013          	nop
ffffffff802157bc:	00000013          	nop
ffffffff802157c0:	00000013          	nop
ffffffff802157c4:	00000013          	nop
ffffffff802157c8:	00000013          	nop
ffffffff802157cc:	00000013          	nop
ffffffff802157d0:	00000013          	nop
ffffffff802157d4:	00000013          	nop
ffffffff802157d8:	00000013          	nop
ffffffff802157dc:	00000013          	nop
ffffffff802157e0:	00000013          	nop
ffffffff802157e4:	00000013          	nop
ffffffff802157e8:	00000013          	nop
ffffffff802157ec:	00000013          	nop
ffffffff802157f0:	00000013          	nop
ffffffff802157f4:	00000013          	nop
ffffffff802157f8:	00000013          	nop
ffffffff802157fc:	00000013          	nop
ffffffff80215800:	00000013          	nop
ffffffff80215804:	00000013          	nop
ffffffff80215808:	00000013          	nop
ffffffff8021580c:	00000013          	nop
ffffffff80215810:	00000013          	nop
ffffffff80215814:	00000013          	nop
ffffffff80215818:	00000013          	nop
ffffffff8021581c:	00000013          	nop
ffffffff80215820:	00000013          	nop
ffffffff80215824:	00000013          	nop
ffffffff80215828:	00000013          	nop
ffffffff8021582c:	00000013          	nop
ffffffff80215830:	00000013          	nop
ffffffff80215834:	00000013          	nop
ffffffff80215838:	00000013          	nop
ffffffff8021583c:	00000013          	nop
ffffffff80215840:	00000013          	nop
ffffffff80215844:	00000013          	nop
ffffffff80215848:	00000013          	nop
ffffffff8021584c:	00000013          	nop
ffffffff80215850:	00000013          	nop
ffffffff80215854:	00000013          	nop
ffffffff80215858:	00000013          	nop
ffffffff8021585c:	00000013          	nop
ffffffff80215860:	00000013          	nop
ffffffff80215864:	00000013          	nop
ffffffff80215868:	00000013          	nop
ffffffff8021586c:	00000013          	nop
ffffffff80215870:	00000013          	nop
ffffffff80215874:	00000013          	nop
ffffffff80215878:	00000013          	nop
ffffffff8021587c:	00000013          	nop
ffffffff80215880:	00000013          	nop
ffffffff80215884:	00000013          	nop
ffffffff80215888:	00000013          	nop
ffffffff8021588c:	00000013          	nop
ffffffff80215890:	00000013          	nop
ffffffff80215894:	00000013          	nop
ffffffff80215898:	00000013          	nop
ffffffff8021589c:	00000013          	nop
ffffffff802158a0:	00000013          	nop
ffffffff802158a4:	00000013          	nop
ffffffff802158a8:	00000013          	nop
ffffffff802158ac:	00000013          	nop
ffffffff802158b0:	00000013          	nop
ffffffff802158b4:	00000013          	nop
ffffffff802158b8:	00000013          	nop
ffffffff802158bc:	00000013          	nop
ffffffff802158c0:	00000013          	nop
ffffffff802158c4:	00000013          	nop
ffffffff802158c8:	00000013          	nop
ffffffff802158cc:	00000013          	nop
ffffffff802158d0:	00000013          	nop
ffffffff802158d4:	00000013          	nop
ffffffff802158d8:	00000013          	nop
ffffffff802158dc:	00000013          	nop
ffffffff802158e0:	00000013          	nop
ffffffff802158e4:	00000013          	nop
ffffffff802158e8:	00000013          	nop
ffffffff802158ec:	00000013          	nop
ffffffff802158f0:	00000013          	nop
ffffffff802158f4:	00000013          	nop
ffffffff802158f8:	00000013          	nop
ffffffff802158fc:	00000013          	nop
ffffffff80215900:	00000013          	nop
ffffffff80215904:	00000013          	nop
ffffffff80215908:	00000013          	nop
ffffffff8021590c:	00000013          	nop
ffffffff80215910:	00000013          	nop
ffffffff80215914:	00000013          	nop
ffffffff80215918:	00000013          	nop
ffffffff8021591c:	00000013          	nop
ffffffff80215920:	00000013          	nop
ffffffff80215924:	00000013          	nop
ffffffff80215928:	00000013          	nop
ffffffff8021592c:	00000013          	nop
ffffffff80215930:	00000013          	nop
ffffffff80215934:	00000013          	nop
ffffffff80215938:	00000013          	nop
ffffffff8021593c:	00000013          	nop
ffffffff80215940:	00000013          	nop
ffffffff80215944:	00000013          	nop
ffffffff80215948:	00000013          	nop
ffffffff8021594c:	00000013          	nop
ffffffff80215950:	00000013          	nop
ffffffff80215954:	00000013          	nop
ffffffff80215958:	00000013          	nop
ffffffff8021595c:	00000013          	nop
ffffffff80215960:	00000013          	nop
ffffffff80215964:	00000013          	nop
ffffffff80215968:	00000013          	nop
ffffffff8021596c:	00000013          	nop
ffffffff80215970:	00000013          	nop
ffffffff80215974:	00000013          	nop
ffffffff80215978:	00000013          	nop
ffffffff8021597c:	00000013          	nop
ffffffff80215980:	00000013          	nop
ffffffff80215984:	00000013          	nop
ffffffff80215988:	00000013          	nop
ffffffff8021598c:	00000013          	nop
ffffffff80215990:	00000013          	nop
ffffffff80215994:	00000013          	nop
ffffffff80215998:	00000013          	nop
ffffffff8021599c:	00000013          	nop
ffffffff802159a0:	00000013          	nop
ffffffff802159a4:	00000013          	nop
ffffffff802159a8:	00000013          	nop
ffffffff802159ac:	00000013          	nop
ffffffff802159b0:	00000013          	nop
ffffffff802159b4:	00000013          	nop
ffffffff802159b8:	00000013          	nop
ffffffff802159bc:	00000013          	nop
ffffffff802159c0:	00000013          	nop
ffffffff802159c4:	00000013          	nop
ffffffff802159c8:	00000013          	nop
ffffffff802159cc:	00000013          	nop
ffffffff802159d0:	00000013          	nop
ffffffff802159d4:	00000013          	nop
ffffffff802159d8:	00000013          	nop
ffffffff802159dc:	00000013          	nop
ffffffff802159e0:	00000013          	nop
ffffffff802159e4:	00000013          	nop
ffffffff802159e8:	00000013          	nop
ffffffff802159ec:	00000013          	nop
ffffffff802159f0:	00000013          	nop
ffffffff802159f4:	00000013          	nop
ffffffff802159f8:	00000013          	nop
ffffffff802159fc:	00000013          	nop
ffffffff80215a00:	00000013          	nop
ffffffff80215a04:	00000013          	nop
ffffffff80215a08:	00000013          	nop
ffffffff80215a0c:	00000013          	nop
ffffffff80215a10:	00000013          	nop
ffffffff80215a14:	00000013          	nop
ffffffff80215a18:	00000013          	nop
ffffffff80215a1c:	00000013          	nop
ffffffff80215a20:	00000013          	nop
ffffffff80215a24:	00000013          	nop
ffffffff80215a28:	00000013          	nop
ffffffff80215a2c:	00000013          	nop
ffffffff80215a30:	00000013          	nop
ffffffff80215a34:	00000013          	nop
ffffffff80215a38:	00000013          	nop
ffffffff80215a3c:	00000013          	nop
ffffffff80215a40:	00000013          	nop
ffffffff80215a44:	00000013          	nop
ffffffff80215a48:	00000013          	nop
ffffffff80215a4c:	00000013          	nop
ffffffff80215a50:	00000013          	nop
ffffffff80215a54:	00000013          	nop
ffffffff80215a58:	00000013          	nop
ffffffff80215a5c:	00000013          	nop
ffffffff80215a60:	00000013          	nop
ffffffff80215a64:	00000013          	nop
ffffffff80215a68:	00000013          	nop
ffffffff80215a6c:	00000013          	nop
ffffffff80215a70:	00000013          	nop
ffffffff80215a74:	00000013          	nop
ffffffff80215a78:	00000013          	nop
ffffffff80215a7c:	00000013          	nop
ffffffff80215a80:	00000013          	nop
ffffffff80215a84:	00000013          	nop
ffffffff80215a88:	00000013          	nop
ffffffff80215a8c:	00000013          	nop
ffffffff80215a90:	00000013          	nop
ffffffff80215a94:	00000013          	nop
ffffffff80215a98:	00000013          	nop
ffffffff80215a9c:	00000013          	nop
ffffffff80215aa0:	00000013          	nop
ffffffff80215aa4:	00000013          	nop
ffffffff80215aa8:	00000013          	nop
ffffffff80215aac:	00000013          	nop
ffffffff80215ab0:	00000013          	nop
ffffffff80215ab4:	00000013          	nop
ffffffff80215ab8:	00000013          	nop
ffffffff80215abc:	00000013          	nop
ffffffff80215ac0:	00000013          	nop
ffffffff80215ac4:	00000013          	nop
ffffffff80215ac8:	00000013          	nop
ffffffff80215acc:	00000013          	nop
ffffffff80215ad0:	00000013          	nop
ffffffff80215ad4:	00000013          	nop
ffffffff80215ad8:	00000013          	nop
ffffffff80215adc:	00000013          	nop
ffffffff80215ae0:	00000013          	nop
ffffffff80215ae4:	00000013          	nop
ffffffff80215ae8:	00000013          	nop
ffffffff80215aec:	00000013          	nop
ffffffff80215af0:	00000013          	nop
ffffffff80215af4:	00000013          	nop
ffffffff80215af8:	00000013          	nop
ffffffff80215afc:	00000013          	nop
ffffffff80215b00:	00000013          	nop
ffffffff80215b04:	00000013          	nop
ffffffff80215b08:	00000013          	nop
ffffffff80215b0c:	00000013          	nop
ffffffff80215b10:	00000013          	nop
ffffffff80215b14:	00000013          	nop
ffffffff80215b18:	00000013          	nop
ffffffff80215b1c:	00000013          	nop
ffffffff80215b20:	00000013          	nop
ffffffff80215b24:	00000013          	nop
ffffffff80215b28:	00000013          	nop
ffffffff80215b2c:	00000013          	nop
ffffffff80215b30:	00000013          	nop
ffffffff80215b34:	00000013          	nop
ffffffff80215b38:	00000013          	nop
ffffffff80215b3c:	00000013          	nop
ffffffff80215b40:	00000013          	nop
ffffffff80215b44:	00000013          	nop
ffffffff80215b48:	00000013          	nop
ffffffff80215b4c:	00000013          	nop
ffffffff80215b50:	00000013          	nop
ffffffff80215b54:	00000013          	nop
ffffffff80215b58:	00000013          	nop
ffffffff80215b5c:	00000013          	nop
ffffffff80215b60:	00000013          	nop
ffffffff80215b64:	00000013          	nop
ffffffff80215b68:	00000013          	nop
ffffffff80215b6c:	00000013          	nop
ffffffff80215b70:	00000013          	nop
ffffffff80215b74:	00000013          	nop
ffffffff80215b78:	00000013          	nop
ffffffff80215b7c:	00000013          	nop
ffffffff80215b80:	00000013          	nop
ffffffff80215b84:	00000013          	nop
ffffffff80215b88:	00000013          	nop
ffffffff80215b8c:	00000013          	nop
ffffffff80215b90:	00000013          	nop
ffffffff80215b94:	00000013          	nop
ffffffff80215b98:	00000013          	nop
ffffffff80215b9c:	00000013          	nop
ffffffff80215ba0:	00000013          	nop
ffffffff80215ba4:	00000013          	nop
ffffffff80215ba8:	00000013          	nop
ffffffff80215bac:	00000013          	nop
ffffffff80215bb0:	00000013          	nop
ffffffff80215bb4:	00000013          	nop
ffffffff80215bb8:	00000013          	nop
ffffffff80215bbc:	00000013          	nop
ffffffff80215bc0:	00000013          	nop
ffffffff80215bc4:	00000013          	nop
ffffffff80215bc8:	00000013          	nop
ffffffff80215bcc:	00000013          	nop
ffffffff80215bd0:	00000013          	nop
ffffffff80215bd4:	00000013          	nop
ffffffff80215bd8:	00000013          	nop
ffffffff80215bdc:	00000013          	nop
ffffffff80215be0:	00000013          	nop
ffffffff80215be4:	00000013          	nop
ffffffff80215be8:	00000013          	nop
ffffffff80215bec:	00000013          	nop
ffffffff80215bf0:	00000013          	nop
ffffffff80215bf4:	00000013          	nop
ffffffff80215bf8:	00000013          	nop
ffffffff80215bfc:	00000013          	nop
ffffffff80215c00:	00000013          	nop
ffffffff80215c04:	00000013          	nop
ffffffff80215c08:	00000013          	nop
ffffffff80215c0c:	00000013          	nop
ffffffff80215c10:	00000013          	nop
ffffffff80215c14:	00000013          	nop
ffffffff80215c18:	00000013          	nop
ffffffff80215c1c:	00000013          	nop
ffffffff80215c20:	00000013          	nop
ffffffff80215c24:	00000013          	nop
ffffffff80215c28:	00000013          	nop
ffffffff80215c2c:	00000013          	nop
ffffffff80215c30:	00000013          	nop
ffffffff80215c34:	00000013          	nop
ffffffff80215c38:	00000013          	nop
ffffffff80215c3c:	00000013          	nop
ffffffff80215c40:	00000013          	nop
ffffffff80215c44:	00000013          	nop
ffffffff80215c48:	00000013          	nop
ffffffff80215c4c:	00000013          	nop
ffffffff80215c50:	00000013          	nop
ffffffff80215c54:	00000013          	nop
ffffffff80215c58:	00000013          	nop
ffffffff80215c5c:	00000013          	nop
ffffffff80215c60:	00000013          	nop
ffffffff80215c64:	00000013          	nop
ffffffff80215c68:	00000013          	nop
ffffffff80215c6c:	00000013          	nop
ffffffff80215c70:	00000013          	nop
ffffffff80215c74:	00000013          	nop
ffffffff80215c78:	00000013          	nop
ffffffff80215c7c:	00000013          	nop
ffffffff80215c80:	00000013          	nop
ffffffff80215c84:	00000013          	nop
ffffffff80215c88:	00000013          	nop
ffffffff80215c8c:	00000013          	nop
ffffffff80215c90:	00000013          	nop
ffffffff80215c94:	00000013          	nop
ffffffff80215c98:	00000013          	nop
ffffffff80215c9c:	00000013          	nop
ffffffff80215ca0:	00000013          	nop
ffffffff80215ca4:	00000013          	nop
ffffffff80215ca8:	00000013          	nop
ffffffff80215cac:	00000013          	nop
ffffffff80215cb0:	00000013          	nop
ffffffff80215cb4:	00000013          	nop
ffffffff80215cb8:	00000013          	nop
ffffffff80215cbc:	00000013          	nop
ffffffff80215cc0:	00000013          	nop
ffffffff80215cc4:	00000013          	nop
ffffffff80215cc8:	00000013          	nop
ffffffff80215ccc:	00000013          	nop
ffffffff80215cd0:	00000013          	nop
ffffffff80215cd4:	00000013          	nop
ffffffff80215cd8:	00000013          	nop
ffffffff80215cdc:	00000013          	nop
ffffffff80215ce0:	00000013          	nop
ffffffff80215ce4:	00000013          	nop
ffffffff80215ce8:	00000013          	nop
ffffffff80215cec:	00000013          	nop
ffffffff80215cf0:	00000013          	nop
ffffffff80215cf4:	00000013          	nop
ffffffff80215cf8:	00000013          	nop
ffffffff80215cfc:	00000013          	nop
ffffffff80215d00:	00000013          	nop
ffffffff80215d04:	00000013          	nop
ffffffff80215d08:	00000013          	nop
ffffffff80215d0c:	00000013          	nop
ffffffff80215d10:	00000013          	nop
ffffffff80215d14:	00000013          	nop
ffffffff80215d18:	00000013          	nop
ffffffff80215d1c:	00000013          	nop
ffffffff80215d20:	00000013          	nop
ffffffff80215d24:	00000013          	nop
ffffffff80215d28:	00000013          	nop
ffffffff80215d2c:	00000013          	nop
ffffffff80215d30:	00000013          	nop
ffffffff80215d34:	00000013          	nop
ffffffff80215d38:	00000013          	nop
ffffffff80215d3c:	00000013          	nop
ffffffff80215d40:	00000013          	nop
ffffffff80215d44:	00000013          	nop
ffffffff80215d48:	00000013          	nop
ffffffff80215d4c:	00000013          	nop
ffffffff80215d50:	00000013          	nop
ffffffff80215d54:	00000013          	nop
ffffffff80215d58:	00000013          	nop
ffffffff80215d5c:	00000013          	nop
ffffffff80215d60:	00000013          	nop
ffffffff80215d64:	00000013          	nop
ffffffff80215d68:	00000013          	nop
ffffffff80215d6c:	00000013          	nop
ffffffff80215d70:	00000013          	nop
ffffffff80215d74:	00000013          	nop
ffffffff80215d78:	00000013          	nop
ffffffff80215d7c:	00000013          	nop
ffffffff80215d80:	00000013          	nop
ffffffff80215d84:	00000013          	nop
ffffffff80215d88:	00000013          	nop
ffffffff80215d8c:	00000013          	nop
ffffffff80215d90:	00000013          	nop
ffffffff80215d94:	00000013          	nop
ffffffff80215d98:	00000013          	nop
ffffffff80215d9c:	00000013          	nop
ffffffff80215da0:	00000013          	nop
ffffffff80215da4:	00000013          	nop
ffffffff80215da8:	00000013          	nop
ffffffff80215dac:	00000013          	nop
ffffffff80215db0:	00000013          	nop
ffffffff80215db4:	00000013          	nop
ffffffff80215db8:	00000013          	nop
ffffffff80215dbc:	00000013          	nop
ffffffff80215dc0:	00000013          	nop
ffffffff80215dc4:	00000013          	nop
ffffffff80215dc8:	00000013          	nop
ffffffff80215dcc:	00000013          	nop
ffffffff80215dd0:	00000013          	nop
ffffffff80215dd4:	00000013          	nop
ffffffff80215dd8:	00000013          	nop
ffffffff80215ddc:	00000013          	nop
ffffffff80215de0:	00000013          	nop
ffffffff80215de4:	00000013          	nop
ffffffff80215de8:	00000013          	nop
ffffffff80215dec:	00000013          	nop
ffffffff80215df0:	00000013          	nop
ffffffff80215df4:	00000013          	nop
ffffffff80215df8:	00000013          	nop
ffffffff80215dfc:	00000013          	nop
ffffffff80215e00:	00000013          	nop
ffffffff80215e04:	00000013          	nop
ffffffff80215e08:	00000013          	nop
ffffffff80215e0c:	00000013          	nop
ffffffff80215e10:	00000013          	nop
ffffffff80215e14:	00000013          	nop
ffffffff80215e18:	00000013          	nop
ffffffff80215e1c:	00000013          	nop
ffffffff80215e20:	00000013          	nop
ffffffff80215e24:	00000013          	nop
ffffffff80215e28:	00000013          	nop
ffffffff80215e2c:	00000013          	nop
ffffffff80215e30:	00000013          	nop
ffffffff80215e34:	00000013          	nop
ffffffff80215e38:	00000013          	nop
ffffffff80215e3c:	00000013          	nop
ffffffff80215e40:	00000013          	nop
ffffffff80215e44:	00000013          	nop
ffffffff80215e48:	00000013          	nop
ffffffff80215e4c:	00000013          	nop
ffffffff80215e50:	00000013          	nop
ffffffff80215e54:	00000013          	nop
ffffffff80215e58:	00000013          	nop
ffffffff80215e5c:	00000013          	nop
ffffffff80215e60:	00000013          	nop
ffffffff80215e64:	00000013          	nop
ffffffff80215e68:	00000013          	nop
ffffffff80215e6c:	00000013          	nop
ffffffff80215e70:	00000013          	nop
ffffffff80215e74:	00000013          	nop
ffffffff80215e78:	00000013          	nop
ffffffff80215e7c:	00000013          	nop
ffffffff80215e80:	00000013          	nop
ffffffff80215e84:	00000013          	nop
ffffffff80215e88:	00000013          	nop
ffffffff80215e8c:	00000013          	nop
ffffffff80215e90:	00000013          	nop
ffffffff80215e94:	00000013          	nop
ffffffff80215e98:	00000013          	nop
ffffffff80215e9c:	00000013          	nop
ffffffff80215ea0:	00000013          	nop
ffffffff80215ea4:	00000013          	nop
ffffffff80215ea8:	00000013          	nop
ffffffff80215eac:	00000013          	nop
ffffffff80215eb0:	00000013          	nop
ffffffff80215eb4:	00000013          	nop
ffffffff80215eb8:	00000013          	nop
ffffffff80215ebc:	00000013          	nop
ffffffff80215ec0:	00000013          	nop
ffffffff80215ec4:	00000013          	nop
ffffffff80215ec8:	00000013          	nop
ffffffff80215ecc:	00000013          	nop
ffffffff80215ed0:	00000013          	nop
ffffffff80215ed4:	00000013          	nop
ffffffff80215ed8:	00000013          	nop
ffffffff80215edc:	00000013          	nop
ffffffff80215ee0:	00000013          	nop
ffffffff80215ee4:	00000013          	nop
ffffffff80215ee8:	00000013          	nop
ffffffff80215eec:	00000013          	nop
ffffffff80215ef0:	00000013          	nop
ffffffff80215ef4:	00000013          	nop
ffffffff80215ef8:	00000013          	nop
ffffffff80215efc:	00000013          	nop
ffffffff80215f00:	00000013          	nop
ffffffff80215f04:	00000013          	nop
ffffffff80215f08:	00000013          	nop
ffffffff80215f0c:	00000013          	nop
ffffffff80215f10:	00000013          	nop
ffffffff80215f14:	00000013          	nop
ffffffff80215f18:	00000013          	nop
ffffffff80215f1c:	00000013          	nop
ffffffff80215f20:	00000013          	nop
ffffffff80215f24:	00000013          	nop
ffffffff80215f28:	00000013          	nop
ffffffff80215f2c:	00000013          	nop
ffffffff80215f30:	00000013          	nop
ffffffff80215f34:	00000013          	nop
ffffffff80215f38:	00000013          	nop
ffffffff80215f3c:	00000013          	nop
ffffffff80215f40:	00000013          	nop
ffffffff80215f44:	00000013          	nop
ffffffff80215f48:	00000013          	nop
ffffffff80215f4c:	00000013          	nop
ffffffff80215f50:	00000013          	nop
ffffffff80215f54:	00000013          	nop
ffffffff80215f58:	00000013          	nop
ffffffff80215f5c:	00000013          	nop
ffffffff80215f60:	00000013          	nop
ffffffff80215f64:	00000013          	nop
ffffffff80215f68:	00000013          	nop
ffffffff80215f6c:	00000013          	nop
ffffffff80215f70:	00000013          	nop
ffffffff80215f74:	00000013          	nop
ffffffff80215f78:	00000013          	nop
ffffffff80215f7c:	00000013          	nop
ffffffff80215f80:	00000013          	nop
ffffffff80215f84:	00000013          	nop
ffffffff80215f88:	00000013          	nop
ffffffff80215f8c:	00000013          	nop
ffffffff80215f90:	00000013          	nop
ffffffff80215f94:	00000013          	nop
ffffffff80215f98:	00000013          	nop
ffffffff80215f9c:	00000013          	nop
ffffffff80215fa0:	00000013          	nop
ffffffff80215fa4:	00000013          	nop
ffffffff80215fa8:	00000013          	nop
ffffffff80215fac:	00000013          	nop
ffffffff80215fb0:	00000013          	nop
ffffffff80215fb4:	00000013          	nop
ffffffff80215fb8:	00000013          	nop
ffffffff80215fbc:	00000013          	nop
ffffffff80215fc0:	00000013          	nop
ffffffff80215fc4:	00000013          	nop
ffffffff80215fc8:	00000013          	nop
ffffffff80215fcc:	00000013          	nop
ffffffff80215fd0:	00000013          	nop
ffffffff80215fd4:	00000013          	nop
ffffffff80215fd8:	00000013          	nop
ffffffff80215fdc:	00000013          	nop
ffffffff80215fe0:	00000013          	nop
ffffffff80215fe4:	00000013          	nop
ffffffff80215fe8:	00000013          	nop
ffffffff80215fec:	00000013          	nop
ffffffff80215ff0:	00000013          	nop
ffffffff80215ff4:	00000013          	nop
ffffffff80215ff8:	00000013          	nop
ffffffff80215ffc:	00000013          	nop
ffffffff80216000:	00000013          	nop
ffffffff80216004:	00000013          	nop
ffffffff80216008:	00000013          	nop
ffffffff8021600c:	00000013          	nop
ffffffff80216010:	00000013          	nop
ffffffff80216014:	00000013          	nop
ffffffff80216018:	00000013          	nop
ffffffff8021601c:	00000013          	nop
ffffffff80216020:	00000013          	nop
ffffffff80216024:	00000013          	nop
ffffffff80216028:	00000013          	nop
ffffffff8021602c:	00000013          	nop
ffffffff80216030:	00000013          	nop
ffffffff80216034:	00000013          	nop
ffffffff80216038:	00000013          	nop
ffffffff8021603c:	00000013          	nop
ffffffff80216040:	00000013          	nop
ffffffff80216044:	00000013          	nop
ffffffff80216048:	00000013          	nop
ffffffff8021604c:	00000013          	nop
ffffffff80216050:	00000013          	nop
ffffffff80216054:	00000013          	nop
ffffffff80216058:	00000013          	nop
ffffffff8021605c:	00000013          	nop
ffffffff80216060:	00000013          	nop
ffffffff80216064:	00000013          	nop
ffffffff80216068:	00000013          	nop
ffffffff8021606c:	00000013          	nop
ffffffff80216070:	00000013          	nop
ffffffff80216074:	00000013          	nop
ffffffff80216078:	00000013          	nop
ffffffff8021607c:	00000013          	nop
ffffffff80216080:	00000013          	nop
ffffffff80216084:	00000013          	nop
ffffffff80216088:	00000013          	nop
ffffffff8021608c:	00000013          	nop
ffffffff80216090:	00000013          	nop
ffffffff80216094:	00000013          	nop
ffffffff80216098:	00000013          	nop
ffffffff8021609c:	00000013          	nop
ffffffff802160a0:	00000013          	nop
ffffffff802160a4:	00000013          	nop
ffffffff802160a8:	00000013          	nop
ffffffff802160ac:	00000013          	nop
ffffffff802160b0:	00000013          	nop
ffffffff802160b4:	00000013          	nop
ffffffff802160b8:	00000013          	nop
ffffffff802160bc:	00000013          	nop
ffffffff802160c0:	00000013          	nop
ffffffff802160c4:	00000013          	nop
ffffffff802160c8:	00000013          	nop
ffffffff802160cc:	00000013          	nop
ffffffff802160d0:	00000013          	nop
ffffffff802160d4:	00000013          	nop
ffffffff802160d8:	00000013          	nop
ffffffff802160dc:	00000013          	nop
ffffffff802160e0:	00000013          	nop
ffffffff802160e4:	00000013          	nop
ffffffff802160e8:	00000013          	nop
ffffffff802160ec:	00000013          	nop
ffffffff802160f0:	00000013          	nop
ffffffff802160f4:	00000013          	nop
ffffffff802160f8:	00000013          	nop
ffffffff802160fc:	00000013          	nop
ffffffff80216100:	00000013          	nop
ffffffff80216104:	00000013          	nop
ffffffff80216108:	00000013          	nop
ffffffff8021610c:	00000013          	nop
ffffffff80216110:	00000013          	nop
ffffffff80216114:	00000013          	nop
ffffffff80216118:	00000013          	nop
ffffffff8021611c:	00000013          	nop
ffffffff80216120:	00000013          	nop
ffffffff80216124:	00000013          	nop
ffffffff80216128:	00000013          	nop
ffffffff8021612c:	00000013          	nop
ffffffff80216130:	00000013          	nop
ffffffff80216134:	00000013          	nop
ffffffff80216138:	00000013          	nop
ffffffff8021613c:	00000013          	nop
ffffffff80216140:	00000013          	nop
ffffffff80216144:	00000013          	nop
ffffffff80216148:	00000013          	nop
ffffffff8021614c:	00000013          	nop
ffffffff80216150:	00000013          	nop
ffffffff80216154:	00000013          	nop
ffffffff80216158:	00000013          	nop
ffffffff8021615c:	00000013          	nop
ffffffff80216160:	00000013          	nop
ffffffff80216164:	00000013          	nop
ffffffff80216168:	00000013          	nop
ffffffff8021616c:	00000013          	nop
ffffffff80216170:	00000013          	nop
ffffffff80216174:	00000013          	nop
ffffffff80216178:	00000013          	nop
ffffffff8021617c:	00000013          	nop
ffffffff80216180:	00000013          	nop
ffffffff80216184:	00000013          	nop
ffffffff80216188:	00000013          	nop
ffffffff8021618c:	00000013          	nop
ffffffff80216190:	00000013          	nop
ffffffff80216194:	00000013          	nop
ffffffff80216198:	00000013          	nop
ffffffff8021619c:	00000013          	nop
ffffffff802161a0:	00000013          	nop
ffffffff802161a4:	00000013          	nop
ffffffff802161a8:	00000013          	nop
ffffffff802161ac:	00000013          	nop
ffffffff802161b0:	00000013          	nop
ffffffff802161b4:	00000013          	nop
ffffffff802161b8:	00000013          	nop
ffffffff802161bc:	00000013          	nop
ffffffff802161c0:	00000013          	nop
ffffffff802161c4:	00000013          	nop
ffffffff802161c8:	00000013          	nop
ffffffff802161cc:	00000013          	nop
ffffffff802161d0:	00000013          	nop
ffffffff802161d4:	00000013          	nop
ffffffff802161d8:	00000013          	nop
ffffffff802161dc:	00000013          	nop
ffffffff802161e0:	00000013          	nop
ffffffff802161e4:	00000013          	nop
ffffffff802161e8:	00000013          	nop
ffffffff802161ec:	00000013          	nop
ffffffff802161f0:	00000013          	nop
ffffffff802161f4:	00000013          	nop
ffffffff802161f8:	00000013          	nop
ffffffff802161fc:	00000013          	nop
ffffffff80216200:	00000013          	nop
ffffffff80216204:	00000013          	nop
ffffffff80216208:	00000013          	nop
ffffffff8021620c:	00000013          	nop
ffffffff80216210:	00000013          	nop
ffffffff80216214:	00000013          	nop
ffffffff80216218:	00000013          	nop
ffffffff8021621c:	00000013          	nop
ffffffff80216220:	00000013          	nop
ffffffff80216224:	00000013          	nop
ffffffff80216228:	00000013          	nop
ffffffff8021622c:	00000013          	nop
ffffffff80216230:	00000013          	nop
ffffffff80216234:	00000013          	nop
ffffffff80216238:	00000013          	nop
ffffffff8021623c:	00000013          	nop
ffffffff80216240:	00000013          	nop
ffffffff80216244:	00000013          	nop
ffffffff80216248:	00000013          	nop
ffffffff8021624c:	00000013          	nop
ffffffff80216250:	00000013          	nop
ffffffff80216254:	00000013          	nop
ffffffff80216258:	00000013          	nop
ffffffff8021625c:	00000013          	nop
ffffffff80216260:	00000013          	nop
ffffffff80216264:	00000013          	nop
ffffffff80216268:	00000013          	nop
ffffffff8021626c:	00000013          	nop
ffffffff80216270:	00000013          	nop
ffffffff80216274:	00000013          	nop
ffffffff80216278:	00000013          	nop
ffffffff8021627c:	00000013          	nop
ffffffff80216280:	00000013          	nop
ffffffff80216284:	00000013          	nop
ffffffff80216288:	00000013          	nop
ffffffff8021628c:	00000013          	nop
ffffffff80216290:	00000013          	nop
ffffffff80216294:	00000013          	nop
ffffffff80216298:	00000013          	nop
ffffffff8021629c:	00000013          	nop
ffffffff802162a0:	00000013          	nop
ffffffff802162a4:	00000013          	nop
ffffffff802162a8:	00000013          	nop
ffffffff802162ac:	00000013          	nop
ffffffff802162b0:	00000013          	nop
ffffffff802162b4:	00000013          	nop
ffffffff802162b8:	00000013          	nop
ffffffff802162bc:	00000013          	nop
ffffffff802162c0:	00000013          	nop
ffffffff802162c4:	00000013          	nop
ffffffff802162c8:	00000013          	nop
ffffffff802162cc:	00000013          	nop
ffffffff802162d0:	00000013          	nop
ffffffff802162d4:	00000013          	nop
ffffffff802162d8:	00000013          	nop
ffffffff802162dc:	00000013          	nop
ffffffff802162e0:	00000013          	nop
ffffffff802162e4:	00000013          	nop
ffffffff802162e8:	00000013          	nop
ffffffff802162ec:	00000013          	nop
ffffffff802162f0:	00000013          	nop
ffffffff802162f4:	00000013          	nop
ffffffff802162f8:	00000013          	nop
ffffffff802162fc:	00000013          	nop
ffffffff80216300:	00000013          	nop
ffffffff80216304:	00000013          	nop
ffffffff80216308:	00000013          	nop
ffffffff8021630c:	00000013          	nop
ffffffff80216310:	00000013          	nop
ffffffff80216314:	00000013          	nop
ffffffff80216318:	00000013          	nop
ffffffff8021631c:	00000013          	nop
ffffffff80216320:	00000013          	nop
ffffffff80216324:	00000013          	nop
ffffffff80216328:	00000013          	nop
ffffffff8021632c:	00000013          	nop
ffffffff80216330:	00000013          	nop
ffffffff80216334:	00000013          	nop
ffffffff80216338:	00000013          	nop
ffffffff8021633c:	00000013          	nop
ffffffff80216340:	00000013          	nop
ffffffff80216344:	00000013          	nop
ffffffff80216348:	00000013          	nop
ffffffff8021634c:	00000013          	nop
ffffffff80216350:	00000013          	nop
ffffffff80216354:	00000013          	nop
ffffffff80216358:	00000013          	nop
ffffffff8021635c:	00000013          	nop
ffffffff80216360:	00000013          	nop
ffffffff80216364:	00000013          	nop
ffffffff80216368:	00000013          	nop
ffffffff8021636c:	00000013          	nop
ffffffff80216370:	00000013          	nop
ffffffff80216374:	00000013          	nop
ffffffff80216378:	00000013          	nop
ffffffff8021637c:	00000013          	nop
ffffffff80216380:	00000013          	nop
ffffffff80216384:	00000013          	nop
ffffffff80216388:	00000013          	nop
ffffffff8021638c:	00000013          	nop
ffffffff80216390:	00000013          	nop
ffffffff80216394:	00000013          	nop
ffffffff80216398:	00000013          	nop
ffffffff8021639c:	00000013          	nop
ffffffff802163a0:	00000013          	nop
ffffffff802163a4:	00000013          	nop
ffffffff802163a8:	00000013          	nop
ffffffff802163ac:	00000013          	nop
ffffffff802163b0:	00000013          	nop
ffffffff802163b4:	00000013          	nop
ffffffff802163b8:	00000013          	nop
ffffffff802163bc:	00000013          	nop
ffffffff802163c0:	00000013          	nop
ffffffff802163c4:	00000013          	nop
ffffffff802163c8:	00000013          	nop
ffffffff802163cc:	00000013          	nop
ffffffff802163d0:	00000013          	nop
ffffffff802163d4:	00000013          	nop
ffffffff802163d8:	00000013          	nop
ffffffff802163dc:	00000013          	nop
ffffffff802163e0:	00000013          	nop
ffffffff802163e4:	00000013          	nop
ffffffff802163e8:	00000013          	nop
ffffffff802163ec:	00000013          	nop
ffffffff802163f0:	00000013          	nop
ffffffff802163f4:	00000013          	nop
ffffffff802163f8:	00000013          	nop
ffffffff802163fc:	00000013          	nop
ffffffff80216400:	00000013          	nop
ffffffff80216404:	00000013          	nop
ffffffff80216408:	00000013          	nop
ffffffff8021640c:	00000013          	nop
ffffffff80216410:	00000013          	nop
ffffffff80216414:	00000013          	nop
ffffffff80216418:	00000013          	nop
ffffffff8021641c:	00000013          	nop
ffffffff80216420:	00000013          	nop
ffffffff80216424:	00000013          	nop
ffffffff80216428:	00000013          	nop
ffffffff8021642c:	00000013          	nop
ffffffff80216430:	00000013          	nop
ffffffff80216434:	00000013          	nop
ffffffff80216438:	00000013          	nop
ffffffff8021643c:	00000013          	nop
ffffffff80216440:	00000013          	nop
ffffffff80216444:	00000013          	nop
ffffffff80216448:	00000013          	nop
ffffffff8021644c:	00000013          	nop
ffffffff80216450:	00000013          	nop
ffffffff80216454:	00000013          	nop
ffffffff80216458:	00000013          	nop
ffffffff8021645c:	00000013          	nop
ffffffff80216460:	00000013          	nop
ffffffff80216464:	00000013          	nop
ffffffff80216468:	00000013          	nop
ffffffff8021646c:	00000013          	nop
ffffffff80216470:	00000013          	nop
ffffffff80216474:	00000013          	nop
ffffffff80216478:	00000013          	nop
ffffffff8021647c:	00000013          	nop
ffffffff80216480:	00000013          	nop
ffffffff80216484:	00000013          	nop
ffffffff80216488:	00000013          	nop
ffffffff8021648c:	00000013          	nop
ffffffff80216490:	00000013          	nop
ffffffff80216494:	00000013          	nop
ffffffff80216498:	00000013          	nop
ffffffff8021649c:	00000013          	nop
ffffffff802164a0:	00000013          	nop
ffffffff802164a4:	00000013          	nop
ffffffff802164a8:	00000013          	nop
ffffffff802164ac:	00000013          	nop
ffffffff802164b0:	00000013          	nop
ffffffff802164b4:	00000013          	nop
ffffffff802164b8:	00000013          	nop
ffffffff802164bc:	00000013          	nop
ffffffff802164c0:	00000013          	nop
ffffffff802164c4:	00000013          	nop
ffffffff802164c8:	00000013          	nop
ffffffff802164cc:	00000013          	nop
ffffffff802164d0:	00000013          	nop
ffffffff802164d4:	00000013          	nop
ffffffff802164d8:	00000013          	nop
ffffffff802164dc:	00000013          	nop
ffffffff802164e0:	00000013          	nop
ffffffff802164e4:	00000013          	nop
ffffffff802164e8:	00000013          	nop
ffffffff802164ec:	00000013          	nop
ffffffff802164f0:	00000013          	nop
ffffffff802164f4:	00000013          	nop
ffffffff802164f8:	00000013          	nop
ffffffff802164fc:	00000013          	nop
ffffffff80216500:	00000013          	nop
ffffffff80216504:	00000013          	nop
ffffffff80216508:	00000013          	nop
ffffffff8021650c:	00000013          	nop
ffffffff80216510:	00000013          	nop
ffffffff80216514:	00000013          	nop
ffffffff80216518:	00000013          	nop
ffffffff8021651c:	00000013          	nop
ffffffff80216520:	00000013          	nop
ffffffff80216524:	00000013          	nop
ffffffff80216528:	00000013          	nop
ffffffff8021652c:	00000013          	nop
ffffffff80216530:	00000013          	nop
ffffffff80216534:	00000013          	nop
ffffffff80216538:	00000013          	nop
ffffffff8021653c:	00000013          	nop
ffffffff80216540:	00000013          	nop
ffffffff80216544:	00000013          	nop
ffffffff80216548:	00000013          	nop
ffffffff8021654c:	00000013          	nop
ffffffff80216550:	00000013          	nop
ffffffff80216554:	00000013          	nop
ffffffff80216558:	00000013          	nop
ffffffff8021655c:	00000013          	nop
ffffffff80216560:	00000013          	nop
ffffffff80216564:	00000013          	nop
ffffffff80216568:	00000013          	nop
ffffffff8021656c:	00000013          	nop
ffffffff80216570:	00000013          	nop
ffffffff80216574:	00000013          	nop
ffffffff80216578:	00000013          	nop
ffffffff8021657c:	00000013          	nop
ffffffff80216580:	00000013          	nop
ffffffff80216584:	00000013          	nop
ffffffff80216588:	00000013          	nop
ffffffff8021658c:	00000013          	nop
ffffffff80216590:	00000013          	nop
ffffffff80216594:	00000013          	nop
ffffffff80216598:	00000013          	nop
ffffffff8021659c:	00000013          	nop
ffffffff802165a0:	00000013          	nop
ffffffff802165a4:	00000013          	nop
ffffffff802165a8:	00000013          	nop
ffffffff802165ac:	00000013          	nop
ffffffff802165b0:	00000013          	nop
ffffffff802165b4:	00000013          	nop
ffffffff802165b8:	00000013          	nop
ffffffff802165bc:	00000013          	nop
ffffffff802165c0:	00000013          	nop
ffffffff802165c4:	00000013          	nop
ffffffff802165c8:	00000013          	nop
ffffffff802165cc:	00000013          	nop
ffffffff802165d0:	00000013          	nop
ffffffff802165d4:	00000013          	nop
ffffffff802165d8:	00000013          	nop
ffffffff802165dc:	00000013          	nop
ffffffff802165e0:	00000013          	nop
ffffffff802165e4:	00000013          	nop
ffffffff802165e8:	00000013          	nop
ffffffff802165ec:	00000013          	nop
ffffffff802165f0:	00000013          	nop
ffffffff802165f4:	00000013          	nop
ffffffff802165f8:	00000013          	nop
ffffffff802165fc:	00000013          	nop
ffffffff80216600:	00000013          	nop
ffffffff80216604:	00000013          	nop
ffffffff80216608:	00000013          	nop
ffffffff8021660c:	00000013          	nop
ffffffff80216610:	00000013          	nop
ffffffff80216614:	00000013          	nop
ffffffff80216618:	00000013          	nop
ffffffff8021661c:	00000013          	nop
ffffffff80216620:	00000013          	nop
ffffffff80216624:	00000013          	nop
ffffffff80216628:	00000013          	nop
ffffffff8021662c:	00000013          	nop
ffffffff80216630:	00000013          	nop
ffffffff80216634:	00000013          	nop
ffffffff80216638:	00000013          	nop
ffffffff8021663c:	00000013          	nop
ffffffff80216640:	00000013          	nop
ffffffff80216644:	00000013          	nop
ffffffff80216648:	00000013          	nop
ffffffff8021664c:	00000013          	nop
ffffffff80216650:	00000013          	nop
ffffffff80216654:	00000013          	nop
ffffffff80216658:	00000013          	nop
ffffffff8021665c:	00000013          	nop
ffffffff80216660:	00000013          	nop
ffffffff80216664:	00000013          	nop
ffffffff80216668:	00000013          	nop
ffffffff8021666c:	00000013          	nop
ffffffff80216670:	00000013          	nop
ffffffff80216674:	00000013          	nop
ffffffff80216678:	00000013          	nop
ffffffff8021667c:	00000013          	nop
ffffffff80216680:	00000013          	nop
ffffffff80216684:	00000013          	nop
ffffffff80216688:	00000013          	nop
ffffffff8021668c:	00000013          	nop
ffffffff80216690:	00000013          	nop
ffffffff80216694:	00000013          	nop
ffffffff80216698:	00000013          	nop
ffffffff8021669c:	00000013          	nop
ffffffff802166a0:	00000013          	nop
ffffffff802166a4:	00000013          	nop
ffffffff802166a8:	00000013          	nop
ffffffff802166ac:	00000013          	nop
ffffffff802166b0:	00000013          	nop
ffffffff802166b4:	00000013          	nop
ffffffff802166b8:	00000013          	nop
ffffffff802166bc:	00000013          	nop
ffffffff802166c0:	00000013          	nop
ffffffff802166c4:	00000013          	nop
ffffffff802166c8:	00000013          	nop
ffffffff802166cc:	00000013          	nop
ffffffff802166d0:	00000013          	nop
ffffffff802166d4:	00000013          	nop
ffffffff802166d8:	00000013          	nop
ffffffff802166dc:	00000013          	nop
ffffffff802166e0:	00000013          	nop
ffffffff802166e4:	00000013          	nop
ffffffff802166e8:	00000013          	nop
ffffffff802166ec:	00000013          	nop
ffffffff802166f0:	00000013          	nop
ffffffff802166f4:	00000013          	nop
ffffffff802166f8:	00000013          	nop
ffffffff802166fc:	00000013          	nop
ffffffff80216700:	00000013          	nop
ffffffff80216704:	00000013          	nop
ffffffff80216708:	00000013          	nop
ffffffff8021670c:	00000013          	nop
ffffffff80216710:	00000013          	nop
ffffffff80216714:	00000013          	nop
ffffffff80216718:	00000013          	nop
ffffffff8021671c:	00000013          	nop
ffffffff80216720:	00000013          	nop
ffffffff80216724:	00000013          	nop
ffffffff80216728:	00000013          	nop
ffffffff8021672c:	00000013          	nop
ffffffff80216730:	00000013          	nop
ffffffff80216734:	00000013          	nop
ffffffff80216738:	00000013          	nop
ffffffff8021673c:	00000013          	nop
ffffffff80216740:	00000013          	nop
ffffffff80216744:	00000013          	nop
ffffffff80216748:	00000013          	nop
ffffffff8021674c:	00000013          	nop
ffffffff80216750:	00000013          	nop
ffffffff80216754:	00000013          	nop
ffffffff80216758:	00000013          	nop
ffffffff8021675c:	00000013          	nop
ffffffff80216760:	00000013          	nop
ffffffff80216764:	00000013          	nop
ffffffff80216768:	00000013          	nop
ffffffff8021676c:	00000013          	nop
ffffffff80216770:	00000013          	nop
ffffffff80216774:	00000013          	nop
ffffffff80216778:	00000013          	nop
ffffffff8021677c:	00000013          	nop
ffffffff80216780:	00000013          	nop
ffffffff80216784:	00000013          	nop
ffffffff80216788:	00000013          	nop
ffffffff8021678c:	00000013          	nop
ffffffff80216790:	00000013          	nop
ffffffff80216794:	00000013          	nop
ffffffff80216798:	00000013          	nop
ffffffff8021679c:	00000013          	nop
ffffffff802167a0:	00000013          	nop
ffffffff802167a4:	00000013          	nop
ffffffff802167a8:	00000013          	nop
ffffffff802167ac:	00000013          	nop
ffffffff802167b0:	00000013          	nop
ffffffff802167b4:	00000013          	nop
ffffffff802167b8:	00000013          	nop
ffffffff802167bc:	00000013          	nop
ffffffff802167c0:	00000013          	nop
ffffffff802167c4:	00000013          	nop
ffffffff802167c8:	00000013          	nop
ffffffff802167cc:	00000013          	nop
ffffffff802167d0:	00000013          	nop
ffffffff802167d4:	00000013          	nop
ffffffff802167d8:	00000013          	nop
ffffffff802167dc:	00000013          	nop
ffffffff802167e0:	00000013          	nop
ffffffff802167e4:	00000013          	nop
ffffffff802167e8:	00000013          	nop
ffffffff802167ec:	00000013          	nop
ffffffff802167f0:	00000013          	nop
ffffffff802167f4:	00000013          	nop
ffffffff802167f8:	00000013          	nop
ffffffff802167fc:	00000013          	nop
ffffffff80216800:	00000013          	nop
ffffffff80216804:	00000013          	nop
ffffffff80216808:	00000013          	nop
ffffffff8021680c:	00000013          	nop
ffffffff80216810:	00000013          	nop
ffffffff80216814:	00000013          	nop
ffffffff80216818:	00000013          	nop
ffffffff8021681c:	00000013          	nop
ffffffff80216820:	00000013          	nop
ffffffff80216824:	00000013          	nop
ffffffff80216828:	00000013          	nop
ffffffff8021682c:	00000013          	nop
ffffffff80216830:	00000013          	nop
ffffffff80216834:	00000013          	nop
ffffffff80216838:	00000013          	nop
ffffffff8021683c:	00000013          	nop
ffffffff80216840:	00000013          	nop
ffffffff80216844:	00000013          	nop
ffffffff80216848:	00000013          	nop
ffffffff8021684c:	00000013          	nop
ffffffff80216850:	00000013          	nop
ffffffff80216854:	00000013          	nop
ffffffff80216858:	00000013          	nop
ffffffff8021685c:	00000013          	nop
ffffffff80216860:	00000013          	nop
ffffffff80216864:	00000013          	nop
ffffffff80216868:	00000013          	nop
ffffffff8021686c:	00000013          	nop
ffffffff80216870:	00000013          	nop
ffffffff80216874:	00000013          	nop
ffffffff80216878:	00000013          	nop
ffffffff8021687c:	00000013          	nop
ffffffff80216880:	00000013          	nop
ffffffff80216884:	00000013          	nop
ffffffff80216888:	00000013          	nop
ffffffff8021688c:	00000013          	nop
ffffffff80216890:	00000013          	nop
ffffffff80216894:	00000013          	nop
ffffffff80216898:	00000013          	nop
ffffffff8021689c:	00000013          	nop
ffffffff802168a0:	00000013          	nop
ffffffff802168a4:	00000013          	nop
ffffffff802168a8:	00000013          	nop
ffffffff802168ac:	00000013          	nop
ffffffff802168b0:	00000013          	nop
ffffffff802168b4:	00000013          	nop
ffffffff802168b8:	00000013          	nop
ffffffff802168bc:	00000013          	nop
ffffffff802168c0:	00000013          	nop
ffffffff802168c4:	00000013          	nop
ffffffff802168c8:	00000013          	nop
ffffffff802168cc:	00000013          	nop
ffffffff802168d0:	00000013          	nop
ffffffff802168d4:	00000013          	nop
ffffffff802168d8:	00000013          	nop
ffffffff802168dc:	00000013          	nop
ffffffff802168e0:	00000013          	nop
ffffffff802168e4:	00000013          	nop
ffffffff802168e8:	00000013          	nop
ffffffff802168ec:	00000013          	nop
ffffffff802168f0:	00000013          	nop
ffffffff802168f4:	00000013          	nop
ffffffff802168f8:	00000013          	nop
ffffffff802168fc:	00000013          	nop
ffffffff80216900:	00000013          	nop
ffffffff80216904:	00000013          	nop
ffffffff80216908:	00000013          	nop
ffffffff8021690c:	00000013          	nop
ffffffff80216910:	00000013          	nop
ffffffff80216914:	00000013          	nop
ffffffff80216918:	00000013          	nop
ffffffff8021691c:	00000013          	nop
ffffffff80216920:	00000013          	nop
ffffffff80216924:	00000013          	nop
ffffffff80216928:	00000013          	nop
ffffffff8021692c:	00000013          	nop
ffffffff80216930:	00000013          	nop
ffffffff80216934:	00000013          	nop
ffffffff80216938:	00000013          	nop
ffffffff8021693c:	00000013          	nop
ffffffff80216940:	00000013          	nop
ffffffff80216944:	00000013          	nop
ffffffff80216948:	00000013          	nop
ffffffff8021694c:	00000013          	nop
ffffffff80216950:	00000013          	nop
ffffffff80216954:	00000013          	nop
ffffffff80216958:	00000013          	nop
ffffffff8021695c:	00000013          	nop
ffffffff80216960:	00000013          	nop
ffffffff80216964:	00000013          	nop
ffffffff80216968:	00000013          	nop
ffffffff8021696c:	00000013          	nop
ffffffff80216970:	00000013          	nop
ffffffff80216974:	00000013          	nop
ffffffff80216978:	00000013          	nop
ffffffff8021697c:	00000013          	nop
ffffffff80216980:	00000013          	nop
ffffffff80216984:	00000013          	nop
ffffffff80216988:	00000013          	nop
ffffffff8021698c:	00000013          	nop
ffffffff80216990:	00000013          	nop
ffffffff80216994:	00000013          	nop
ffffffff80216998:	00000013          	nop
ffffffff8021699c:	00000013          	nop
ffffffff802169a0:	00000013          	nop
ffffffff802169a4:	00000013          	nop
ffffffff802169a8:	00000013          	nop
ffffffff802169ac:	00000013          	nop
ffffffff802169b0:	00000013          	nop
ffffffff802169b4:	00000013          	nop
ffffffff802169b8:	00000013          	nop
ffffffff802169bc:	00000013          	nop
ffffffff802169c0:	00000013          	nop
ffffffff802169c4:	00000013          	nop
ffffffff802169c8:	00000013          	nop
ffffffff802169cc:	00000013          	nop
ffffffff802169d0:	00000013          	nop
ffffffff802169d4:	00000013          	nop
ffffffff802169d8:	00000013          	nop
ffffffff802169dc:	00000013          	nop
ffffffff802169e0:	00000013          	nop
ffffffff802169e4:	00000013          	nop
ffffffff802169e8:	00000013          	nop
ffffffff802169ec:	00000013          	nop
ffffffff802169f0:	00000013          	nop
ffffffff802169f4:	00000013          	nop
ffffffff802169f8:	00000013          	nop
ffffffff802169fc:	00000013          	nop
ffffffff80216a00:	00000013          	nop
ffffffff80216a04:	00000013          	nop
ffffffff80216a08:	00000013          	nop
ffffffff80216a0c:	00000013          	nop
ffffffff80216a10:	00000013          	nop
ffffffff80216a14:	00000013          	nop
ffffffff80216a18:	00000013          	nop
ffffffff80216a1c:	00000013          	nop
ffffffff80216a20:	00000013          	nop
ffffffff80216a24:	00000013          	nop
ffffffff80216a28:	00000013          	nop
ffffffff80216a2c:	00000013          	nop
ffffffff80216a30:	00000013          	nop
ffffffff80216a34:	00000013          	nop
ffffffff80216a38:	00000013          	nop
ffffffff80216a3c:	00000013          	nop
ffffffff80216a40:	00000013          	nop
ffffffff80216a44:	00000013          	nop
ffffffff80216a48:	00000013          	nop
ffffffff80216a4c:	00000013          	nop
ffffffff80216a50:	00000013          	nop
ffffffff80216a54:	00000013          	nop
ffffffff80216a58:	00000013          	nop
ffffffff80216a5c:	00000013          	nop
ffffffff80216a60:	00000013          	nop
ffffffff80216a64:	00000013          	nop
ffffffff80216a68:	00000013          	nop
ffffffff80216a6c:	00000013          	nop
ffffffff80216a70:	00000013          	nop
ffffffff80216a74:	00000013          	nop
ffffffff80216a78:	00000013          	nop
ffffffff80216a7c:	00000013          	nop
ffffffff80216a80:	00000013          	nop
ffffffff80216a84:	00000013          	nop
ffffffff80216a88:	00000013          	nop
ffffffff80216a8c:	00000013          	nop
ffffffff80216a90:	00000013          	nop
ffffffff80216a94:	00000013          	nop
ffffffff80216a98:	00000013          	nop
ffffffff80216a9c:	00000013          	nop
ffffffff80216aa0:	00000013          	nop
ffffffff80216aa4:	00000013          	nop
ffffffff80216aa8:	00000013          	nop
ffffffff80216aac:	00000013          	nop
ffffffff80216ab0:	00000013          	nop
ffffffff80216ab4:	00000013          	nop
ffffffff80216ab8:	00000013          	nop
ffffffff80216abc:	00000013          	nop
ffffffff80216ac0:	00000013          	nop
ffffffff80216ac4:	00000013          	nop
ffffffff80216ac8:	00000013          	nop
ffffffff80216acc:	00000013          	nop
ffffffff80216ad0:	00000013          	nop
ffffffff80216ad4:	00000013          	nop
ffffffff80216ad8:	00000013          	nop
ffffffff80216adc:	00000013          	nop
ffffffff80216ae0:	00000013          	nop
ffffffff80216ae4:	00000013          	nop
ffffffff80216ae8:	00000013          	nop
ffffffff80216aec:	00000013          	nop
ffffffff80216af0:	00000013          	nop
ffffffff80216af4:	00000013          	nop
ffffffff80216af8:	00000013          	nop
ffffffff80216afc:	00000013          	nop
ffffffff80216b00:	00000013          	nop
ffffffff80216b04:	00000013          	nop
ffffffff80216b08:	00000013          	nop
ffffffff80216b0c:	00000013          	nop
ffffffff80216b10:	00000013          	nop
ffffffff80216b14:	00000013          	nop
ffffffff80216b18:	00000013          	nop
ffffffff80216b1c:	00000013          	nop
ffffffff80216b20:	00000013          	nop
ffffffff80216b24:	00000013          	nop
ffffffff80216b28:	00000013          	nop
ffffffff80216b2c:	00000013          	nop
ffffffff80216b30:	00000013          	nop
ffffffff80216b34:	00000013          	nop
ffffffff80216b38:	00000013          	nop
ffffffff80216b3c:	00000013          	nop
ffffffff80216b40:	00000013          	nop
ffffffff80216b44:	00000013          	nop
ffffffff80216b48:	00000013          	nop
ffffffff80216b4c:	00000013          	nop
ffffffff80216b50:	00000013          	nop
ffffffff80216b54:	00000013          	nop
ffffffff80216b58:	00000013          	nop
ffffffff80216b5c:	00000013          	nop
ffffffff80216b60:	00000013          	nop
ffffffff80216b64:	00000013          	nop
ffffffff80216b68:	00000013          	nop
ffffffff80216b6c:	00000013          	nop
ffffffff80216b70:	00000013          	nop
ffffffff80216b74:	00000013          	nop
ffffffff80216b78:	00000013          	nop
ffffffff80216b7c:	00000013          	nop
ffffffff80216b80:	00000013          	nop
ffffffff80216b84:	00000013          	nop
ffffffff80216b88:	00000013          	nop
ffffffff80216b8c:	00000013          	nop
ffffffff80216b90:	00000013          	nop
ffffffff80216b94:	00000013          	nop
ffffffff80216b98:	00000013          	nop
ffffffff80216b9c:	00000013          	nop
ffffffff80216ba0:	00000013          	nop
ffffffff80216ba4:	00000013          	nop
ffffffff80216ba8:	00000013          	nop
ffffffff80216bac:	00000013          	nop
ffffffff80216bb0:	00000013          	nop
ffffffff80216bb4:	00000013          	nop
ffffffff80216bb8:	00000013          	nop
ffffffff80216bbc:	00000013          	nop
ffffffff80216bc0:	00000013          	nop
ffffffff80216bc4:	00000013          	nop
ffffffff80216bc8:	00000013          	nop
ffffffff80216bcc:	00000013          	nop
ffffffff80216bd0:	00000013          	nop
ffffffff80216bd4:	00000013          	nop
ffffffff80216bd8:	00000013          	nop
ffffffff80216bdc:	00000013          	nop
ffffffff80216be0:	00000013          	nop
ffffffff80216be4:	00000013          	nop
ffffffff80216be8:	00000013          	nop
ffffffff80216bec:	00000013          	nop
ffffffff80216bf0:	00000013          	nop
ffffffff80216bf4:	00000013          	nop
ffffffff80216bf8:	00000013          	nop
ffffffff80216bfc:	00000013          	nop
ffffffff80216c00:	00000013          	nop
ffffffff80216c04:	00000013          	nop
ffffffff80216c08:	00000013          	nop
ffffffff80216c0c:	00000013          	nop
ffffffff80216c10:	00000013          	nop
ffffffff80216c14:	00000013          	nop
ffffffff80216c18:	00000013          	nop
ffffffff80216c1c:	00000013          	nop
ffffffff80216c20:	00000013          	nop
ffffffff80216c24:	00000013          	nop
ffffffff80216c28:	00000013          	nop
ffffffff80216c2c:	00000013          	nop
ffffffff80216c30:	00000013          	nop
ffffffff80216c34:	00000013          	nop
ffffffff80216c38:	00000013          	nop
ffffffff80216c3c:	00000013          	nop
ffffffff80216c40:	00000013          	nop
ffffffff80216c44:	00000013          	nop
ffffffff80216c48:	00000013          	nop
ffffffff80216c4c:	00000013          	nop
ffffffff80216c50:	00000013          	nop
ffffffff80216c54:	00000013          	nop
ffffffff80216c58:	00000013          	nop
ffffffff80216c5c:	00000013          	nop
ffffffff80216c60:	00000013          	nop
ffffffff80216c64:	00000013          	nop
ffffffff80216c68:	00000013          	nop
ffffffff80216c6c:	00000013          	nop
ffffffff80216c70:	00000013          	nop
ffffffff80216c74:	00000013          	nop
ffffffff80216c78:	00000013          	nop
ffffffff80216c7c:	00000013          	nop
ffffffff80216c80:	00000013          	nop
ffffffff80216c84:	00000013          	nop
ffffffff80216c88:	00000013          	nop
ffffffff80216c8c:	00000013          	nop
ffffffff80216c90:	00000013          	nop
ffffffff80216c94:	00000013          	nop
ffffffff80216c98:	00000013          	nop
ffffffff80216c9c:	00000013          	nop
ffffffff80216ca0:	00000013          	nop
ffffffff80216ca4:	00000013          	nop
ffffffff80216ca8:	00000013          	nop
ffffffff80216cac:	00000013          	nop
ffffffff80216cb0:	00000013          	nop
ffffffff80216cb4:	00000013          	nop
ffffffff80216cb8:	00000013          	nop
ffffffff80216cbc:	00000013          	nop
ffffffff80216cc0:	00000013          	nop
ffffffff80216cc4:	00000013          	nop
ffffffff80216cc8:	00000013          	nop
ffffffff80216ccc:	00000013          	nop
ffffffff80216cd0:	00000013          	nop
ffffffff80216cd4:	00000013          	nop
ffffffff80216cd8:	00000013          	nop
ffffffff80216cdc:	00000013          	nop
ffffffff80216ce0:	00000013          	nop
ffffffff80216ce4:	00000013          	nop
ffffffff80216ce8:	00000013          	nop
ffffffff80216cec:	00000013          	nop
ffffffff80216cf0:	00000013          	nop
ffffffff80216cf4:	00000013          	nop
ffffffff80216cf8:	00000013          	nop
ffffffff80216cfc:	00000013          	nop
ffffffff80216d00:	00000013          	nop
ffffffff80216d04:	00000013          	nop
ffffffff80216d08:	00000013          	nop
ffffffff80216d0c:	00000013          	nop
ffffffff80216d10:	00000013          	nop
ffffffff80216d14:	00000013          	nop
ffffffff80216d18:	00000013          	nop
ffffffff80216d1c:	00000013          	nop
ffffffff80216d20:	00000013          	nop
ffffffff80216d24:	00000013          	nop
ffffffff80216d28:	00000013          	nop
ffffffff80216d2c:	00000013          	nop
ffffffff80216d30:	00000013          	nop
ffffffff80216d34:	00000013          	nop
ffffffff80216d38:	00000013          	nop
ffffffff80216d3c:	00000013          	nop
ffffffff80216d40:	00000013          	nop
ffffffff80216d44:	00000013          	nop
ffffffff80216d48:	00000013          	nop
ffffffff80216d4c:	00000013          	nop
ffffffff80216d50:	00000013          	nop
ffffffff80216d54:	00000013          	nop
ffffffff80216d58:	00000013          	nop
ffffffff80216d5c:	00000013          	nop
ffffffff80216d60:	00000013          	nop
ffffffff80216d64:	00000013          	nop
ffffffff80216d68:	00000013          	nop
ffffffff80216d6c:	00000013          	nop
ffffffff80216d70:	00000013          	nop
ffffffff80216d74:	00000013          	nop
ffffffff80216d78:	00000013          	nop
ffffffff80216d7c:	00000013          	nop
ffffffff80216d80:	00000013          	nop
ffffffff80216d84:	00000013          	nop
ffffffff80216d88:	00000013          	nop
ffffffff80216d8c:	00000013          	nop
ffffffff80216d90:	00000013          	nop
ffffffff80216d94:	00000013          	nop
ffffffff80216d98:	00000013          	nop
ffffffff80216d9c:	00000013          	nop
ffffffff80216da0:	00000013          	nop
ffffffff80216da4:	00000013          	nop
ffffffff80216da8:	00000013          	nop
ffffffff80216dac:	00000013          	nop
ffffffff80216db0:	00000013          	nop
ffffffff80216db4:	00000013          	nop
ffffffff80216db8:	00000013          	nop
ffffffff80216dbc:	00000013          	nop
ffffffff80216dc0:	00000013          	nop
ffffffff80216dc4:	00000013          	nop
ffffffff80216dc8:	00000013          	nop
ffffffff80216dcc:	00000013          	nop
ffffffff80216dd0:	00000013          	nop
ffffffff80216dd4:	00000013          	nop
ffffffff80216dd8:	00000013          	nop
ffffffff80216ddc:	00000013          	nop
ffffffff80216de0:	00000013          	nop
ffffffff80216de4:	00000013          	nop
ffffffff80216de8:	00000013          	nop
ffffffff80216dec:	00000013          	nop
ffffffff80216df0:	00000013          	nop
ffffffff80216df4:	00000013          	nop
ffffffff80216df8:	00000013          	nop
ffffffff80216dfc:	00000013          	nop
ffffffff80216e00:	00000013          	nop
ffffffff80216e04:	00000013          	nop
ffffffff80216e08:	00000013          	nop
ffffffff80216e0c:	00000013          	nop
ffffffff80216e10:	00000013          	nop
ffffffff80216e14:	00000013          	nop
ffffffff80216e18:	00000013          	nop
ffffffff80216e1c:	00000013          	nop
ffffffff80216e20:	00000013          	nop
ffffffff80216e24:	00000013          	nop
ffffffff80216e28:	00000013          	nop
ffffffff80216e2c:	00000013          	nop
ffffffff80216e30:	00000013          	nop
ffffffff80216e34:	00000013          	nop
ffffffff80216e38:	00000013          	nop
ffffffff80216e3c:	00000013          	nop
ffffffff80216e40:	00000013          	nop
ffffffff80216e44:	00000013          	nop
ffffffff80216e48:	00000013          	nop
ffffffff80216e4c:	00000013          	nop
ffffffff80216e50:	00000013          	nop
ffffffff80216e54:	00000013          	nop
ffffffff80216e58:	00000013          	nop
ffffffff80216e5c:	00000013          	nop
ffffffff80216e60:	00000013          	nop
ffffffff80216e64:	00000013          	nop
ffffffff80216e68:	00000013          	nop
ffffffff80216e6c:	00000013          	nop
ffffffff80216e70:	00000013          	nop
ffffffff80216e74:	00000013          	nop
ffffffff80216e78:	00000013          	nop
ffffffff80216e7c:	00000013          	nop
ffffffff80216e80:	00000013          	nop
ffffffff80216e84:	00000013          	nop
ffffffff80216e88:	00000013          	nop
ffffffff80216e8c:	00000013          	nop
ffffffff80216e90:	00000013          	nop
ffffffff80216e94:	00000013          	nop
ffffffff80216e98:	00000013          	nop
ffffffff80216e9c:	00000013          	nop
ffffffff80216ea0:	00000013          	nop
ffffffff80216ea4:	00000013          	nop
ffffffff80216ea8:	00000013          	nop
ffffffff80216eac:	00000013          	nop
ffffffff80216eb0:	00000013          	nop
ffffffff80216eb4:	00000013          	nop
ffffffff80216eb8:	00000013          	nop
ffffffff80216ebc:	00000013          	nop
ffffffff80216ec0:	00000013          	nop
ffffffff80216ec4:	00000013          	nop
ffffffff80216ec8:	00000013          	nop
ffffffff80216ecc:	00000013          	nop
ffffffff80216ed0:	00000013          	nop
ffffffff80216ed4:	00000013          	nop
ffffffff80216ed8:	00000013          	nop
ffffffff80216edc:	00000013          	nop
ffffffff80216ee0:	00000013          	nop
ffffffff80216ee4:	00000013          	nop
ffffffff80216ee8:	00000013          	nop
ffffffff80216eec:	00000013          	nop
ffffffff80216ef0:	00000013          	nop
ffffffff80216ef4:	00000013          	nop
ffffffff80216ef8:	00000013          	nop
ffffffff80216efc:	00000013          	nop
ffffffff80216f00:	00000013          	nop
ffffffff80216f04:	00000013          	nop
ffffffff80216f08:	00000013          	nop
ffffffff80216f0c:	00000013          	nop
ffffffff80216f10:	00000013          	nop
ffffffff80216f14:	00000013          	nop
ffffffff80216f18:	00000013          	nop
ffffffff80216f1c:	00000013          	nop
ffffffff80216f20:	00000013          	nop
ffffffff80216f24:	00000013          	nop
ffffffff80216f28:	00000013          	nop
ffffffff80216f2c:	00000013          	nop
ffffffff80216f30:	00000013          	nop
ffffffff80216f34:	00000013          	nop
ffffffff80216f38:	00000013          	nop
ffffffff80216f3c:	00000013          	nop
ffffffff80216f40:	00000013          	nop
ffffffff80216f44:	00000013          	nop
ffffffff80216f48:	00000013          	nop
ffffffff80216f4c:	00000013          	nop
ffffffff80216f50:	00000013          	nop
ffffffff80216f54:	00000013          	nop
ffffffff80216f58:	00000013          	nop
ffffffff80216f5c:	00000013          	nop
ffffffff80216f60:	00000013          	nop
ffffffff80216f64:	00000013          	nop
ffffffff80216f68:	00000013          	nop
ffffffff80216f6c:	00000013          	nop
ffffffff80216f70:	00000013          	nop
ffffffff80216f74:	00000013          	nop
ffffffff80216f78:	00000013          	nop
ffffffff80216f7c:	00000013          	nop
ffffffff80216f80:	00000013          	nop
ffffffff80216f84:	00000013          	nop
ffffffff80216f88:	00000013          	nop
ffffffff80216f8c:	00000013          	nop
ffffffff80216f90:	00000013          	nop
ffffffff80216f94:	00000013          	nop
ffffffff80216f98:	00000013          	nop
ffffffff80216f9c:	00000013          	nop
ffffffff80216fa0:	00000013          	nop
ffffffff80216fa4:	00000013          	nop
ffffffff80216fa8:	00000013          	nop
ffffffff80216fac:	00000013          	nop
ffffffff80216fb0:	00000013          	nop
ffffffff80216fb4:	00000013          	nop
ffffffff80216fb8:	00000013          	nop
ffffffff80216fbc:	00000013          	nop
ffffffff80216fc0:	00000013          	nop
ffffffff80216fc4:	00000013          	nop
ffffffff80216fc8:	00000013          	nop
ffffffff80216fcc:	00000013          	nop
ffffffff80216fd0:	00000013          	nop
ffffffff80216fd4:	00000013          	nop
ffffffff80216fd8:	00000013          	nop
ffffffff80216fdc:	00000013          	nop
ffffffff80216fe0:	00000013          	nop
ffffffff80216fe4:	00000013          	nop
ffffffff80216fe8:	00000013          	nop
ffffffff80216fec:	00000013          	nop
ffffffff80216ff0:	00000013          	nop
ffffffff80216ff4:	00000013          	nop
ffffffff80216ff8:	00000013          	nop
ffffffff80216ffc:	00000013          	nop
ffffffff80217000:	00000013          	nop
ffffffff80217004:	00000013          	nop
ffffffff80217008:	00000013          	nop
ffffffff8021700c:	00000013          	nop
ffffffff80217010:	00000013          	nop
ffffffff80217014:	00000013          	nop
ffffffff80217018:	00000013          	nop
ffffffff8021701c:	00000013          	nop
ffffffff80217020:	00000013          	nop
ffffffff80217024:	00000013          	nop
ffffffff80217028:	00000013          	nop
ffffffff8021702c:	00000013          	nop
ffffffff80217030:	00000013          	nop
ffffffff80217034:	00000013          	nop
ffffffff80217038:	00000013          	nop
ffffffff8021703c:	00000013          	nop
ffffffff80217040:	00000013          	nop
ffffffff80217044:	00000013          	nop
ffffffff80217048:	00000013          	nop
ffffffff8021704c:	00000013          	nop
ffffffff80217050:	00000013          	nop
ffffffff80217054:	00000013          	nop
ffffffff80217058:	00000013          	nop
ffffffff8021705c:	00000013          	nop
ffffffff80217060:	00000013          	nop
ffffffff80217064:	00000013          	nop
ffffffff80217068:	00000013          	nop
ffffffff8021706c:	00000013          	nop
ffffffff80217070:	00000013          	nop
ffffffff80217074:	00000013          	nop
ffffffff80217078:	00000013          	nop
ffffffff8021707c:	00000013          	nop
ffffffff80217080:	00000013          	nop
ffffffff80217084:	00000013          	nop
ffffffff80217088:	00000013          	nop
ffffffff8021708c:	00000013          	nop
ffffffff80217090:	00000013          	nop
ffffffff80217094:	00000013          	nop
ffffffff80217098:	00000013          	nop
ffffffff8021709c:	00000013          	nop
ffffffff802170a0:	00000013          	nop
ffffffff802170a4:	00000013          	nop
ffffffff802170a8:	00000013          	nop
ffffffff802170ac:	00000013          	nop
ffffffff802170b0:	00000013          	nop
ffffffff802170b4:	00000013          	nop
ffffffff802170b8:	00000013          	nop
ffffffff802170bc:	00000013          	nop
ffffffff802170c0:	00000013          	nop
ffffffff802170c4:	00000013          	nop
ffffffff802170c8:	00000013          	nop
ffffffff802170cc:	00000013          	nop
ffffffff802170d0:	00000013          	nop
ffffffff802170d4:	00000013          	nop
ffffffff802170d8:	00000013          	nop
ffffffff802170dc:	00000013          	nop
ffffffff802170e0:	00000013          	nop
ffffffff802170e4:	00000013          	nop
ffffffff802170e8:	00000013          	nop
ffffffff802170ec:	00000013          	nop
ffffffff802170f0:	00000013          	nop
ffffffff802170f4:	00000013          	nop
ffffffff802170f8:	00000013          	nop
ffffffff802170fc:	00000013          	nop
ffffffff80217100:	00000013          	nop
ffffffff80217104:	00000013          	nop
ffffffff80217108:	00000013          	nop
ffffffff8021710c:	00000013          	nop
ffffffff80217110:	00000013          	nop
ffffffff80217114:	00000013          	nop
ffffffff80217118:	00000013          	nop
ffffffff8021711c:	00000013          	nop
ffffffff80217120:	00000013          	nop
ffffffff80217124:	00000013          	nop
ffffffff80217128:	00000013          	nop
ffffffff8021712c:	00000013          	nop
ffffffff80217130:	00000013          	nop
ffffffff80217134:	00000013          	nop
ffffffff80217138:	00000013          	nop
ffffffff8021713c:	00000013          	nop
ffffffff80217140:	00000013          	nop
ffffffff80217144:	00000013          	nop
ffffffff80217148:	00000013          	nop
ffffffff8021714c:	00000013          	nop
ffffffff80217150:	00000013          	nop
ffffffff80217154:	00000013          	nop
ffffffff80217158:	00000013          	nop
ffffffff8021715c:	00000013          	nop
ffffffff80217160:	00000013          	nop
ffffffff80217164:	00000013          	nop
ffffffff80217168:	00000013          	nop
ffffffff8021716c:	00000013          	nop
ffffffff80217170:	00000013          	nop
ffffffff80217174:	00000013          	nop
ffffffff80217178:	00000013          	nop
ffffffff8021717c:	00000013          	nop
ffffffff80217180:	00000013          	nop
ffffffff80217184:	00000013          	nop
ffffffff80217188:	00000013          	nop
ffffffff8021718c:	00000013          	nop
ffffffff80217190:	00000013          	nop
ffffffff80217194:	00000013          	nop
ffffffff80217198:	00000013          	nop
ffffffff8021719c:	00000013          	nop
ffffffff802171a0:	00000013          	nop
ffffffff802171a4:	00000013          	nop
ffffffff802171a8:	00000013          	nop
ffffffff802171ac:	00000013          	nop
ffffffff802171b0:	00000013          	nop
ffffffff802171b4:	00000013          	nop
ffffffff802171b8:	00000013          	nop
ffffffff802171bc:	00000013          	nop
ffffffff802171c0:	00000013          	nop
ffffffff802171c4:	00000013          	nop
ffffffff802171c8:	00000013          	nop
ffffffff802171cc:	00000013          	nop
ffffffff802171d0:	00000013          	nop
ffffffff802171d4:	00000013          	nop
ffffffff802171d8:	00000013          	nop
ffffffff802171dc:	00000013          	nop
ffffffff802171e0:	00000013          	nop
ffffffff802171e4:	00000013          	nop
ffffffff802171e8:	00000013          	nop
ffffffff802171ec:	00000013          	nop
ffffffff802171f0:	00000013          	nop
ffffffff802171f4:	00000013          	nop
ffffffff802171f8:	00000013          	nop
ffffffff802171fc:	00000013          	nop
ffffffff80217200:	00000013          	nop
ffffffff80217204:	00000013          	nop
ffffffff80217208:	00000013          	nop
ffffffff8021720c:	00000013          	nop
ffffffff80217210:	00000013          	nop
ffffffff80217214:	00000013          	nop
ffffffff80217218:	00000013          	nop
ffffffff8021721c:	00000013          	nop
ffffffff80217220:	00000013          	nop
ffffffff80217224:	00000013          	nop
ffffffff80217228:	00000013          	nop
ffffffff8021722c:	00000013          	nop
ffffffff80217230:	00000013          	nop
ffffffff80217234:	00000013          	nop
ffffffff80217238:	00000013          	nop
ffffffff8021723c:	00000013          	nop
ffffffff80217240:	00000013          	nop
ffffffff80217244:	00000013          	nop
ffffffff80217248:	00000013          	nop
ffffffff8021724c:	00000013          	nop
ffffffff80217250:	00000013          	nop
ffffffff80217254:	00000013          	nop
ffffffff80217258:	00000013          	nop
ffffffff8021725c:	00000013          	nop
ffffffff80217260:	00000013          	nop
ffffffff80217264:	00000013          	nop
ffffffff80217268:	00000013          	nop
ffffffff8021726c:	00000013          	nop
ffffffff80217270:	00000013          	nop
ffffffff80217274:	00000013          	nop
ffffffff80217278:	00000013          	nop
ffffffff8021727c:	00000013          	nop
ffffffff80217280:	00000013          	nop
ffffffff80217284:	00000013          	nop
ffffffff80217288:	00000013          	nop
ffffffff8021728c:	00000013          	nop
ffffffff80217290:	00000013          	nop
ffffffff80217294:	00000013          	nop
ffffffff80217298:	00000013          	nop
ffffffff8021729c:	00000013          	nop
ffffffff802172a0:	00000013          	nop
ffffffff802172a4:	00000013          	nop
ffffffff802172a8:	00000013          	nop
ffffffff802172ac:	00000013          	nop
ffffffff802172b0:	00000013          	nop
ffffffff802172b4:	00000013          	nop
ffffffff802172b8:	00000013          	nop
ffffffff802172bc:	00000013          	nop
ffffffff802172c0:	00000013          	nop
ffffffff802172c4:	00000013          	nop
ffffffff802172c8:	00000013          	nop
ffffffff802172cc:	00000013          	nop
ffffffff802172d0:	00000013          	nop
ffffffff802172d4:	00000013          	nop
ffffffff802172d8:	00000013          	nop
ffffffff802172dc:	00000013          	nop
ffffffff802172e0:	00000013          	nop
ffffffff802172e4:	00000013          	nop
ffffffff802172e8:	00000013          	nop
ffffffff802172ec:	00000013          	nop
ffffffff802172f0:	00000013          	nop
ffffffff802172f4:	00000013          	nop
ffffffff802172f8:	00000013          	nop
ffffffff802172fc:	00000013          	nop
ffffffff80217300:	00000013          	nop
ffffffff80217304:	00000013          	nop
ffffffff80217308:	00000013          	nop
ffffffff8021730c:	00000013          	nop
ffffffff80217310:	00000013          	nop
ffffffff80217314:	00000013          	nop
ffffffff80217318:	00000013          	nop
ffffffff8021731c:	00000013          	nop
ffffffff80217320:	00000013          	nop
ffffffff80217324:	00000013          	nop
ffffffff80217328:	00000013          	nop
ffffffff8021732c:	00000013          	nop
ffffffff80217330:	00000013          	nop
ffffffff80217334:	00000013          	nop
ffffffff80217338:	00000013          	nop
ffffffff8021733c:	00000013          	nop
ffffffff80217340:	00000013          	nop
ffffffff80217344:	00000013          	nop
ffffffff80217348:	00000013          	nop
ffffffff8021734c:	00000013          	nop
ffffffff80217350:	00000013          	nop
ffffffff80217354:	00000013          	nop
ffffffff80217358:	00000013          	nop
ffffffff8021735c:	00000013          	nop
ffffffff80217360:	00000013          	nop
ffffffff80217364:	00000013          	nop
ffffffff80217368:	00000013          	nop
ffffffff8021736c:	00000013          	nop
ffffffff80217370:	00000013          	nop
ffffffff80217374:	00000013          	nop
ffffffff80217378:	00000013          	nop
ffffffff8021737c:	00000013          	nop
ffffffff80217380:	00000013          	nop
ffffffff80217384:	00000013          	nop
ffffffff80217388:	00000013          	nop
ffffffff8021738c:	00000013          	nop
ffffffff80217390:	00000013          	nop
ffffffff80217394:	00000013          	nop
ffffffff80217398:	00000013          	nop
ffffffff8021739c:	00000013          	nop
ffffffff802173a0:	00000013          	nop
ffffffff802173a4:	00000013          	nop
ffffffff802173a8:	00000013          	nop
ffffffff802173ac:	00000013          	nop
ffffffff802173b0:	00000013          	nop
ffffffff802173b4:	00000013          	nop
ffffffff802173b8:	00000013          	nop
ffffffff802173bc:	00000013          	nop
ffffffff802173c0:	00000013          	nop
ffffffff802173c4:	00000013          	nop
ffffffff802173c8:	00000013          	nop
ffffffff802173cc:	00000013          	nop
ffffffff802173d0:	00000013          	nop
ffffffff802173d4:	00000013          	nop
ffffffff802173d8:	00000013          	nop
ffffffff802173dc:	00000013          	nop
ffffffff802173e0:	00000013          	nop
ffffffff802173e4:	00000013          	nop
ffffffff802173e8:	00000013          	nop
ffffffff802173ec:	00000013          	nop
ffffffff802173f0:	00000013          	nop
ffffffff802173f4:	00000013          	nop
ffffffff802173f8:	00000013          	nop
ffffffff802173fc:	00000013          	nop
ffffffff80217400:	00000013          	nop
ffffffff80217404:	00000013          	nop
ffffffff80217408:	00000013          	nop
ffffffff8021740c:	00000013          	nop
ffffffff80217410:	00000013          	nop
ffffffff80217414:	00000013          	nop
ffffffff80217418:	00000013          	nop
ffffffff8021741c:	00000013          	nop
ffffffff80217420:	00000013          	nop
ffffffff80217424:	00000013          	nop
ffffffff80217428:	00000013          	nop
ffffffff8021742c:	00000013          	nop
ffffffff80217430:	00000013          	nop
ffffffff80217434:	00000013          	nop
ffffffff80217438:	00000013          	nop
ffffffff8021743c:	00000013          	nop
ffffffff80217440:	00000013          	nop
ffffffff80217444:	00000013          	nop
ffffffff80217448:	00000013          	nop
ffffffff8021744c:	00000013          	nop
ffffffff80217450:	00000013          	nop
ffffffff80217454:	00000013          	nop
ffffffff80217458:	00000013          	nop
ffffffff8021745c:	00000013          	nop
ffffffff80217460:	00000013          	nop
ffffffff80217464:	00000013          	nop
ffffffff80217468:	00000013          	nop
ffffffff8021746c:	00000013          	nop
ffffffff80217470:	00000013          	nop
ffffffff80217474:	00000013          	nop
ffffffff80217478:	00000013          	nop
ffffffff8021747c:	00000013          	nop
ffffffff80217480:	00000013          	nop
ffffffff80217484:	00000013          	nop
ffffffff80217488:	00000013          	nop
ffffffff8021748c:	00000013          	nop
ffffffff80217490:	00000013          	nop
ffffffff80217494:	00000013          	nop
ffffffff80217498:	00000013          	nop
ffffffff8021749c:	00000013          	nop
ffffffff802174a0:	00000013          	nop
ffffffff802174a4:	00000013          	nop
ffffffff802174a8:	00000013          	nop
ffffffff802174ac:	00000013          	nop
ffffffff802174b0:	00000013          	nop
ffffffff802174b4:	00000013          	nop
ffffffff802174b8:	00000013          	nop
ffffffff802174bc:	00000013          	nop
ffffffff802174c0:	00000013          	nop
ffffffff802174c4:	00000013          	nop
ffffffff802174c8:	00000013          	nop
ffffffff802174cc:	00000013          	nop
ffffffff802174d0:	00000013          	nop
ffffffff802174d4:	00000013          	nop
ffffffff802174d8:	00000013          	nop
ffffffff802174dc:	00000013          	nop
ffffffff802174e0:	00000013          	nop
ffffffff802174e4:	00000013          	nop
ffffffff802174e8:	00000013          	nop
ffffffff802174ec:	00000013          	nop
ffffffff802174f0:	00000013          	nop
ffffffff802174f4:	00000013          	nop
ffffffff802174f8:	00000013          	nop
ffffffff802174fc:	00000013          	nop
ffffffff80217500:	00000013          	nop
ffffffff80217504:	00000013          	nop
ffffffff80217508:	00000013          	nop
ffffffff8021750c:	00000013          	nop
ffffffff80217510:	00000013          	nop
ffffffff80217514:	00000013          	nop
ffffffff80217518:	00000013          	nop
ffffffff8021751c:	00000013          	nop
ffffffff80217520:	00000013          	nop
ffffffff80217524:	00000013          	nop
ffffffff80217528:	00000013          	nop
ffffffff8021752c:	00000013          	nop
ffffffff80217530:	00000013          	nop
ffffffff80217534:	00000013          	nop
ffffffff80217538:	00000013          	nop
ffffffff8021753c:	00000013          	nop
ffffffff80217540:	00000013          	nop
ffffffff80217544:	00000013          	nop
ffffffff80217548:	00000013          	nop
ffffffff8021754c:	00000013          	nop
ffffffff80217550:	00000013          	nop
ffffffff80217554:	00000013          	nop
ffffffff80217558:	00000013          	nop
ffffffff8021755c:	00000013          	nop
ffffffff80217560:	00000013          	nop
ffffffff80217564:	00000013          	nop
ffffffff80217568:	00000013          	nop
ffffffff8021756c:	00000013          	nop
ffffffff80217570:	00000013          	nop
ffffffff80217574:	00000013          	nop
ffffffff80217578:	00000013          	nop
ffffffff8021757c:	00000013          	nop
ffffffff80217580:	00000013          	nop
ffffffff80217584:	00000013          	nop
ffffffff80217588:	00000013          	nop
ffffffff8021758c:	00000013          	nop
ffffffff80217590:	00000013          	nop
ffffffff80217594:	00000013          	nop
ffffffff80217598:	00000013          	nop
ffffffff8021759c:	00000013          	nop
ffffffff802175a0:	00000013          	nop
ffffffff802175a4:	00000013          	nop
ffffffff802175a8:	00000013          	nop
ffffffff802175ac:	00000013          	nop
ffffffff802175b0:	00000013          	nop
ffffffff802175b4:	00000013          	nop
ffffffff802175b8:	00000013          	nop
ffffffff802175bc:	00000013          	nop
ffffffff802175c0:	00000013          	nop
ffffffff802175c4:	00000013          	nop
ffffffff802175c8:	00000013          	nop
ffffffff802175cc:	00000013          	nop
ffffffff802175d0:	00000013          	nop
ffffffff802175d4:	00000013          	nop
ffffffff802175d8:	00000013          	nop
ffffffff802175dc:	00000013          	nop
ffffffff802175e0:	00000013          	nop
ffffffff802175e4:	00000013          	nop
ffffffff802175e8:	00000013          	nop
ffffffff802175ec:	00000013          	nop
ffffffff802175f0:	00000013          	nop
ffffffff802175f4:	00000013          	nop
ffffffff802175f8:	00000013          	nop
ffffffff802175fc:	00000013          	nop
ffffffff80217600:	00000013          	nop
ffffffff80217604:	00000013          	nop
ffffffff80217608:	00000013          	nop
ffffffff8021760c:	00000013          	nop
ffffffff80217610:	00000013          	nop
ffffffff80217614:	00000013          	nop
ffffffff80217618:	00000013          	nop
ffffffff8021761c:	00000013          	nop
ffffffff80217620:	00000013          	nop
ffffffff80217624:	00000013          	nop
ffffffff80217628:	00000013          	nop
ffffffff8021762c:	00000013          	nop
ffffffff80217630:	00000013          	nop
ffffffff80217634:	00000013          	nop
ffffffff80217638:	00000013          	nop
ffffffff8021763c:	00000013          	nop
ffffffff80217640:	00000013          	nop
ffffffff80217644:	00000013          	nop
ffffffff80217648:	00000013          	nop
ffffffff8021764c:	00000013          	nop
ffffffff80217650:	00000013          	nop
ffffffff80217654:	00000013          	nop
ffffffff80217658:	00000013          	nop
ffffffff8021765c:	00000013          	nop
ffffffff80217660:	00000013          	nop
ffffffff80217664:	00000013          	nop
ffffffff80217668:	00000013          	nop
ffffffff8021766c:	00000013          	nop
ffffffff80217670:	00000013          	nop
ffffffff80217674:	00000013          	nop
ffffffff80217678:	00000013          	nop
ffffffff8021767c:	00000013          	nop
ffffffff80217680:	00000013          	nop
ffffffff80217684:	00000013          	nop
ffffffff80217688:	00000013          	nop
ffffffff8021768c:	00000013          	nop
ffffffff80217690:	00000013          	nop
ffffffff80217694:	00000013          	nop
ffffffff80217698:	00000013          	nop
ffffffff8021769c:	00000013          	nop
ffffffff802176a0:	00000013          	nop
ffffffff802176a4:	00000013          	nop
ffffffff802176a8:	00000013          	nop
ffffffff802176ac:	00000013          	nop
ffffffff802176b0:	00000013          	nop
ffffffff802176b4:	00000013          	nop
ffffffff802176b8:	00000013          	nop
ffffffff802176bc:	00000013          	nop
ffffffff802176c0:	00000013          	nop
ffffffff802176c4:	00000013          	nop
ffffffff802176c8:	00000013          	nop
ffffffff802176cc:	00000013          	nop
ffffffff802176d0:	00000013          	nop
ffffffff802176d4:	00000013          	nop
ffffffff802176d8:	00000013          	nop
ffffffff802176dc:	00000013          	nop
ffffffff802176e0:	00000013          	nop
ffffffff802176e4:	00000013          	nop
ffffffff802176e8:	00000013          	nop
ffffffff802176ec:	00000013          	nop
ffffffff802176f0:	00000013          	nop
ffffffff802176f4:	00000013          	nop
ffffffff802176f8:	00000013          	nop
ffffffff802176fc:	00000013          	nop
ffffffff80217700:	00000013          	nop
ffffffff80217704:	00000013          	nop
ffffffff80217708:	00000013          	nop
ffffffff8021770c:	00000013          	nop
ffffffff80217710:	00000013          	nop
ffffffff80217714:	00000013          	nop
ffffffff80217718:	00000013          	nop
ffffffff8021771c:	00000013          	nop
ffffffff80217720:	00000013          	nop
ffffffff80217724:	00000013          	nop
ffffffff80217728:	00000013          	nop
ffffffff8021772c:	00000013          	nop
ffffffff80217730:	00000013          	nop
ffffffff80217734:	00000013          	nop
ffffffff80217738:	00000013          	nop
ffffffff8021773c:	00000013          	nop
ffffffff80217740:	00000013          	nop
ffffffff80217744:	00000013          	nop
ffffffff80217748:	00000013          	nop
ffffffff8021774c:	00000013          	nop
ffffffff80217750:	00000013          	nop
ffffffff80217754:	00000013          	nop
ffffffff80217758:	00000013          	nop
ffffffff8021775c:	00000013          	nop
ffffffff80217760:	00000013          	nop
ffffffff80217764:	00000013          	nop
ffffffff80217768:	00000013          	nop
ffffffff8021776c:	00000013          	nop
ffffffff80217770:	00000013          	nop
ffffffff80217774:	00000013          	nop
ffffffff80217778:	00000013          	nop
ffffffff8021777c:	00000013          	nop
ffffffff80217780:	00000013          	nop
ffffffff80217784:	00000013          	nop
ffffffff80217788:	00000013          	nop
ffffffff8021778c:	00000013          	nop
ffffffff80217790:	00000013          	nop
ffffffff80217794:	00000013          	nop
ffffffff80217798:	00000013          	nop
ffffffff8021779c:	00000013          	nop
ffffffff802177a0:	00000013          	nop
ffffffff802177a4:	00000013          	nop
ffffffff802177a8:	00000013          	nop
ffffffff802177ac:	00000013          	nop
ffffffff802177b0:	00000013          	nop
ffffffff802177b4:	00000013          	nop
ffffffff802177b8:	00000013          	nop
ffffffff802177bc:	00000013          	nop
ffffffff802177c0:	00000013          	nop
ffffffff802177c4:	00000013          	nop
ffffffff802177c8:	00000013          	nop
ffffffff802177cc:	00000013          	nop
ffffffff802177d0:	00000013          	nop
ffffffff802177d4:	00000013          	nop
ffffffff802177d8:	00000013          	nop
ffffffff802177dc:	00000013          	nop
ffffffff802177e0:	00000013          	nop
ffffffff802177e4:	00000013          	nop
ffffffff802177e8:	00000013          	nop
ffffffff802177ec:	00000013          	nop
ffffffff802177f0:	00000013          	nop
ffffffff802177f4:	00000013          	nop
ffffffff802177f8:	00000013          	nop
ffffffff802177fc:	00000013          	nop
ffffffff80217800:	00000013          	nop
ffffffff80217804:	00000013          	nop
ffffffff80217808:	00000013          	nop
ffffffff8021780c:	00000013          	nop
ffffffff80217810:	00000013          	nop
ffffffff80217814:	00000013          	nop
ffffffff80217818:	00000013          	nop
ffffffff8021781c:	00000013          	nop
ffffffff80217820:	00000013          	nop
ffffffff80217824:	00000013          	nop
ffffffff80217828:	00000013          	nop
ffffffff8021782c:	00000013          	nop
ffffffff80217830:	00000013          	nop
ffffffff80217834:	00000013          	nop
ffffffff80217838:	00000013          	nop
ffffffff8021783c:	00000013          	nop
ffffffff80217840:	00000013          	nop
ffffffff80217844:	00000013          	nop
ffffffff80217848:	00000013          	nop
ffffffff8021784c:	00000013          	nop
ffffffff80217850:	00000013          	nop
ffffffff80217854:	00000013          	nop
ffffffff80217858:	00000013          	nop
ffffffff8021785c:	00000013          	nop
ffffffff80217860:	00000013          	nop
ffffffff80217864:	00000013          	nop
ffffffff80217868:	00000013          	nop
ffffffff8021786c:	00000013          	nop
ffffffff80217870:	00000013          	nop
ffffffff80217874:	00000013          	nop
ffffffff80217878:	00000013          	nop
ffffffff8021787c:	00000013          	nop
ffffffff80217880:	00000013          	nop
ffffffff80217884:	00000013          	nop
ffffffff80217888:	00000013          	nop
ffffffff8021788c:	00000013          	nop
ffffffff80217890:	00000013          	nop
ffffffff80217894:	00000013          	nop
ffffffff80217898:	00000013          	nop
ffffffff8021789c:	00000013          	nop
ffffffff802178a0:	00000013          	nop
ffffffff802178a4:	00000013          	nop
ffffffff802178a8:	00000013          	nop
ffffffff802178ac:	00000013          	nop
ffffffff802178b0:	00000013          	nop
ffffffff802178b4:	00000013          	nop
ffffffff802178b8:	00000013          	nop
ffffffff802178bc:	00000013          	nop
ffffffff802178c0:	00000013          	nop
ffffffff802178c4:	00000013          	nop
ffffffff802178c8:	00000013          	nop
ffffffff802178cc:	00000013          	nop
ffffffff802178d0:	00000013          	nop
ffffffff802178d4:	00000013          	nop
ffffffff802178d8:	00000013          	nop
ffffffff802178dc:	00000013          	nop
ffffffff802178e0:	00000013          	nop
ffffffff802178e4:	00000013          	nop
ffffffff802178e8:	00000013          	nop
ffffffff802178ec:	00000013          	nop
ffffffff802178f0:	00000013          	nop
ffffffff802178f4:	00000013          	nop
ffffffff802178f8:	00000013          	nop
ffffffff802178fc:	00000013          	nop
ffffffff80217900:	00000013          	nop
ffffffff80217904:	00000013          	nop
ffffffff80217908:	00000013          	nop
ffffffff8021790c:	00000013          	nop
ffffffff80217910:	00000013          	nop
ffffffff80217914:	00000013          	nop
ffffffff80217918:	00000013          	nop
ffffffff8021791c:	00000013          	nop
ffffffff80217920:	00000013          	nop
ffffffff80217924:	00000013          	nop
ffffffff80217928:	00000013          	nop
ffffffff8021792c:	00000013          	nop
ffffffff80217930:	00000013          	nop
ffffffff80217934:	00000013          	nop
ffffffff80217938:	00000013          	nop
ffffffff8021793c:	00000013          	nop
ffffffff80217940:	00000013          	nop
ffffffff80217944:	00000013          	nop
ffffffff80217948:	00000013          	nop
ffffffff8021794c:	00000013          	nop
ffffffff80217950:	00000013          	nop
ffffffff80217954:	00000013          	nop
ffffffff80217958:	00000013          	nop
ffffffff8021795c:	00000013          	nop
ffffffff80217960:	00000013          	nop
ffffffff80217964:	00000013          	nop
ffffffff80217968:	00000013          	nop
ffffffff8021796c:	00000013          	nop
ffffffff80217970:	00000013          	nop
ffffffff80217974:	00000013          	nop
ffffffff80217978:	00000013          	nop
ffffffff8021797c:	00000013          	nop
ffffffff80217980:	00000013          	nop
ffffffff80217984:	00000013          	nop
ffffffff80217988:	00000013          	nop
ffffffff8021798c:	00000013          	nop
ffffffff80217990:	00000013          	nop
ffffffff80217994:	00000013          	nop
ffffffff80217998:	00000013          	nop
ffffffff8021799c:	00000013          	nop
ffffffff802179a0:	00000013          	nop
ffffffff802179a4:	00000013          	nop
ffffffff802179a8:	00000013          	nop
ffffffff802179ac:	00000013          	nop
ffffffff802179b0:	00000013          	nop
ffffffff802179b4:	00000013          	nop
ffffffff802179b8:	00000013          	nop
ffffffff802179bc:	00000013          	nop
ffffffff802179c0:	00000013          	nop
ffffffff802179c4:	00000013          	nop
ffffffff802179c8:	00000013          	nop
ffffffff802179cc:	00000013          	nop
ffffffff802179d0:	00000013          	nop
ffffffff802179d4:	00000013          	nop
ffffffff802179d8:	00000013          	nop
ffffffff802179dc:	00000013          	nop
ffffffff802179e0:	00000013          	nop
ffffffff802179e4:	00000013          	nop
ffffffff802179e8:	00000013          	nop
ffffffff802179ec:	00000013          	nop
ffffffff802179f0:	00000013          	nop
ffffffff802179f4:	00000013          	nop
ffffffff802179f8:	00000013          	nop
ffffffff802179fc:	00000013          	nop
ffffffff80217a00:	00000013          	nop
ffffffff80217a04:	00000013          	nop
ffffffff80217a08:	00000013          	nop
ffffffff80217a0c:	00000013          	nop
ffffffff80217a10:	00000013          	nop
ffffffff80217a14:	00000013          	nop
ffffffff80217a18:	00000013          	nop
ffffffff80217a1c:	00000013          	nop
ffffffff80217a20:	00000013          	nop
ffffffff80217a24:	00000013          	nop
ffffffff80217a28:	00000013          	nop
ffffffff80217a2c:	00000013          	nop
ffffffff80217a30:	00000013          	nop
ffffffff80217a34:	00000013          	nop
ffffffff80217a38:	00000013          	nop
ffffffff80217a3c:	00000013          	nop
ffffffff80217a40:	00000013          	nop
ffffffff80217a44:	00000013          	nop
ffffffff80217a48:	00000013          	nop
ffffffff80217a4c:	00000013          	nop
ffffffff80217a50:	00000013          	nop
ffffffff80217a54:	00000013          	nop
ffffffff80217a58:	00000013          	nop
ffffffff80217a5c:	00000013          	nop
ffffffff80217a60:	00000013          	nop
ffffffff80217a64:	00000013          	nop
ffffffff80217a68:	00000013          	nop
ffffffff80217a6c:	00000013          	nop
ffffffff80217a70:	00000013          	nop
ffffffff80217a74:	00000013          	nop
ffffffff80217a78:	00000013          	nop
ffffffff80217a7c:	00000013          	nop
ffffffff80217a80:	00000013          	nop
ffffffff80217a84:	00000013          	nop
ffffffff80217a88:	00000013          	nop
ffffffff80217a8c:	00000013          	nop
ffffffff80217a90:	00000013          	nop
ffffffff80217a94:	00000013          	nop
ffffffff80217a98:	00000013          	nop
ffffffff80217a9c:	00000013          	nop
ffffffff80217aa0:	00000013          	nop
ffffffff80217aa4:	00000013          	nop
ffffffff80217aa8:	00000013          	nop
ffffffff80217aac:	00000013          	nop
ffffffff80217ab0:	00000013          	nop
ffffffff80217ab4:	00000013          	nop
ffffffff80217ab8:	00000013          	nop
ffffffff80217abc:	00000013          	nop
ffffffff80217ac0:	00000013          	nop
ffffffff80217ac4:	00000013          	nop
ffffffff80217ac8:	00000013          	nop
ffffffff80217acc:	00000013          	nop
ffffffff80217ad0:	00000013          	nop
ffffffff80217ad4:	00000013          	nop
ffffffff80217ad8:	00000013          	nop
ffffffff80217adc:	00000013          	nop
ffffffff80217ae0:	00000013          	nop
ffffffff80217ae4:	00000013          	nop
ffffffff80217ae8:	00000013          	nop
ffffffff80217aec:	00000013          	nop
ffffffff80217af0:	00000013          	nop
ffffffff80217af4:	00000013          	nop
ffffffff80217af8:	00000013          	nop
ffffffff80217afc:	00000013          	nop
ffffffff80217b00:	00000013          	nop
ffffffff80217b04:	00000013          	nop
ffffffff80217b08:	00000013          	nop
ffffffff80217b0c:	00000013          	nop
ffffffff80217b10:	00000013          	nop
ffffffff80217b14:	00000013          	nop
ffffffff80217b18:	00000013          	nop
ffffffff80217b1c:	00000013          	nop
ffffffff80217b20:	00000013          	nop
ffffffff80217b24:	00000013          	nop
ffffffff80217b28:	00000013          	nop
ffffffff80217b2c:	00000013          	nop
ffffffff80217b30:	00000013          	nop
ffffffff80217b34:	00000013          	nop
ffffffff80217b38:	00000013          	nop
ffffffff80217b3c:	00000013          	nop
ffffffff80217b40:	00000013          	nop
ffffffff80217b44:	00000013          	nop
ffffffff80217b48:	00000013          	nop
ffffffff80217b4c:	00000013          	nop
ffffffff80217b50:	00000013          	nop
ffffffff80217b54:	00000013          	nop
ffffffff80217b58:	00000013          	nop
ffffffff80217b5c:	00000013          	nop
ffffffff80217b60:	00000013          	nop
ffffffff80217b64:	00000013          	nop
ffffffff80217b68:	00000013          	nop
ffffffff80217b6c:	00000013          	nop
ffffffff80217b70:	00000013          	nop
ffffffff80217b74:	00000013          	nop
ffffffff80217b78:	00000013          	nop
ffffffff80217b7c:	00000013          	nop
ffffffff80217b80:	00000013          	nop
ffffffff80217b84:	00000013          	nop
ffffffff80217b88:	00000013          	nop
ffffffff80217b8c:	00000013          	nop
ffffffff80217b90:	00000013          	nop
ffffffff80217b94:	00000013          	nop
ffffffff80217b98:	00000013          	nop
ffffffff80217b9c:	00000013          	nop
ffffffff80217ba0:	00000013          	nop
ffffffff80217ba4:	00000013          	nop
ffffffff80217ba8:	00000013          	nop
ffffffff80217bac:	00000013          	nop
ffffffff80217bb0:	00000013          	nop
ffffffff80217bb4:	00000013          	nop
ffffffff80217bb8:	00000013          	nop
ffffffff80217bbc:	00000013          	nop
ffffffff80217bc0:	00000013          	nop
ffffffff80217bc4:	00000013          	nop
ffffffff80217bc8:	00000013          	nop
ffffffff80217bcc:	00000013          	nop
ffffffff80217bd0:	00000013          	nop
ffffffff80217bd4:	00000013          	nop
ffffffff80217bd8:	00000013          	nop
ffffffff80217bdc:	00000013          	nop
ffffffff80217be0:	00000013          	nop
ffffffff80217be4:	00000013          	nop
ffffffff80217be8:	00000013          	nop
ffffffff80217bec:	00000013          	nop
ffffffff80217bf0:	00000013          	nop
ffffffff80217bf4:	00000013          	nop
ffffffff80217bf8:	00000013          	nop
ffffffff80217bfc:	00000013          	nop
ffffffff80217c00:	00000013          	nop
ffffffff80217c04:	00000013          	nop
ffffffff80217c08:	00000013          	nop
ffffffff80217c0c:	00000013          	nop
ffffffff80217c10:	00000013          	nop
ffffffff80217c14:	00000013          	nop
ffffffff80217c18:	00000013          	nop
ffffffff80217c1c:	00000013          	nop
ffffffff80217c20:	00000013          	nop
ffffffff80217c24:	00000013          	nop
ffffffff80217c28:	00000013          	nop
ffffffff80217c2c:	00000013          	nop
ffffffff80217c30:	00000013          	nop
ffffffff80217c34:	00000013          	nop
ffffffff80217c38:	00000013          	nop
ffffffff80217c3c:	00000013          	nop
ffffffff80217c40:	00000013          	nop
ffffffff80217c44:	00000013          	nop
ffffffff80217c48:	00000013          	nop
ffffffff80217c4c:	00000013          	nop
ffffffff80217c50:	00000013          	nop
ffffffff80217c54:	00000013          	nop
ffffffff80217c58:	00000013          	nop
ffffffff80217c5c:	00000013          	nop
ffffffff80217c60:	00000013          	nop
ffffffff80217c64:	00000013          	nop
ffffffff80217c68:	00000013          	nop
ffffffff80217c6c:	00000013          	nop
ffffffff80217c70:	00000013          	nop
ffffffff80217c74:	00000013          	nop
ffffffff80217c78:	00000013          	nop
ffffffff80217c7c:	00000013          	nop
ffffffff80217c80:	00000013          	nop
ffffffff80217c84:	00000013          	nop
ffffffff80217c88:	00000013          	nop
ffffffff80217c8c:	00000013          	nop
ffffffff80217c90:	00000013          	nop
ffffffff80217c94:	00000013          	nop
ffffffff80217c98:	00000013          	nop
ffffffff80217c9c:	00000013          	nop
ffffffff80217ca0:	00000013          	nop
ffffffff80217ca4:	00000013          	nop
ffffffff80217ca8:	00000013          	nop
ffffffff80217cac:	00000013          	nop
ffffffff80217cb0:	00000013          	nop
ffffffff80217cb4:	00000013          	nop
ffffffff80217cb8:	00000013          	nop
ffffffff80217cbc:	00000013          	nop
ffffffff80217cc0:	00000013          	nop
ffffffff80217cc4:	00000013          	nop
ffffffff80217cc8:	00000013          	nop
ffffffff80217ccc:	00000013          	nop
ffffffff80217cd0:	00000013          	nop
ffffffff80217cd4:	00000013          	nop
ffffffff80217cd8:	00000013          	nop
ffffffff80217cdc:	00000013          	nop
ffffffff80217ce0:	00000013          	nop
ffffffff80217ce4:	00000013          	nop
ffffffff80217ce8:	00000013          	nop
ffffffff80217cec:	00000013          	nop
ffffffff80217cf0:	00000013          	nop
ffffffff80217cf4:	00000013          	nop
ffffffff80217cf8:	00000013          	nop
ffffffff80217cfc:	00000013          	nop
ffffffff80217d00:	00000013          	nop
ffffffff80217d04:	00000013          	nop
ffffffff80217d08:	00000013          	nop
ffffffff80217d0c:	00000013          	nop
ffffffff80217d10:	00000013          	nop
ffffffff80217d14:	00000013          	nop
ffffffff80217d18:	00000013          	nop
ffffffff80217d1c:	00000013          	nop
ffffffff80217d20:	00000013          	nop
ffffffff80217d24:	00000013          	nop
ffffffff80217d28:	00000013          	nop
ffffffff80217d2c:	00000013          	nop
ffffffff80217d30:	00000013          	nop
ffffffff80217d34:	00000013          	nop
ffffffff80217d38:	00000013          	nop
ffffffff80217d3c:	00000013          	nop
ffffffff80217d40:	00000013          	nop
ffffffff80217d44:	00000013          	nop
ffffffff80217d48:	00000013          	nop
ffffffff80217d4c:	00000013          	nop
ffffffff80217d50:	00000013          	nop
ffffffff80217d54:	00000013          	nop
ffffffff80217d58:	00000013          	nop
ffffffff80217d5c:	00000013          	nop
ffffffff80217d60:	00000013          	nop
ffffffff80217d64:	00000013          	nop
ffffffff80217d68:	00000013          	nop
ffffffff80217d6c:	00000013          	nop
ffffffff80217d70:	00000013          	nop
ffffffff80217d74:	00000013          	nop
ffffffff80217d78:	00000013          	nop
ffffffff80217d7c:	00000013          	nop
ffffffff80217d80:	00000013          	nop
ffffffff80217d84:	00000013          	nop
ffffffff80217d88:	00000013          	nop
ffffffff80217d8c:	00000013          	nop
ffffffff80217d90:	00000013          	nop
ffffffff80217d94:	00000013          	nop
ffffffff80217d98:	00000013          	nop
ffffffff80217d9c:	00000013          	nop
ffffffff80217da0:	00000013          	nop
ffffffff80217da4:	00000013          	nop
ffffffff80217da8:	00000013          	nop
ffffffff80217dac:	00000013          	nop
ffffffff80217db0:	00000013          	nop
ffffffff80217db4:	00000013          	nop
ffffffff80217db8:	00000013          	nop
ffffffff80217dbc:	00000013          	nop
ffffffff80217dc0:	00000013          	nop
ffffffff80217dc4:	00000013          	nop
ffffffff80217dc8:	00000013          	nop
ffffffff80217dcc:	00000013          	nop
ffffffff80217dd0:	00000013          	nop
ffffffff80217dd4:	00000013          	nop
ffffffff80217dd8:	00000013          	nop
ffffffff80217ddc:	00000013          	nop
ffffffff80217de0:	00000013          	nop
ffffffff80217de4:	00000013          	nop
ffffffff80217de8:	00000013          	nop
ffffffff80217dec:	00000013          	nop
ffffffff80217df0:	00000013          	nop
ffffffff80217df4:	00000013          	nop
ffffffff80217df8:	00000013          	nop
ffffffff80217dfc:	00000013          	nop
ffffffff80217e00:	00000013          	nop
ffffffff80217e04:	00000013          	nop
ffffffff80217e08:	00000013          	nop
ffffffff80217e0c:	00000013          	nop
ffffffff80217e10:	00000013          	nop
ffffffff80217e14:	00000013          	nop
ffffffff80217e18:	00000013          	nop
ffffffff80217e1c:	00000013          	nop
ffffffff80217e20:	00000013          	nop
ffffffff80217e24:	00000013          	nop
ffffffff80217e28:	00000013          	nop
ffffffff80217e2c:	00000013          	nop
ffffffff80217e30:	00000013          	nop
ffffffff80217e34:	00000013          	nop
ffffffff80217e38:	00000013          	nop
ffffffff80217e3c:	00000013          	nop
ffffffff80217e40:	00000013          	nop
ffffffff80217e44:	00000013          	nop
ffffffff80217e48:	00000013          	nop
ffffffff80217e4c:	00000013          	nop
ffffffff80217e50:	00000013          	nop
ffffffff80217e54:	00000013          	nop
ffffffff80217e58:	00000013          	nop
ffffffff80217e5c:	00000013          	nop
ffffffff80217e60:	00000013          	nop
ffffffff80217e64:	00000013          	nop
ffffffff80217e68:	00000013          	nop
ffffffff80217e6c:	00000013          	nop
ffffffff80217e70:	00000013          	nop
ffffffff80217e74:	00000013          	nop
ffffffff80217e78:	00000013          	nop
ffffffff80217e7c:	00000013          	nop
ffffffff80217e80:	00000013          	nop
ffffffff80217e84:	00000013          	nop
ffffffff80217e88:	00000013          	nop
ffffffff80217e8c:	00000013          	nop
ffffffff80217e90:	00000013          	nop
ffffffff80217e94:	00000013          	nop
ffffffff80217e98:	00000013          	nop
ffffffff80217e9c:	00000013          	nop
ffffffff80217ea0:	00000013          	nop
ffffffff80217ea4:	00000013          	nop
ffffffff80217ea8:	00000013          	nop
ffffffff80217eac:	00000013          	nop
ffffffff80217eb0:	00000013          	nop
ffffffff80217eb4:	00000013          	nop
ffffffff80217eb8:	00000013          	nop
ffffffff80217ebc:	00000013          	nop
ffffffff80217ec0:	00000013          	nop
ffffffff80217ec4:	00000013          	nop
ffffffff80217ec8:	00000013          	nop
ffffffff80217ecc:	00000013          	nop
ffffffff80217ed0:	00000013          	nop
ffffffff80217ed4:	00000013          	nop
ffffffff80217ed8:	00000013          	nop
ffffffff80217edc:	00000013          	nop
ffffffff80217ee0:	00000013          	nop
ffffffff80217ee4:	00000013          	nop
ffffffff80217ee8:	00000013          	nop
ffffffff80217eec:	00000013          	nop
ffffffff80217ef0:	00000013          	nop
ffffffff80217ef4:	00000013          	nop
ffffffff80217ef8:	00000013          	nop
ffffffff80217efc:	00000013          	nop
ffffffff80217f00:	00000013          	nop
ffffffff80217f04:	00000013          	nop
ffffffff80217f08:	00000013          	nop
ffffffff80217f0c:	00000013          	nop
ffffffff80217f10:	00000013          	nop
ffffffff80217f14:	00000013          	nop
ffffffff80217f18:	00000013          	nop
ffffffff80217f1c:	00000013          	nop
ffffffff80217f20:	00000013          	nop
ffffffff80217f24:	00000013          	nop
ffffffff80217f28:	00000013          	nop
ffffffff80217f2c:	00000013          	nop
ffffffff80217f30:	00000013          	nop
ffffffff80217f34:	00000013          	nop
ffffffff80217f38:	00000013          	nop
ffffffff80217f3c:	00000013          	nop
ffffffff80217f40:	00000013          	nop
ffffffff80217f44:	00000013          	nop
ffffffff80217f48:	00000013          	nop
ffffffff80217f4c:	00000013          	nop
ffffffff80217f50:	00000013          	nop
ffffffff80217f54:	00000013          	nop
ffffffff80217f58:	00000013          	nop
ffffffff80217f5c:	00000013          	nop
ffffffff80217f60:	00000013          	nop
ffffffff80217f64:	00000013          	nop
ffffffff80217f68:	00000013          	nop
ffffffff80217f6c:	00000013          	nop
ffffffff80217f70:	00000013          	nop
ffffffff80217f74:	00000013          	nop
ffffffff80217f78:	00000013          	nop
ffffffff80217f7c:	00000013          	nop
ffffffff80217f80:	00000013          	nop
ffffffff80217f84:	00000013          	nop
ffffffff80217f88:	00000013          	nop
ffffffff80217f8c:	00000013          	nop
ffffffff80217f90:	00000013          	nop
ffffffff80217f94:	00000013          	nop
ffffffff80217f98:	00000013          	nop
ffffffff80217f9c:	00000013          	nop
ffffffff80217fa0:	00000013          	nop
ffffffff80217fa4:	00000013          	nop
ffffffff80217fa8:	00000013          	nop
ffffffff80217fac:	00000013          	nop
ffffffff80217fb0:	00000013          	nop
ffffffff80217fb4:	00000013          	nop
ffffffff80217fb8:	00000013          	nop
ffffffff80217fbc:	00000013          	nop
ffffffff80217fc0:	00000013          	nop
ffffffff80217fc4:	00000013          	nop
ffffffff80217fc8:	00000013          	nop
ffffffff80217fcc:	00000013          	nop
ffffffff80217fd0:	00000013          	nop
ffffffff80217fd4:	00000013          	nop
ffffffff80217fd8:	00000013          	nop
ffffffff80217fdc:	00000013          	nop
ffffffff80217fe0:	00000013          	nop
ffffffff80217fe4:	00000013          	nop
ffffffff80217fe8:	00000013          	nop
ffffffff80217fec:	00000013          	nop
ffffffff80217ff0:	00000013          	nop
ffffffff80217ff4:	00000013          	nop
ffffffff80217ff8:	00000013          	nop
ffffffff80217ffc:	00000013          	nop
ffffffff80218000:	00000013          	nop
ffffffff80218004:	00000013          	nop
ffffffff80218008:	00000013          	nop
ffffffff8021800c:	00000013          	nop
ffffffff80218010:	00000013          	nop
ffffffff80218014:	00000013          	nop
ffffffff80218018:	00000013          	nop
ffffffff8021801c:	00000013          	nop
ffffffff80218020:	00000013          	nop
ffffffff80218024:	00000013          	nop
ffffffff80218028:	00000013          	nop
ffffffff8021802c:	00000013          	nop
ffffffff80218030:	00000013          	nop
ffffffff80218034:	00000013          	nop
ffffffff80218038:	00000013          	nop
ffffffff8021803c:	00000013          	nop
ffffffff80218040:	00000013          	nop
ffffffff80218044:	00000013          	nop
ffffffff80218048:	00000013          	nop
ffffffff8021804c:	00000013          	nop
ffffffff80218050:	00000013          	nop
ffffffff80218054:	00000013          	nop
ffffffff80218058:	00000013          	nop
ffffffff8021805c:	00000013          	nop
ffffffff80218060:	00000013          	nop
ffffffff80218064:	00000013          	nop
ffffffff80218068:	00000013          	nop
ffffffff8021806c:	00000013          	nop
ffffffff80218070:	00000013          	nop
ffffffff80218074:	00000013          	nop
ffffffff80218078:	00000013          	nop
ffffffff8021807c:	00000013          	nop
ffffffff80218080:	00000013          	nop
ffffffff80218084:	00000013          	nop
ffffffff80218088:	00000013          	nop
ffffffff8021808c:	00000013          	nop
ffffffff80218090:	00000013          	nop
ffffffff80218094:	00000013          	nop
ffffffff80218098:	00000013          	nop
ffffffff8021809c:	00000013          	nop
ffffffff802180a0:	00000013          	nop
ffffffff802180a4:	00000013          	nop
ffffffff802180a8:	00000013          	nop
ffffffff802180ac:	00000013          	nop
ffffffff802180b0:	00000013          	nop
ffffffff802180b4:	00000013          	nop
ffffffff802180b8:	00000013          	nop
ffffffff802180bc:	00000013          	nop
ffffffff802180c0:	00000013          	nop
ffffffff802180c4:	00000013          	nop
ffffffff802180c8:	00000013          	nop
ffffffff802180cc:	00000013          	nop
ffffffff802180d0:	00000013          	nop
ffffffff802180d4:	00000013          	nop
ffffffff802180d8:	00000013          	nop
ffffffff802180dc:	00000013          	nop
ffffffff802180e0:	00000013          	nop
ffffffff802180e4:	00000013          	nop
ffffffff802180e8:	00000013          	nop
ffffffff802180ec:	00000013          	nop
ffffffff802180f0:	00000013          	nop
ffffffff802180f4:	00000013          	nop
ffffffff802180f8:	00000013          	nop
ffffffff802180fc:	00000013          	nop
ffffffff80218100:	00000013          	nop
ffffffff80218104:	00000013          	nop
ffffffff80218108:	00000013          	nop
ffffffff8021810c:	00000013          	nop
ffffffff80218110:	00000013          	nop
ffffffff80218114:	00000013          	nop
ffffffff80218118:	00000013          	nop
ffffffff8021811c:	00000013          	nop
ffffffff80218120:	00000013          	nop
ffffffff80218124:	00000013          	nop
ffffffff80218128:	00000013          	nop
ffffffff8021812c:	00000013          	nop
ffffffff80218130:	00000013          	nop
ffffffff80218134:	00000013          	nop
ffffffff80218138:	00000013          	nop
ffffffff8021813c:	00000013          	nop
ffffffff80218140:	00000013          	nop
ffffffff80218144:	00000013          	nop
ffffffff80218148:	00000013          	nop
ffffffff8021814c:	00000013          	nop
ffffffff80218150:	00000013          	nop
ffffffff80218154:	00000013          	nop
ffffffff80218158:	00000013          	nop
ffffffff8021815c:	00000013          	nop
ffffffff80218160:	00000013          	nop
ffffffff80218164:	00000013          	nop
ffffffff80218168:	00000013          	nop
ffffffff8021816c:	00000013          	nop
ffffffff80218170:	00000013          	nop
ffffffff80218174:	00000013          	nop
ffffffff80218178:	00000013          	nop
ffffffff8021817c:	00000013          	nop
ffffffff80218180:	00000013          	nop
ffffffff80218184:	00000013          	nop
ffffffff80218188:	00000013          	nop
ffffffff8021818c:	00000013          	nop
ffffffff80218190:	00000013          	nop
ffffffff80218194:	00000013          	nop
ffffffff80218198:	00000013          	nop
ffffffff8021819c:	00000013          	nop
ffffffff802181a0:	00000013          	nop
ffffffff802181a4:	00000013          	nop
ffffffff802181a8:	00000013          	nop
ffffffff802181ac:	00000013          	nop
ffffffff802181b0:	00000013          	nop
ffffffff802181b4:	00000013          	nop
ffffffff802181b8:	00000013          	nop
ffffffff802181bc:	00000013          	nop
ffffffff802181c0:	00000013          	nop
ffffffff802181c4:	00000013          	nop
ffffffff802181c8:	00000013          	nop
ffffffff802181cc:	00000013          	nop
ffffffff802181d0:	00000013          	nop
ffffffff802181d4:	00000013          	nop
ffffffff802181d8:	00000013          	nop
ffffffff802181dc:	00000013          	nop
ffffffff802181e0:	00000013          	nop
ffffffff802181e4:	00000013          	nop
ffffffff802181e8:	00000013          	nop
ffffffff802181ec:	00000013          	nop
ffffffff802181f0:	00000013          	nop
ffffffff802181f4:	00000013          	nop
ffffffff802181f8:	00000013          	nop
ffffffff802181fc:	00000013          	nop
ffffffff80218200:	00000013          	nop
ffffffff80218204:	00000013          	nop
ffffffff80218208:	00000013          	nop
ffffffff8021820c:	00000013          	nop
ffffffff80218210:	00000013          	nop
ffffffff80218214:	00000013          	nop
ffffffff80218218:	00000013          	nop
ffffffff8021821c:	00000013          	nop
ffffffff80218220:	00000013          	nop
ffffffff80218224:	00000013          	nop
ffffffff80218228:	00000013          	nop
ffffffff8021822c:	00000013          	nop
ffffffff80218230:	00000013          	nop
ffffffff80218234:	00000013          	nop
ffffffff80218238:	00000013          	nop
ffffffff8021823c:	00000013          	nop
ffffffff80218240:	00000013          	nop
ffffffff80218244:	00000013          	nop
ffffffff80218248:	00000013          	nop
ffffffff8021824c:	00000013          	nop
ffffffff80218250:	00000013          	nop
ffffffff80218254:	00000013          	nop
ffffffff80218258:	00000013          	nop
ffffffff8021825c:	00000013          	nop
ffffffff80218260:	00000013          	nop
ffffffff80218264:	00000013          	nop
ffffffff80218268:	00000013          	nop
ffffffff8021826c:	00000013          	nop
ffffffff80218270:	00000013          	nop
ffffffff80218274:	00000013          	nop
ffffffff80218278:	00000013          	nop
ffffffff8021827c:	00000013          	nop
ffffffff80218280:	00000013          	nop
ffffffff80218284:	00000013          	nop
ffffffff80218288:	00000013          	nop
ffffffff8021828c:	00000013          	nop
ffffffff80218290:	00000013          	nop
ffffffff80218294:	00000013          	nop
ffffffff80218298:	00000013          	nop
ffffffff8021829c:	00000013          	nop
ffffffff802182a0:	00000013          	nop
ffffffff802182a4:	00000013          	nop
ffffffff802182a8:	00000013          	nop
ffffffff802182ac:	00000013          	nop
ffffffff802182b0:	00000013          	nop
ffffffff802182b4:	00000013          	nop
ffffffff802182b8:	00000013          	nop
ffffffff802182bc:	00000013          	nop
ffffffff802182c0:	00000013          	nop
ffffffff802182c4:	00000013          	nop
ffffffff802182c8:	00000013          	nop
ffffffff802182cc:	00000013          	nop
ffffffff802182d0:	00000013          	nop
ffffffff802182d4:	00000013          	nop
ffffffff802182d8:	00000013          	nop
ffffffff802182dc:	00000013          	nop
ffffffff802182e0:	00000013          	nop
ffffffff802182e4:	00000013          	nop
ffffffff802182e8:	00000013          	nop
ffffffff802182ec:	00000013          	nop
ffffffff802182f0:	00000013          	nop
ffffffff802182f4:	00000013          	nop
ffffffff802182f8:	00000013          	nop
ffffffff802182fc:	00000013          	nop
ffffffff80218300:	00000013          	nop
ffffffff80218304:	00000013          	nop
ffffffff80218308:	00000013          	nop
ffffffff8021830c:	00000013          	nop
ffffffff80218310:	00000013          	nop
ffffffff80218314:	00000013          	nop
ffffffff80218318:	00000013          	nop
ffffffff8021831c:	00000013          	nop
ffffffff80218320:	00000013          	nop
ffffffff80218324:	00000013          	nop
ffffffff80218328:	00000013          	nop
ffffffff8021832c:	00000013          	nop
ffffffff80218330:	00000013          	nop
ffffffff80218334:	00000013          	nop
ffffffff80218338:	00000013          	nop
ffffffff8021833c:	00000013          	nop
ffffffff80218340:	00000013          	nop
ffffffff80218344:	00000013          	nop
ffffffff80218348:	00000013          	nop
ffffffff8021834c:	00000013          	nop
ffffffff80218350:	00000013          	nop
ffffffff80218354:	00000013          	nop
ffffffff80218358:	00000013          	nop
ffffffff8021835c:	00000013          	nop
ffffffff80218360:	00000013          	nop
ffffffff80218364:	00000013          	nop
ffffffff80218368:	00000013          	nop
ffffffff8021836c:	00000013          	nop
ffffffff80218370:	00000013          	nop
ffffffff80218374:	00000013          	nop
ffffffff80218378:	00000013          	nop
ffffffff8021837c:	00000013          	nop
ffffffff80218380:	00000013          	nop
ffffffff80218384:	00000013          	nop
ffffffff80218388:	00000013          	nop
ffffffff8021838c:	00000013          	nop
ffffffff80218390:	00000013          	nop
ffffffff80218394:	00000013          	nop
ffffffff80218398:	00000013          	nop
ffffffff8021839c:	00000013          	nop
ffffffff802183a0:	00000013          	nop
ffffffff802183a4:	00000013          	nop
ffffffff802183a8:	00000013          	nop
ffffffff802183ac:	00000013          	nop
ffffffff802183b0:	00000013          	nop
ffffffff802183b4:	00000013          	nop
ffffffff802183b8:	00000013          	nop
ffffffff802183bc:	00000013          	nop
ffffffff802183c0:	00000013          	nop
ffffffff802183c4:	00000013          	nop
ffffffff802183c8:	00000013          	nop
ffffffff802183cc:	00000013          	nop
ffffffff802183d0:	00000013          	nop
ffffffff802183d4:	00000013          	nop
ffffffff802183d8:	00000013          	nop
ffffffff802183dc:	00000013          	nop
ffffffff802183e0:	00000013          	nop
ffffffff802183e4:	00000013          	nop
ffffffff802183e8:	00000013          	nop
ffffffff802183ec:	00000013          	nop
ffffffff802183f0:	00000013          	nop
ffffffff802183f4:	00000013          	nop
ffffffff802183f8:	00000013          	nop
ffffffff802183fc:	00000013          	nop
ffffffff80218400:	00000013          	nop
ffffffff80218404:	00000013          	nop
ffffffff80218408:	00000013          	nop
ffffffff8021840c:	00000013          	nop
ffffffff80218410:	00000013          	nop
ffffffff80218414:	00000013          	nop
ffffffff80218418:	00000013          	nop
ffffffff8021841c:	00000013          	nop
ffffffff80218420:	00000013          	nop
ffffffff80218424:	00000013          	nop
ffffffff80218428:	00000013          	nop
ffffffff8021842c:	00000013          	nop
ffffffff80218430:	00000013          	nop
ffffffff80218434:	00000013          	nop
ffffffff80218438:	00000013          	nop
ffffffff8021843c:	00000013          	nop
ffffffff80218440:	00000013          	nop
ffffffff80218444:	00000013          	nop
ffffffff80218448:	00000013          	nop
ffffffff8021844c:	00000013          	nop
ffffffff80218450:	00000013          	nop
ffffffff80218454:	00000013          	nop
ffffffff80218458:	00000013          	nop
ffffffff8021845c:	00000013          	nop
ffffffff80218460:	00000013          	nop
ffffffff80218464:	00000013          	nop
ffffffff80218468:	00000013          	nop
ffffffff8021846c:	00000013          	nop
ffffffff80218470:	00000013          	nop
ffffffff80218474:	00000013          	nop
ffffffff80218478:	00000013          	nop
ffffffff8021847c:	00000013          	nop
ffffffff80218480:	00000013          	nop
ffffffff80218484:	00000013          	nop
ffffffff80218488:	00000013          	nop
ffffffff8021848c:	00000013          	nop
ffffffff80218490:	00000013          	nop
ffffffff80218494:	00000013          	nop
ffffffff80218498:	00000013          	nop
ffffffff8021849c:	00000013          	nop
ffffffff802184a0:	00000013          	nop
ffffffff802184a4:	00000013          	nop
ffffffff802184a8:	00000013          	nop
ffffffff802184ac:	00000013          	nop
ffffffff802184b0:	00000013          	nop
ffffffff802184b4:	00000013          	nop
ffffffff802184b8:	00000013          	nop
ffffffff802184bc:	00000013          	nop
ffffffff802184c0:	00000013          	nop
ffffffff802184c4:	00000013          	nop
ffffffff802184c8:	00000013          	nop
ffffffff802184cc:	00000013          	nop
ffffffff802184d0:	00000013          	nop
ffffffff802184d4:	00000013          	nop
ffffffff802184d8:	00000013          	nop
ffffffff802184dc:	00000013          	nop
ffffffff802184e0:	00000013          	nop
ffffffff802184e4:	00000013          	nop
ffffffff802184e8:	00000013          	nop
ffffffff802184ec:	00000013          	nop
ffffffff802184f0:	00000013          	nop
ffffffff802184f4:	00000013          	nop
ffffffff802184f8:	00000013          	nop
ffffffff802184fc:	00000013          	nop
ffffffff80218500:	00000013          	nop
ffffffff80218504:	00000013          	nop
ffffffff80218508:	00000013          	nop
ffffffff8021850c:	00000013          	nop
ffffffff80218510:	00000013          	nop
ffffffff80218514:	00000013          	nop
ffffffff80218518:	00000013          	nop
ffffffff8021851c:	00000013          	nop
ffffffff80218520:	00000013          	nop
ffffffff80218524:	00000013          	nop
ffffffff80218528:	00000013          	nop
ffffffff8021852c:	00000013          	nop
ffffffff80218530:	00000013          	nop
ffffffff80218534:	00000013          	nop
ffffffff80218538:	00000013          	nop
ffffffff8021853c:	00000013          	nop
ffffffff80218540:	00000013          	nop
ffffffff80218544:	00000013          	nop
ffffffff80218548:	00000013          	nop
ffffffff8021854c:	00000013          	nop
ffffffff80218550:	00000013          	nop
ffffffff80218554:	00000013          	nop
ffffffff80218558:	00000013          	nop
ffffffff8021855c:	00000013          	nop
ffffffff80218560:	00000013          	nop
ffffffff80218564:	00000013          	nop
ffffffff80218568:	00000013          	nop
ffffffff8021856c:	00000013          	nop
ffffffff80218570:	00000013          	nop
ffffffff80218574:	00000013          	nop
ffffffff80218578:	00000013          	nop
ffffffff8021857c:	00000013          	nop
ffffffff80218580:	00000013          	nop
ffffffff80218584:	00000013          	nop
ffffffff80218588:	00000013          	nop
ffffffff8021858c:	00000013          	nop
ffffffff80218590:	00000013          	nop
ffffffff80218594:	00000013          	nop
ffffffff80218598:	00000013          	nop
ffffffff8021859c:	00000013          	nop
ffffffff802185a0:	00000013          	nop
ffffffff802185a4:	00000013          	nop
ffffffff802185a8:	00000013          	nop
ffffffff802185ac:	00000013          	nop
ffffffff802185b0:	00000013          	nop
ffffffff802185b4:	00000013          	nop
ffffffff802185b8:	00000013          	nop
ffffffff802185bc:	00000013          	nop
ffffffff802185c0:	00000013          	nop
ffffffff802185c4:	00000013          	nop
ffffffff802185c8:	00000013          	nop
ffffffff802185cc:	00000013          	nop
ffffffff802185d0:	00000013          	nop
ffffffff802185d4:	00000013          	nop
ffffffff802185d8:	00000013          	nop
ffffffff802185dc:	00000013          	nop
ffffffff802185e0:	00000013          	nop
ffffffff802185e4:	00000013          	nop
ffffffff802185e8:	00000013          	nop
ffffffff802185ec:	00000013          	nop
ffffffff802185f0:	00000013          	nop
ffffffff802185f4:	00000013          	nop
ffffffff802185f8:	00000013          	nop
ffffffff802185fc:	00000013          	nop
ffffffff80218600:	00000013          	nop
ffffffff80218604:	00000013          	nop
ffffffff80218608:	00000013          	nop
ffffffff8021860c:	00000013          	nop
ffffffff80218610:	00000013          	nop
ffffffff80218614:	00000013          	nop
ffffffff80218618:	00000013          	nop
ffffffff8021861c:	00000013          	nop
ffffffff80218620:	00000013          	nop
ffffffff80218624:	00000013          	nop
ffffffff80218628:	00000013          	nop
ffffffff8021862c:	00000013          	nop
ffffffff80218630:	00000013          	nop
ffffffff80218634:	00000013          	nop
ffffffff80218638:	00000013          	nop
ffffffff8021863c:	00000013          	nop
ffffffff80218640:	00000013          	nop
ffffffff80218644:	00000013          	nop
ffffffff80218648:	00000013          	nop
ffffffff8021864c:	00000013          	nop
ffffffff80218650:	00000013          	nop
ffffffff80218654:	00000013          	nop
ffffffff80218658:	00000013          	nop
ffffffff8021865c:	00000013          	nop
ffffffff80218660:	00000013          	nop
ffffffff80218664:	00000013          	nop
ffffffff80218668:	00000013          	nop
ffffffff8021866c:	00000013          	nop
ffffffff80218670:	00000013          	nop
ffffffff80218674:	00000013          	nop
ffffffff80218678:	00000013          	nop
ffffffff8021867c:	00000013          	nop
ffffffff80218680:	00000013          	nop
ffffffff80218684:	00000013          	nop
ffffffff80218688:	00000013          	nop
ffffffff8021868c:	00000013          	nop
ffffffff80218690:	00000013          	nop
ffffffff80218694:	00000013          	nop
ffffffff80218698:	00000013          	nop
ffffffff8021869c:	00000013          	nop
ffffffff802186a0:	00000013          	nop
ffffffff802186a4:	00000013          	nop
ffffffff802186a8:	00000013          	nop
ffffffff802186ac:	00000013          	nop
ffffffff802186b0:	00000013          	nop
ffffffff802186b4:	00000013          	nop
ffffffff802186b8:	00000013          	nop
ffffffff802186bc:	00000013          	nop
ffffffff802186c0:	00000013          	nop
ffffffff802186c4:	00000013          	nop
ffffffff802186c8:	00000013          	nop
ffffffff802186cc:	00000013          	nop
ffffffff802186d0:	00000013          	nop
ffffffff802186d4:	00000013          	nop
ffffffff802186d8:	00000013          	nop
ffffffff802186dc:	00000013          	nop
ffffffff802186e0:	00000013          	nop
ffffffff802186e4:	00000013          	nop
ffffffff802186e8:	00000013          	nop
ffffffff802186ec:	00000013          	nop
ffffffff802186f0:	00000013          	nop
ffffffff802186f4:	00000013          	nop
ffffffff802186f8:	00000013          	nop
ffffffff802186fc:	00000013          	nop
ffffffff80218700:	00000013          	nop
ffffffff80218704:	00000013          	nop
ffffffff80218708:	00000013          	nop
ffffffff8021870c:	00000013          	nop
ffffffff80218710:	00000013          	nop
ffffffff80218714:	00000013          	nop
ffffffff80218718:	00000013          	nop
ffffffff8021871c:	00000013          	nop
ffffffff80218720:	00000013          	nop
ffffffff80218724:	00000013          	nop
ffffffff80218728:	00000013          	nop
ffffffff8021872c:	00000013          	nop
ffffffff80218730:	00000013          	nop
ffffffff80218734:	00000013          	nop
ffffffff80218738:	00000013          	nop
ffffffff8021873c:	00000013          	nop
ffffffff80218740:	00000013          	nop
ffffffff80218744:	00000013          	nop
ffffffff80218748:	00000013          	nop
ffffffff8021874c:	00000013          	nop
ffffffff80218750:	00000013          	nop
ffffffff80218754:	00000013          	nop
ffffffff80218758:	00000013          	nop
ffffffff8021875c:	00000013          	nop
ffffffff80218760:	00000013          	nop
ffffffff80218764:	00000013          	nop
ffffffff80218768:	00000013          	nop
ffffffff8021876c:	00000013          	nop
ffffffff80218770:	00000013          	nop
ffffffff80218774:	00000013          	nop
ffffffff80218778:	00000013          	nop
ffffffff8021877c:	00000013          	nop
ffffffff80218780:	00000013          	nop
ffffffff80218784:	00000013          	nop
ffffffff80218788:	00000013          	nop
ffffffff8021878c:	00000013          	nop
ffffffff80218790:	00000013          	nop
ffffffff80218794:	00000013          	nop
ffffffff80218798:	00000013          	nop
ffffffff8021879c:	00000013          	nop
ffffffff802187a0:	00000013          	nop
ffffffff802187a4:	00000013          	nop
ffffffff802187a8:	00000013          	nop
ffffffff802187ac:	00000013          	nop
ffffffff802187b0:	00000013          	nop
ffffffff802187b4:	00000013          	nop
ffffffff802187b8:	00000013          	nop
ffffffff802187bc:	00000013          	nop
ffffffff802187c0:	00000013          	nop
ffffffff802187c4:	00000013          	nop
ffffffff802187c8:	00000013          	nop
ffffffff802187cc:	00000013          	nop
ffffffff802187d0:	00000013          	nop
ffffffff802187d4:	00000013          	nop
ffffffff802187d8:	00000013          	nop
ffffffff802187dc:	00000013          	nop
ffffffff802187e0:	00000013          	nop
ffffffff802187e4:	00000013          	nop
ffffffff802187e8:	00000013          	nop
ffffffff802187ec:	00000013          	nop
ffffffff802187f0:	00000013          	nop
ffffffff802187f4:	00000013          	nop
ffffffff802187f8:	00000013          	nop
ffffffff802187fc:	00000013          	nop
ffffffff80218800:	00000013          	nop
ffffffff80218804:	00000013          	nop
ffffffff80218808:	00000013          	nop
ffffffff8021880c:	00000013          	nop
ffffffff80218810:	00000013          	nop
ffffffff80218814:	00000013          	nop
ffffffff80218818:	00000013          	nop
ffffffff8021881c:	00000013          	nop
ffffffff80218820:	00000013          	nop
ffffffff80218824:	00000013          	nop
ffffffff80218828:	00000013          	nop
ffffffff8021882c:	00000013          	nop
ffffffff80218830:	00000013          	nop
ffffffff80218834:	00000013          	nop
ffffffff80218838:	00000013          	nop
ffffffff8021883c:	00000013          	nop
ffffffff80218840:	00000013          	nop
ffffffff80218844:	00000013          	nop
ffffffff80218848:	00000013          	nop
ffffffff8021884c:	00000013          	nop
ffffffff80218850:	00000013          	nop
ffffffff80218854:	00000013          	nop
ffffffff80218858:	00000013          	nop
ffffffff8021885c:	00000013          	nop
ffffffff80218860:	00000013          	nop
ffffffff80218864:	00000013          	nop
ffffffff80218868:	00000013          	nop
ffffffff8021886c:	00000013          	nop
ffffffff80218870:	00000013          	nop
ffffffff80218874:	00000013          	nop
ffffffff80218878:	00000013          	nop
ffffffff8021887c:	00000013          	nop
ffffffff80218880:	00000013          	nop
ffffffff80218884:	00000013          	nop
ffffffff80218888:	00000013          	nop
ffffffff8021888c:	00000013          	nop
ffffffff80218890:	00000013          	nop
ffffffff80218894:	00000013          	nop
ffffffff80218898:	00000013          	nop
ffffffff8021889c:	00000013          	nop
ffffffff802188a0:	00000013          	nop
ffffffff802188a4:	00000013          	nop
ffffffff802188a8:	00000013          	nop
ffffffff802188ac:	00000013          	nop
ffffffff802188b0:	00000013          	nop
ffffffff802188b4:	00000013          	nop
ffffffff802188b8:	00000013          	nop
ffffffff802188bc:	00000013          	nop
ffffffff802188c0:	00000013          	nop
ffffffff802188c4:	00000013          	nop
ffffffff802188c8:	00000013          	nop
ffffffff802188cc:	00000013          	nop
ffffffff802188d0:	00000013          	nop
ffffffff802188d4:	00000013          	nop
ffffffff802188d8:	00000013          	nop
ffffffff802188dc:	00000013          	nop
ffffffff802188e0:	00000013          	nop
ffffffff802188e4:	00000013          	nop
ffffffff802188e8:	00000013          	nop
ffffffff802188ec:	00000013          	nop
ffffffff802188f0:	00000013          	nop
ffffffff802188f4:	00000013          	nop
ffffffff802188f8:	00000013          	nop
ffffffff802188fc:	00000013          	nop
ffffffff80218900:	00000013          	nop
ffffffff80218904:	00000013          	nop
ffffffff80218908:	00000013          	nop
ffffffff8021890c:	00000013          	nop
ffffffff80218910:	00000013          	nop
ffffffff80218914:	00000013          	nop
ffffffff80218918:	00000013          	nop
ffffffff8021891c:	00000013          	nop
ffffffff80218920:	00000013          	nop
ffffffff80218924:	00000013          	nop
ffffffff80218928:	00000013          	nop
ffffffff8021892c:	00000013          	nop
ffffffff80218930:	00000013          	nop
ffffffff80218934:	00000013          	nop
ffffffff80218938:	00000013          	nop
ffffffff8021893c:	00000013          	nop
ffffffff80218940:	00000013          	nop
ffffffff80218944:	00000013          	nop
ffffffff80218948:	00000013          	nop
ffffffff8021894c:	00000013          	nop
ffffffff80218950:	00000013          	nop
ffffffff80218954:	00000013          	nop
ffffffff80218958:	00000013          	nop
ffffffff8021895c:	00000013          	nop
ffffffff80218960:	00000013          	nop
ffffffff80218964:	00000013          	nop
ffffffff80218968:	00000013          	nop
ffffffff8021896c:	00000013          	nop
ffffffff80218970:	00000013          	nop
ffffffff80218974:	00000013          	nop
ffffffff80218978:	00000013          	nop
ffffffff8021897c:	00000013          	nop
ffffffff80218980:	00000013          	nop
ffffffff80218984:	00000013          	nop
ffffffff80218988:	00000013          	nop
ffffffff8021898c:	00000013          	nop
ffffffff80218990:	00000013          	nop
ffffffff80218994:	00000013          	nop
ffffffff80218998:	00000013          	nop
ffffffff8021899c:	00000013          	nop
ffffffff802189a0:	00000013          	nop
ffffffff802189a4:	00000013          	nop
ffffffff802189a8:	00000013          	nop
ffffffff802189ac:	00000013          	nop
ffffffff802189b0:	00000013          	nop
ffffffff802189b4:	00000013          	nop
ffffffff802189b8:	00000013          	nop
ffffffff802189bc:	00000013          	nop
ffffffff802189c0:	00000013          	nop
ffffffff802189c4:	00000013          	nop
ffffffff802189c8:	00000013          	nop
ffffffff802189cc:	00000013          	nop
ffffffff802189d0:	00000013          	nop
ffffffff802189d4:	00000013          	nop
ffffffff802189d8:	00000013          	nop
ffffffff802189dc:	00000013          	nop
ffffffff802189e0:	00000013          	nop
ffffffff802189e4:	00000013          	nop
ffffffff802189e8:	00000013          	nop
ffffffff802189ec:	00000013          	nop
ffffffff802189f0:	00000013          	nop
ffffffff802189f4:	00000013          	nop
ffffffff802189f8:	00000013          	nop
ffffffff802189fc:	00000013          	nop
ffffffff80218a00:	00000013          	nop
ffffffff80218a04:	00000013          	nop
ffffffff80218a08:	00000013          	nop
ffffffff80218a0c:	00000013          	nop
ffffffff80218a10:	00000013          	nop
ffffffff80218a14:	00000013          	nop
ffffffff80218a18:	00000013          	nop
ffffffff80218a1c:	00000013          	nop
ffffffff80218a20:	00000013          	nop
ffffffff80218a24:	00000013          	nop
ffffffff80218a28:	00000013          	nop
ffffffff80218a2c:	00000013          	nop
ffffffff80218a30:	00000013          	nop
ffffffff80218a34:	00000013          	nop
ffffffff80218a38:	00000013          	nop
ffffffff80218a3c:	00000013          	nop
ffffffff80218a40:	00000013          	nop
ffffffff80218a44:	00000013          	nop
ffffffff80218a48:	00000013          	nop
ffffffff80218a4c:	00000013          	nop
ffffffff80218a50:	00000013          	nop
ffffffff80218a54:	00000013          	nop
ffffffff80218a58:	00000013          	nop
ffffffff80218a5c:	00000013          	nop
ffffffff80218a60:	00000013          	nop
ffffffff80218a64:	00000013          	nop
ffffffff80218a68:	00000013          	nop
ffffffff80218a6c:	00000013          	nop
ffffffff80218a70:	00000013          	nop
ffffffff80218a74:	00000013          	nop
ffffffff80218a78:	00000013          	nop
ffffffff80218a7c:	00000013          	nop
ffffffff80218a80:	00000013          	nop
ffffffff80218a84:	00000013          	nop
ffffffff80218a88:	00000013          	nop
ffffffff80218a8c:	00000013          	nop
ffffffff80218a90:	00000013          	nop
ffffffff80218a94:	00000013          	nop
ffffffff80218a98:	00000013          	nop
ffffffff80218a9c:	00000013          	nop
ffffffff80218aa0:	00000013          	nop
ffffffff80218aa4:	00000013          	nop
ffffffff80218aa8:	00000013          	nop
ffffffff80218aac:	00000013          	nop
ffffffff80218ab0:	00000013          	nop
ffffffff80218ab4:	00000013          	nop
ffffffff80218ab8:	00000013          	nop
ffffffff80218abc:	00000013          	nop
ffffffff80218ac0:	00000013          	nop
ffffffff80218ac4:	00000013          	nop
ffffffff80218ac8:	00000013          	nop
ffffffff80218acc:	00000013          	nop
ffffffff80218ad0:	00000013          	nop
ffffffff80218ad4:	00000013          	nop
ffffffff80218ad8:	00000013          	nop
ffffffff80218adc:	00000013          	nop
ffffffff80218ae0:	00000013          	nop
ffffffff80218ae4:	00000013          	nop
ffffffff80218ae8:	00000013          	nop
ffffffff80218aec:	00000013          	nop
ffffffff80218af0:	00000013          	nop
ffffffff80218af4:	00000013          	nop
ffffffff80218af8:	00000013          	nop
ffffffff80218afc:	00000013          	nop
ffffffff80218b00:	00000013          	nop
ffffffff80218b04:	00000013          	nop
ffffffff80218b08:	00000013          	nop
ffffffff80218b0c:	00000013          	nop
ffffffff80218b10:	00000013          	nop
ffffffff80218b14:	00000013          	nop
ffffffff80218b18:	00000013          	nop
ffffffff80218b1c:	00000013          	nop
ffffffff80218b20:	00000013          	nop
ffffffff80218b24:	00000013          	nop
ffffffff80218b28:	00000013          	nop
ffffffff80218b2c:	00000013          	nop
ffffffff80218b30:	00000013          	nop
ffffffff80218b34:	00000013          	nop
ffffffff80218b38:	00000013          	nop
ffffffff80218b3c:	00000013          	nop
ffffffff80218b40:	00000013          	nop
ffffffff80218b44:	00000013          	nop
ffffffff80218b48:	00000013          	nop
ffffffff80218b4c:	00000013          	nop
ffffffff80218b50:	00000013          	nop
ffffffff80218b54:	00000013          	nop
ffffffff80218b58:	00000013          	nop
ffffffff80218b5c:	00000013          	nop
ffffffff80218b60:	00000013          	nop
ffffffff80218b64:	00000013          	nop
ffffffff80218b68:	00000013          	nop
ffffffff80218b6c:	00000013          	nop
ffffffff80218b70:	00000013          	nop
ffffffff80218b74:	00000013          	nop
ffffffff80218b78:	00000013          	nop
ffffffff80218b7c:	00000013          	nop
ffffffff80218b80:	00000013          	nop
ffffffff80218b84:	00000013          	nop
ffffffff80218b88:	00000013          	nop
ffffffff80218b8c:	00000013          	nop
ffffffff80218b90:	00000013          	nop
ffffffff80218b94:	00000013          	nop
ffffffff80218b98:	00000013          	nop
ffffffff80218b9c:	00000013          	nop
ffffffff80218ba0:	00000013          	nop
ffffffff80218ba4:	00000013          	nop
ffffffff80218ba8:	00000013          	nop
ffffffff80218bac:	00000013          	nop
ffffffff80218bb0:	00000013          	nop
ffffffff80218bb4:	00000013          	nop
ffffffff80218bb8:	00000013          	nop
ffffffff80218bbc:	00000013          	nop
ffffffff80218bc0:	00000013          	nop
ffffffff80218bc4:	00000013          	nop
ffffffff80218bc8:	00000013          	nop
ffffffff80218bcc:	00000013          	nop
ffffffff80218bd0:	00000013          	nop
ffffffff80218bd4:	00000013          	nop
ffffffff80218bd8:	00000013          	nop
ffffffff80218bdc:	00000013          	nop
ffffffff80218be0:	00000013          	nop
ffffffff80218be4:	00000013          	nop
ffffffff80218be8:	00000013          	nop
ffffffff80218bec:	00000013          	nop
ffffffff80218bf0:	00000013          	nop
ffffffff80218bf4:	00000013          	nop
ffffffff80218bf8:	00000013          	nop
ffffffff80218bfc:	00000013          	nop
ffffffff80218c00:	00000013          	nop
ffffffff80218c04:	00000013          	nop
ffffffff80218c08:	00000013          	nop
ffffffff80218c0c:	00000013          	nop
ffffffff80218c10:	00000013          	nop
ffffffff80218c14:	00000013          	nop
ffffffff80218c18:	00000013          	nop
ffffffff80218c1c:	00000013          	nop
ffffffff80218c20:	00000013          	nop
ffffffff80218c24:	00000013          	nop
ffffffff80218c28:	00000013          	nop
ffffffff80218c2c:	00000013          	nop
ffffffff80218c30:	00000013          	nop
ffffffff80218c34:	00000013          	nop
ffffffff80218c38:	00000013          	nop
ffffffff80218c3c:	00000013          	nop
ffffffff80218c40:	00000013          	nop
ffffffff80218c44:	00000013          	nop
ffffffff80218c48:	00000013          	nop
ffffffff80218c4c:	00000013          	nop
ffffffff80218c50:	00000013          	nop
ffffffff80218c54:	00000013          	nop
ffffffff80218c58:	00000013          	nop
ffffffff80218c5c:	00000013          	nop
ffffffff80218c60:	00000013          	nop
ffffffff80218c64:	00000013          	nop
ffffffff80218c68:	00000013          	nop
ffffffff80218c6c:	00000013          	nop
ffffffff80218c70:	00000013          	nop
ffffffff80218c74:	00000013          	nop
ffffffff80218c78:	00000013          	nop
ffffffff80218c7c:	00000013          	nop
ffffffff80218c80:	00000013          	nop
ffffffff80218c84:	00000013          	nop
ffffffff80218c88:	00000013          	nop
ffffffff80218c8c:	00000013          	nop
ffffffff80218c90:	00000013          	nop
ffffffff80218c94:	00000013          	nop
ffffffff80218c98:	00000013          	nop
ffffffff80218c9c:	00000013          	nop
ffffffff80218ca0:	00000013          	nop
ffffffff80218ca4:	00000013          	nop
ffffffff80218ca8:	00000013          	nop
ffffffff80218cac:	00000013          	nop
ffffffff80218cb0:	00000013          	nop
ffffffff80218cb4:	00000013          	nop
ffffffff80218cb8:	00000013          	nop
ffffffff80218cbc:	00000013          	nop
ffffffff80218cc0:	00000013          	nop
ffffffff80218cc4:	00000013          	nop
ffffffff80218cc8:	00000013          	nop
ffffffff80218ccc:	00000013          	nop
ffffffff80218cd0:	00000013          	nop
ffffffff80218cd4:	00000013          	nop
ffffffff80218cd8:	00000013          	nop
ffffffff80218cdc:	00000013          	nop
ffffffff80218ce0:	00000013          	nop
ffffffff80218ce4:	00000013          	nop
ffffffff80218ce8:	00000013          	nop
ffffffff80218cec:	00000013          	nop
ffffffff80218cf0:	00000013          	nop
ffffffff80218cf4:	00000013          	nop
ffffffff80218cf8:	00000013          	nop
ffffffff80218cfc:	00000013          	nop
ffffffff80218d00:	00000013          	nop
ffffffff80218d04:	00000013          	nop
ffffffff80218d08:	00000013          	nop
ffffffff80218d0c:	00000013          	nop
ffffffff80218d10:	00000013          	nop
ffffffff80218d14:	00000013          	nop
ffffffff80218d18:	00000013          	nop
ffffffff80218d1c:	00000013          	nop
ffffffff80218d20:	00000013          	nop
ffffffff80218d24:	00000013          	nop
ffffffff80218d28:	00000013          	nop
ffffffff80218d2c:	00000013          	nop
ffffffff80218d30:	00000013          	nop
ffffffff80218d34:	00000013          	nop
ffffffff80218d38:	00000013          	nop
ffffffff80218d3c:	00000013          	nop
ffffffff80218d40:	00000013          	nop
ffffffff80218d44:	00000013          	nop
ffffffff80218d48:	00000013          	nop
ffffffff80218d4c:	00000013          	nop
ffffffff80218d50:	00000013          	nop
ffffffff80218d54:	00000013          	nop
ffffffff80218d58:	00000013          	nop
ffffffff80218d5c:	00000013          	nop
ffffffff80218d60:	00000013          	nop
ffffffff80218d64:	00000013          	nop
ffffffff80218d68:	00000013          	nop
ffffffff80218d6c:	00000013          	nop
ffffffff80218d70:	00000013          	nop
ffffffff80218d74:	00000013          	nop
ffffffff80218d78:	00000013          	nop
ffffffff80218d7c:	00000013          	nop
ffffffff80218d80:	00000013          	nop
ffffffff80218d84:	00000013          	nop
ffffffff80218d88:	00000013          	nop
ffffffff80218d8c:	00000013          	nop
ffffffff80218d90:	00000013          	nop
ffffffff80218d94:	00000013          	nop
ffffffff80218d98:	00000013          	nop
ffffffff80218d9c:	00000013          	nop
ffffffff80218da0:	00000013          	nop
ffffffff80218da4:	00000013          	nop
ffffffff80218da8:	00000013          	nop
ffffffff80218dac:	00000013          	nop
ffffffff80218db0:	00000013          	nop
ffffffff80218db4:	00000013          	nop
ffffffff80218db8:	00000013          	nop
ffffffff80218dbc:	00000013          	nop
ffffffff80218dc0:	00000013          	nop
ffffffff80218dc4:	00000013          	nop
ffffffff80218dc8:	00000013          	nop
ffffffff80218dcc:	00000013          	nop
ffffffff80218dd0:	00000013          	nop
ffffffff80218dd4:	00000013          	nop
ffffffff80218dd8:	00000013          	nop
ffffffff80218ddc:	00000013          	nop
ffffffff80218de0:	00000013          	nop
ffffffff80218de4:	00000013          	nop
ffffffff80218de8:	00000013          	nop
ffffffff80218dec:	00000013          	nop
ffffffff80218df0:	00000013          	nop
ffffffff80218df4:	00000013          	nop
ffffffff80218df8:	00000013          	nop
ffffffff80218dfc:	00000013          	nop
ffffffff80218e00:	00000013          	nop
ffffffff80218e04:	00000013          	nop
ffffffff80218e08:	00000013          	nop
ffffffff80218e0c:	00000013          	nop
ffffffff80218e10:	00000013          	nop
ffffffff80218e14:	00000013          	nop
ffffffff80218e18:	00000013          	nop
ffffffff80218e1c:	00000013          	nop
ffffffff80218e20:	00000013          	nop
ffffffff80218e24:	00000013          	nop
ffffffff80218e28:	00000013          	nop
ffffffff80218e2c:	00000013          	nop
ffffffff80218e30:	00000013          	nop
ffffffff80218e34:	00000013          	nop
ffffffff80218e38:	00000013          	nop
ffffffff80218e3c:	00000013          	nop
ffffffff80218e40:	00000013          	nop
ffffffff80218e44:	00000013          	nop
ffffffff80218e48:	00000013          	nop
ffffffff80218e4c:	00000013          	nop
ffffffff80218e50:	00000013          	nop
ffffffff80218e54:	00000013          	nop
ffffffff80218e58:	00000013          	nop
ffffffff80218e5c:	00000013          	nop
ffffffff80218e60:	00000013          	nop
ffffffff80218e64:	00000013          	nop
ffffffff80218e68:	00000013          	nop
ffffffff80218e6c:	00000013          	nop
ffffffff80218e70:	00000013          	nop
ffffffff80218e74:	00000013          	nop
ffffffff80218e78:	00000013          	nop
ffffffff80218e7c:	00000013          	nop
ffffffff80218e80:	00000013          	nop
ffffffff80218e84:	00000013          	nop
ffffffff80218e88:	00000013          	nop
ffffffff80218e8c:	00000013          	nop
ffffffff80218e90:	00000013          	nop
ffffffff80218e94:	00000013          	nop
ffffffff80218e98:	00000013          	nop
ffffffff80218e9c:	00000013          	nop
ffffffff80218ea0:	00000013          	nop
ffffffff80218ea4:	00000013          	nop
ffffffff80218ea8:	00000013          	nop
ffffffff80218eac:	00000013          	nop
ffffffff80218eb0:	00000013          	nop
ffffffff80218eb4:	00000013          	nop
ffffffff80218eb8:	00000013          	nop
ffffffff80218ebc:	00000013          	nop
ffffffff80218ec0:	00000013          	nop
ffffffff80218ec4:	00000013          	nop
ffffffff80218ec8:	00000013          	nop
ffffffff80218ecc:	00000013          	nop
ffffffff80218ed0:	00000013          	nop
ffffffff80218ed4:	00000013          	nop
ffffffff80218ed8:	00000013          	nop
ffffffff80218edc:	00000013          	nop
ffffffff80218ee0:	00000013          	nop
ffffffff80218ee4:	00000013          	nop
ffffffff80218ee8:	00000013          	nop
ffffffff80218eec:	00000013          	nop
ffffffff80218ef0:	00000013          	nop
ffffffff80218ef4:	00000013          	nop
ffffffff80218ef8:	00000013          	nop
ffffffff80218efc:	00000013          	nop
ffffffff80218f00:	00000013          	nop
ffffffff80218f04:	00000013          	nop
ffffffff80218f08:	00000013          	nop
ffffffff80218f0c:	00000013          	nop
ffffffff80218f10:	00000013          	nop
ffffffff80218f14:	00000013          	nop
ffffffff80218f18:	00000013          	nop
ffffffff80218f1c:	00000013          	nop
ffffffff80218f20:	00000013          	nop
ffffffff80218f24:	00000013          	nop
ffffffff80218f28:	00000013          	nop
ffffffff80218f2c:	00000013          	nop
ffffffff80218f30:	00000013          	nop
ffffffff80218f34:	00000013          	nop
ffffffff80218f38:	00000013          	nop
ffffffff80218f3c:	00000013          	nop
ffffffff80218f40:	00000013          	nop
ffffffff80218f44:	00000013          	nop
ffffffff80218f48:	00000013          	nop
ffffffff80218f4c:	00000013          	nop
ffffffff80218f50:	00000013          	nop
ffffffff80218f54:	00000013          	nop
ffffffff80218f58:	00000013          	nop
ffffffff80218f5c:	00000013          	nop
ffffffff80218f60:	00000013          	nop
ffffffff80218f64:	00000013          	nop
ffffffff80218f68:	00000013          	nop
ffffffff80218f6c:	00000013          	nop
ffffffff80218f70:	00000013          	nop
ffffffff80218f74:	00000013          	nop
ffffffff80218f78:	00000013          	nop
ffffffff80218f7c:	00000013          	nop
ffffffff80218f80:	00000013          	nop
ffffffff80218f84:	00000013          	nop
ffffffff80218f88:	00000013          	nop
ffffffff80218f8c:	00000013          	nop
ffffffff80218f90:	00000013          	nop
ffffffff80218f94:	00000013          	nop
ffffffff80218f98:	00000013          	nop
ffffffff80218f9c:	00000013          	nop
ffffffff80218fa0:	00000013          	nop
ffffffff80218fa4:	00000013          	nop
ffffffff80218fa8:	00000013          	nop
ffffffff80218fac:	00000013          	nop
ffffffff80218fb0:	00000013          	nop
ffffffff80218fb4:	00000013          	nop
ffffffff80218fb8:	00000013          	nop
ffffffff80218fbc:	00000013          	nop
ffffffff80218fc0:	00000013          	nop
ffffffff80218fc4:	00000013          	nop
ffffffff80218fc8:	00000013          	nop
ffffffff80218fcc:	00000013          	nop
ffffffff80218fd0:	00000013          	nop
ffffffff80218fd4:	00000013          	nop
ffffffff80218fd8:	00000013          	nop
ffffffff80218fdc:	00000013          	nop
ffffffff80218fe0:	00000013          	nop
ffffffff80218fe4:	00000013          	nop
ffffffff80218fe8:	00000013          	nop
ffffffff80218fec:	00000013          	nop
ffffffff80218ff0:	00000013          	nop
ffffffff80218ff4:	00000013          	nop
ffffffff80218ff8:	00000013          	nop
ffffffff80218ffc:	00000013          	nop
ffffffff80219000:	00000013          	nop
ffffffff80219004:	00000013          	nop
ffffffff80219008:	00000013          	nop
ffffffff8021900c:	00000013          	nop
ffffffff80219010:	00000013          	nop
ffffffff80219014:	00000013          	nop
ffffffff80219018:	00000013          	nop
ffffffff8021901c:	00000013          	nop
ffffffff80219020:	00000013          	nop
ffffffff80219024:	00000013          	nop
ffffffff80219028:	00000013          	nop
ffffffff8021902c:	00000013          	nop
ffffffff80219030:	00000013          	nop
ffffffff80219034:	00000013          	nop
ffffffff80219038:	00000013          	nop
ffffffff8021903c:	00000013          	nop
ffffffff80219040:	00000013          	nop
ffffffff80219044:	00000013          	nop
ffffffff80219048:	00000013          	nop
ffffffff8021904c:	00000013          	nop
ffffffff80219050:	00000013          	nop
ffffffff80219054:	00000013          	nop
ffffffff80219058:	00000013          	nop
ffffffff8021905c:	00000013          	nop
ffffffff80219060:	00000013          	nop
ffffffff80219064:	00000013          	nop
ffffffff80219068:	00000013          	nop
ffffffff8021906c:	00000013          	nop
ffffffff80219070:	00000013          	nop
ffffffff80219074:	00000013          	nop
ffffffff80219078:	00000013          	nop
ffffffff8021907c:	00000013          	nop
ffffffff80219080:	00000013          	nop
ffffffff80219084:	00000013          	nop
ffffffff80219088:	00000013          	nop
ffffffff8021908c:	00000013          	nop
ffffffff80219090:	00000013          	nop
ffffffff80219094:	00000013          	nop
ffffffff80219098:	00000013          	nop
ffffffff8021909c:	00000013          	nop
ffffffff802190a0:	00000013          	nop
ffffffff802190a4:	00000013          	nop
ffffffff802190a8:	00000013          	nop
ffffffff802190ac:	00000013          	nop
ffffffff802190b0:	00000013          	nop
ffffffff802190b4:	00000013          	nop
ffffffff802190b8:	00000013          	nop
ffffffff802190bc:	00000013          	nop
ffffffff802190c0:	00000013          	nop
ffffffff802190c4:	00000013          	nop
ffffffff802190c8:	00000013          	nop
ffffffff802190cc:	00000013          	nop
ffffffff802190d0:	00000013          	nop
ffffffff802190d4:	00000013          	nop
ffffffff802190d8:	00000013          	nop
ffffffff802190dc:	00000013          	nop
ffffffff802190e0:	00000013          	nop
ffffffff802190e4:	00000013          	nop
ffffffff802190e8:	00000013          	nop
ffffffff802190ec:	00000013          	nop
ffffffff802190f0:	00000013          	nop
ffffffff802190f4:	00000013          	nop
ffffffff802190f8:	00000013          	nop
ffffffff802190fc:	00000013          	nop
ffffffff80219100:	00000013          	nop
ffffffff80219104:	00000013          	nop
ffffffff80219108:	00000013          	nop
ffffffff8021910c:	00000013          	nop
ffffffff80219110:	00000013          	nop
ffffffff80219114:	00000013          	nop
ffffffff80219118:	00000013          	nop
ffffffff8021911c:	00000013          	nop
ffffffff80219120:	00000013          	nop
ffffffff80219124:	00000013          	nop
ffffffff80219128:	00000013          	nop
ffffffff8021912c:	00000013          	nop
ffffffff80219130:	00000013          	nop
ffffffff80219134:	00000013          	nop
ffffffff80219138:	00000013          	nop
ffffffff8021913c:	00000013          	nop
ffffffff80219140:	00000013          	nop
ffffffff80219144:	00000013          	nop
ffffffff80219148:	00000013          	nop
ffffffff8021914c:	00000013          	nop
ffffffff80219150:	00000013          	nop
ffffffff80219154:	00000013          	nop
ffffffff80219158:	00000013          	nop
ffffffff8021915c:	00000013          	nop
ffffffff80219160:	00000013          	nop
ffffffff80219164:	00000013          	nop
ffffffff80219168:	00000013          	nop
ffffffff8021916c:	00000013          	nop
ffffffff80219170:	00000013          	nop
ffffffff80219174:	00000013          	nop
ffffffff80219178:	00000013          	nop
ffffffff8021917c:	00000013          	nop
ffffffff80219180:	00000013          	nop
ffffffff80219184:	00000013          	nop
ffffffff80219188:	00000013          	nop
ffffffff8021918c:	00000013          	nop
ffffffff80219190:	00000013          	nop
ffffffff80219194:	00000013          	nop
ffffffff80219198:	00000013          	nop
ffffffff8021919c:	00000013          	nop
ffffffff802191a0:	00000013          	nop
ffffffff802191a4:	00000013          	nop
ffffffff802191a8:	00000013          	nop
ffffffff802191ac:	00000013          	nop
ffffffff802191b0:	00000013          	nop
ffffffff802191b4:	00000013          	nop
ffffffff802191b8:	00000013          	nop
ffffffff802191bc:	00000013          	nop
ffffffff802191c0:	00000013          	nop
ffffffff802191c4:	00000013          	nop
ffffffff802191c8:	00000013          	nop
ffffffff802191cc:	00000013          	nop
ffffffff802191d0:	00000013          	nop
ffffffff802191d4:	00000013          	nop
ffffffff802191d8:	00000013          	nop
ffffffff802191dc:	00000013          	nop
ffffffff802191e0:	00000013          	nop
ffffffff802191e4:	00000013          	nop
ffffffff802191e8:	00000013          	nop
ffffffff802191ec:	00000013          	nop
ffffffff802191f0:	00000013          	nop
ffffffff802191f4:	00000013          	nop
ffffffff802191f8:	00000013          	nop
ffffffff802191fc:	00000013          	nop
ffffffff80219200:	00000013          	nop
ffffffff80219204:	00000013          	nop
ffffffff80219208:	00000013          	nop
ffffffff8021920c:	00000013          	nop
ffffffff80219210:	00000013          	nop
ffffffff80219214:	00000013          	nop
ffffffff80219218:	00000013          	nop
ffffffff8021921c:	00000013          	nop
ffffffff80219220:	00000013          	nop
ffffffff80219224:	00000013          	nop
ffffffff80219228:	00000013          	nop
ffffffff8021922c:	00000013          	nop
ffffffff80219230:	00000013          	nop
ffffffff80219234:	00000013          	nop
ffffffff80219238:	00000013          	nop
ffffffff8021923c:	00000013          	nop
ffffffff80219240:	00000013          	nop
ffffffff80219244:	00000013          	nop
ffffffff80219248:	00000013          	nop
ffffffff8021924c:	00000013          	nop
ffffffff80219250:	00000013          	nop
ffffffff80219254:	00000013          	nop
ffffffff80219258:	00000013          	nop
ffffffff8021925c:	00000013          	nop
ffffffff80219260:	00000013          	nop
ffffffff80219264:	00000013          	nop
ffffffff80219268:	00000013          	nop
ffffffff8021926c:	00000013          	nop
ffffffff80219270:	00000013          	nop
ffffffff80219274:	00000013          	nop
ffffffff80219278:	00000013          	nop
ffffffff8021927c:	00000013          	nop
ffffffff80219280:	00000013          	nop
ffffffff80219284:	00000013          	nop
ffffffff80219288:	00000013          	nop
ffffffff8021928c:	00000013          	nop
ffffffff80219290:	00000013          	nop
ffffffff80219294:	00000013          	nop
ffffffff80219298:	00000013          	nop
ffffffff8021929c:	00000013          	nop
ffffffff802192a0:	00000013          	nop
ffffffff802192a4:	00000013          	nop
ffffffff802192a8:	00000013          	nop
ffffffff802192ac:	00000013          	nop
ffffffff802192b0:	00000013          	nop
ffffffff802192b4:	00000013          	nop
ffffffff802192b8:	00000013          	nop
ffffffff802192bc:	00000013          	nop
ffffffff802192c0:	00000013          	nop
ffffffff802192c4:	00000013          	nop
ffffffff802192c8:	00000013          	nop
ffffffff802192cc:	00000013          	nop
ffffffff802192d0:	00000013          	nop
ffffffff802192d4:	00000013          	nop
ffffffff802192d8:	00000013          	nop
ffffffff802192dc:	00000013          	nop
ffffffff802192e0:	00000013          	nop
ffffffff802192e4:	00000013          	nop
ffffffff802192e8:	00000013          	nop
ffffffff802192ec:	00000013          	nop
ffffffff802192f0:	00000013          	nop
ffffffff802192f4:	00000013          	nop
ffffffff802192f8:	00000013          	nop
ffffffff802192fc:	00000013          	nop
ffffffff80219300:	00000013          	nop
ffffffff80219304:	00000013          	nop
ffffffff80219308:	00000013          	nop
ffffffff8021930c:	00000013          	nop
ffffffff80219310:	00000013          	nop
ffffffff80219314:	00000013          	nop
ffffffff80219318:	00000013          	nop
ffffffff8021931c:	00000013          	nop
ffffffff80219320:	00000013          	nop
ffffffff80219324:	00000013          	nop
ffffffff80219328:	00000013          	nop
ffffffff8021932c:	00000013          	nop
ffffffff80219330:	00000013          	nop
ffffffff80219334:	00000013          	nop
ffffffff80219338:	00000013          	nop
ffffffff8021933c:	00000013          	nop
ffffffff80219340:	00000013          	nop
ffffffff80219344:	00000013          	nop
ffffffff80219348:	00000013          	nop
ffffffff8021934c:	00000013          	nop
ffffffff80219350:	00000013          	nop
ffffffff80219354:	00000013          	nop
ffffffff80219358:	00000013          	nop
ffffffff8021935c:	00000013          	nop
ffffffff80219360:	00000013          	nop
ffffffff80219364:	00000013          	nop
ffffffff80219368:	00000013          	nop
ffffffff8021936c:	00000013          	nop
ffffffff80219370:	00000013          	nop
ffffffff80219374:	00000013          	nop
ffffffff80219378:	00000013          	nop
ffffffff8021937c:	00000013          	nop
ffffffff80219380:	00000013          	nop
ffffffff80219384:	00000013          	nop
ffffffff80219388:	00000013          	nop
ffffffff8021938c:	00000013          	nop
ffffffff80219390:	00000013          	nop
ffffffff80219394:	00000013          	nop
ffffffff80219398:	00000013          	nop
ffffffff8021939c:	00000013          	nop
ffffffff802193a0:	00000013          	nop
ffffffff802193a4:	00000013          	nop
ffffffff802193a8:	00000013          	nop
ffffffff802193ac:	00000013          	nop
ffffffff802193b0:	00000013          	nop
ffffffff802193b4:	00000013          	nop
ffffffff802193b8:	00000013          	nop
ffffffff802193bc:	00000013          	nop
ffffffff802193c0:	00000013          	nop
ffffffff802193c4:	00000013          	nop
ffffffff802193c8:	00000013          	nop
ffffffff802193cc:	00000013          	nop
ffffffff802193d0:	00000013          	nop
ffffffff802193d4:	00000013          	nop
ffffffff802193d8:	00000013          	nop
ffffffff802193dc:	00000013          	nop
ffffffff802193e0:	00000013          	nop
ffffffff802193e4:	00000013          	nop
ffffffff802193e8:	00000013          	nop
ffffffff802193ec:	00000013          	nop
ffffffff802193f0:	00000013          	nop
ffffffff802193f4:	00000013          	nop
ffffffff802193f8:	00000013          	nop
ffffffff802193fc:	00000013          	nop
ffffffff80219400:	00000013          	nop
ffffffff80219404:	00000013          	nop
ffffffff80219408:	00000013          	nop
ffffffff8021940c:	00000013          	nop
ffffffff80219410:	00000013          	nop
ffffffff80219414:	00000013          	nop
ffffffff80219418:	00000013          	nop
ffffffff8021941c:	00000013          	nop
ffffffff80219420:	00000013          	nop
ffffffff80219424:	00000013          	nop
ffffffff80219428:	00000013          	nop
ffffffff8021942c:	00000013          	nop
ffffffff80219430:	00000013          	nop
ffffffff80219434:	00000013          	nop
ffffffff80219438:	00000013          	nop
ffffffff8021943c:	00000013          	nop
ffffffff80219440:	00000013          	nop
ffffffff80219444:	00000013          	nop
ffffffff80219448:	00000013          	nop
ffffffff8021944c:	00000013          	nop
ffffffff80219450:	00000013          	nop
ffffffff80219454:	00000013          	nop
ffffffff80219458:	00000013          	nop
ffffffff8021945c:	00000013          	nop
ffffffff80219460:	00000013          	nop
ffffffff80219464:	00000013          	nop
ffffffff80219468:	00000013          	nop
ffffffff8021946c:	00000013          	nop
ffffffff80219470:	00000013          	nop
ffffffff80219474:	00000013          	nop
ffffffff80219478:	00000013          	nop
ffffffff8021947c:	00000013          	nop
ffffffff80219480:	00000013          	nop
ffffffff80219484:	00000013          	nop
ffffffff80219488:	00000013          	nop
ffffffff8021948c:	00000013          	nop
ffffffff80219490:	00000013          	nop
ffffffff80219494:	00000013          	nop
ffffffff80219498:	00000013          	nop
ffffffff8021949c:	00000013          	nop
ffffffff802194a0:	00000013          	nop
ffffffff802194a4:	00000013          	nop
ffffffff802194a8:	00000013          	nop
ffffffff802194ac:	00000013          	nop
ffffffff802194b0:	00000013          	nop
ffffffff802194b4:	00000013          	nop
ffffffff802194b8:	00000013          	nop
ffffffff802194bc:	00000013          	nop
ffffffff802194c0:	00000013          	nop
ffffffff802194c4:	00000013          	nop
ffffffff802194c8:	00000013          	nop
ffffffff802194cc:	00000013          	nop
ffffffff802194d0:	00000013          	nop
ffffffff802194d4:	00000013          	nop
ffffffff802194d8:	00000013          	nop
ffffffff802194dc:	00000013          	nop
ffffffff802194e0:	00000013          	nop
ffffffff802194e4:	00000013          	nop
ffffffff802194e8:	00000013          	nop
ffffffff802194ec:	00000013          	nop
ffffffff802194f0:	00000013          	nop
ffffffff802194f4:	00000013          	nop
ffffffff802194f8:	00000013          	nop
ffffffff802194fc:	00000013          	nop
ffffffff80219500:	00000013          	nop
ffffffff80219504:	00000013          	nop
ffffffff80219508:	00000013          	nop
ffffffff8021950c:	00000013          	nop
ffffffff80219510:	00000013          	nop
ffffffff80219514:	00000013          	nop
ffffffff80219518:	00000013          	nop
ffffffff8021951c:	00000013          	nop
ffffffff80219520:	00000013          	nop
ffffffff80219524:	00000013          	nop
ffffffff80219528:	00000013          	nop
ffffffff8021952c:	00000013          	nop
ffffffff80219530:	00000013          	nop
ffffffff80219534:	00000013          	nop
ffffffff80219538:	00000013          	nop
ffffffff8021953c:	00000013          	nop
ffffffff80219540:	00000013          	nop
ffffffff80219544:	00000013          	nop
ffffffff80219548:	00000013          	nop
ffffffff8021954c:	00000013          	nop
ffffffff80219550:	00000013          	nop
ffffffff80219554:	00000013          	nop
ffffffff80219558:	00000013          	nop
ffffffff8021955c:	00000013          	nop
ffffffff80219560:	00000013          	nop
ffffffff80219564:	00000013          	nop
ffffffff80219568:	00000013          	nop
ffffffff8021956c:	00000013          	nop
ffffffff80219570:	00000013          	nop
ffffffff80219574:	00000013          	nop
ffffffff80219578:	00000013          	nop
ffffffff8021957c:	00000013          	nop
ffffffff80219580:	00000013          	nop
ffffffff80219584:	00000013          	nop
ffffffff80219588:	00000013          	nop
ffffffff8021958c:	00000013          	nop
ffffffff80219590:	00000013          	nop
ffffffff80219594:	00000013          	nop
ffffffff80219598:	00000013          	nop
ffffffff8021959c:	00000013          	nop
ffffffff802195a0:	00000013          	nop
ffffffff802195a4:	00000013          	nop
ffffffff802195a8:	00000013          	nop
ffffffff802195ac:	00000013          	nop
ffffffff802195b0:	00000013          	nop
ffffffff802195b4:	00000013          	nop
ffffffff802195b8:	00000013          	nop
ffffffff802195bc:	00000013          	nop
ffffffff802195c0:	00000013          	nop
ffffffff802195c4:	00000013          	nop
ffffffff802195c8:	00000013          	nop
ffffffff802195cc:	00000013          	nop
ffffffff802195d0:	00000013          	nop
ffffffff802195d4:	00000013          	nop
ffffffff802195d8:	00000013          	nop
ffffffff802195dc:	00000013          	nop
ffffffff802195e0:	00000013          	nop
ffffffff802195e4:	00000013          	nop
ffffffff802195e8:	00000013          	nop
ffffffff802195ec:	00000013          	nop
ffffffff802195f0:	00000013          	nop
ffffffff802195f4:	00000013          	nop
ffffffff802195f8:	00000013          	nop
ffffffff802195fc:	00000013          	nop
ffffffff80219600:	00000013          	nop
ffffffff80219604:	00000013          	nop
ffffffff80219608:	00000013          	nop
ffffffff8021960c:	00000013          	nop
ffffffff80219610:	00000013          	nop
ffffffff80219614:	00000013          	nop
ffffffff80219618:	00000013          	nop
ffffffff8021961c:	00000013          	nop
ffffffff80219620:	00000013          	nop
ffffffff80219624:	00000013          	nop
ffffffff80219628:	00000013          	nop
ffffffff8021962c:	00000013          	nop
ffffffff80219630:	00000013          	nop
ffffffff80219634:	00000013          	nop
ffffffff80219638:	00000013          	nop
ffffffff8021963c:	00000013          	nop
ffffffff80219640:	00000013          	nop
ffffffff80219644:	00000013          	nop
ffffffff80219648:	00000013          	nop
ffffffff8021964c:	00000013          	nop
ffffffff80219650:	00000013          	nop
ffffffff80219654:	00000013          	nop
ffffffff80219658:	00000013          	nop
ffffffff8021965c:	00000013          	nop
ffffffff80219660:	00000013          	nop
ffffffff80219664:	00000013          	nop
ffffffff80219668:	00000013          	nop
ffffffff8021966c:	00000013          	nop
ffffffff80219670:	00000013          	nop
ffffffff80219674:	00000013          	nop
ffffffff80219678:	00000013          	nop
ffffffff8021967c:	00000013          	nop
ffffffff80219680:	00000013          	nop
ffffffff80219684:	00000013          	nop
ffffffff80219688:	00000013          	nop
ffffffff8021968c:	00000013          	nop
ffffffff80219690:	00000013          	nop
ffffffff80219694:	00000013          	nop
ffffffff80219698:	00000013          	nop
ffffffff8021969c:	00000013          	nop
ffffffff802196a0:	00000013          	nop
ffffffff802196a4:	00000013          	nop
ffffffff802196a8:	00000013          	nop
ffffffff802196ac:	00000013          	nop
ffffffff802196b0:	00000013          	nop
ffffffff802196b4:	00000013          	nop
ffffffff802196b8:	00000013          	nop
ffffffff802196bc:	00000013          	nop
ffffffff802196c0:	00000013          	nop
ffffffff802196c4:	00000013          	nop
ffffffff802196c8:	00000013          	nop
ffffffff802196cc:	00000013          	nop
ffffffff802196d0:	00000013          	nop
ffffffff802196d4:	00000013          	nop
ffffffff802196d8:	00000013          	nop
ffffffff802196dc:	00000013          	nop
ffffffff802196e0:	00000013          	nop
ffffffff802196e4:	00000013          	nop
ffffffff802196e8:	00000013          	nop
ffffffff802196ec:	00000013          	nop
ffffffff802196f0:	00000013          	nop
ffffffff802196f4:	00000013          	nop
ffffffff802196f8:	00000013          	nop
ffffffff802196fc:	00000013          	nop
ffffffff80219700:	00000013          	nop
ffffffff80219704:	00000013          	nop
ffffffff80219708:	00000013          	nop
ffffffff8021970c:	00000013          	nop
ffffffff80219710:	00000013          	nop
ffffffff80219714:	00000013          	nop
ffffffff80219718:	00000013          	nop
ffffffff8021971c:	00000013          	nop
ffffffff80219720:	00000013          	nop
ffffffff80219724:	00000013          	nop
ffffffff80219728:	00000013          	nop
ffffffff8021972c:	00000013          	nop
ffffffff80219730:	00000013          	nop
ffffffff80219734:	00000013          	nop
ffffffff80219738:	00000013          	nop
ffffffff8021973c:	00000013          	nop
ffffffff80219740:	00000013          	nop
ffffffff80219744:	00000013          	nop
ffffffff80219748:	00000013          	nop
ffffffff8021974c:	00000013          	nop
ffffffff80219750:	00000013          	nop
ffffffff80219754:	00000013          	nop
ffffffff80219758:	00000013          	nop
ffffffff8021975c:	00000013          	nop
ffffffff80219760:	00000013          	nop
ffffffff80219764:	00000013          	nop
ffffffff80219768:	00000013          	nop
ffffffff8021976c:	00000013          	nop
ffffffff80219770:	00000013          	nop
ffffffff80219774:	00000013          	nop
ffffffff80219778:	00000013          	nop
ffffffff8021977c:	00000013          	nop
ffffffff80219780:	00000013          	nop
ffffffff80219784:	00000013          	nop
ffffffff80219788:	00000013          	nop
ffffffff8021978c:	00000013          	nop
ffffffff80219790:	00000013          	nop
ffffffff80219794:	00000013          	nop
ffffffff80219798:	00000013          	nop
ffffffff8021979c:	00000013          	nop
ffffffff802197a0:	00000013          	nop
ffffffff802197a4:	00000013          	nop
ffffffff802197a8:	00000013          	nop
ffffffff802197ac:	00000013          	nop
ffffffff802197b0:	00000013          	nop
ffffffff802197b4:	00000013          	nop
ffffffff802197b8:	00000013          	nop
ffffffff802197bc:	00000013          	nop
ffffffff802197c0:	00000013          	nop
ffffffff802197c4:	00000013          	nop
ffffffff802197c8:	00000013          	nop
ffffffff802197cc:	00000013          	nop
ffffffff802197d0:	00000013          	nop
ffffffff802197d4:	00000013          	nop
ffffffff802197d8:	00000013          	nop
ffffffff802197dc:	00000013          	nop
ffffffff802197e0:	00000013          	nop
ffffffff802197e4:	00000013          	nop
ffffffff802197e8:	00000013          	nop
ffffffff802197ec:	00000013          	nop
ffffffff802197f0:	00000013          	nop
ffffffff802197f4:	00000013          	nop
ffffffff802197f8:	00000013          	nop
ffffffff802197fc:	00000013          	nop
ffffffff80219800:	00000013          	nop
ffffffff80219804:	00000013          	nop
ffffffff80219808:	00000013          	nop
ffffffff8021980c:	00000013          	nop
ffffffff80219810:	00000013          	nop
ffffffff80219814:	00000013          	nop
ffffffff80219818:	00000013          	nop
ffffffff8021981c:	00000013          	nop
ffffffff80219820:	00000013          	nop
ffffffff80219824:	00000013          	nop
ffffffff80219828:	00000013          	nop
ffffffff8021982c:	00000013          	nop
ffffffff80219830:	00000013          	nop
ffffffff80219834:	00000013          	nop
ffffffff80219838:	00000013          	nop
ffffffff8021983c:	00000013          	nop
ffffffff80219840:	00000013          	nop
ffffffff80219844:	00000013          	nop
ffffffff80219848:	00000013          	nop
ffffffff8021984c:	00000013          	nop
ffffffff80219850:	00000013          	nop
ffffffff80219854:	00000013          	nop
ffffffff80219858:	00000013          	nop
ffffffff8021985c:	00000013          	nop
ffffffff80219860:	00000013          	nop
ffffffff80219864:	00000013          	nop
ffffffff80219868:	00000013          	nop
ffffffff8021986c:	00000013          	nop
ffffffff80219870:	00000013          	nop
ffffffff80219874:	00000013          	nop
ffffffff80219878:	00000013          	nop
ffffffff8021987c:	00000013          	nop
ffffffff80219880:	00000013          	nop
ffffffff80219884:	00000013          	nop
ffffffff80219888:	00000013          	nop
ffffffff8021988c:	00000013          	nop
ffffffff80219890:	00000013          	nop
ffffffff80219894:	00000013          	nop
ffffffff80219898:	00000013          	nop
ffffffff8021989c:	00000013          	nop
ffffffff802198a0:	00000013          	nop
ffffffff802198a4:	00000013          	nop
ffffffff802198a8:	00000013          	nop
ffffffff802198ac:	00000013          	nop
ffffffff802198b0:	00000013          	nop
ffffffff802198b4:	00000013          	nop
ffffffff802198b8:	00000013          	nop
ffffffff802198bc:	00000013          	nop
ffffffff802198c0:	00000013          	nop
ffffffff802198c4:	00000013          	nop
ffffffff802198c8:	00000013          	nop
ffffffff802198cc:	00000013          	nop
ffffffff802198d0:	00000013          	nop
ffffffff802198d4:	00000013          	nop
ffffffff802198d8:	00000013          	nop
ffffffff802198dc:	00000013          	nop
ffffffff802198e0:	00000013          	nop
ffffffff802198e4:	00000013          	nop
ffffffff802198e8:	00000013          	nop
ffffffff802198ec:	00000013          	nop
ffffffff802198f0:	00000013          	nop
ffffffff802198f4:	00000013          	nop
ffffffff802198f8:	00000013          	nop
ffffffff802198fc:	00000013          	nop
ffffffff80219900:	00000013          	nop
ffffffff80219904:	00000013          	nop
ffffffff80219908:	00000013          	nop
ffffffff8021990c:	00000013          	nop
ffffffff80219910:	00000013          	nop
ffffffff80219914:	00000013          	nop
ffffffff80219918:	00000013          	nop
ffffffff8021991c:	00000013          	nop
ffffffff80219920:	00000013          	nop
ffffffff80219924:	00000013          	nop
ffffffff80219928:	00000013          	nop
ffffffff8021992c:	00000013          	nop
ffffffff80219930:	00000013          	nop
ffffffff80219934:	00000013          	nop
ffffffff80219938:	00000013          	nop
ffffffff8021993c:	00000013          	nop
ffffffff80219940:	00000013          	nop
ffffffff80219944:	00000013          	nop
ffffffff80219948:	00000013          	nop
ffffffff8021994c:	00000013          	nop
ffffffff80219950:	00000013          	nop
ffffffff80219954:	00000013          	nop
ffffffff80219958:	00000013          	nop
ffffffff8021995c:	00000013          	nop
ffffffff80219960:	00000013          	nop
ffffffff80219964:	00000013          	nop
ffffffff80219968:	00000013          	nop
ffffffff8021996c:	00000013          	nop
ffffffff80219970:	00000013          	nop
ffffffff80219974:	00000013          	nop
ffffffff80219978:	00000013          	nop
ffffffff8021997c:	00000013          	nop
ffffffff80219980:	00000013          	nop
ffffffff80219984:	00000013          	nop
ffffffff80219988:	00000013          	nop
ffffffff8021998c:	00000013          	nop
ffffffff80219990:	00000013          	nop
ffffffff80219994:	00000013          	nop
ffffffff80219998:	00000013          	nop
ffffffff8021999c:	00000013          	nop
ffffffff802199a0:	00000013          	nop
ffffffff802199a4:	00000013          	nop
ffffffff802199a8:	00000013          	nop
ffffffff802199ac:	00000013          	nop
ffffffff802199b0:	00000013          	nop
ffffffff802199b4:	00000013          	nop
ffffffff802199b8:	00000013          	nop
ffffffff802199bc:	00000013          	nop
ffffffff802199c0:	00000013          	nop
ffffffff802199c4:	00000013          	nop
ffffffff802199c8:	00000013          	nop
ffffffff802199cc:	00000013          	nop
ffffffff802199d0:	00000013          	nop
ffffffff802199d4:	00000013          	nop
ffffffff802199d8:	00000013          	nop
ffffffff802199dc:	00000013          	nop
ffffffff802199e0:	00000013          	nop
ffffffff802199e4:	00000013          	nop
ffffffff802199e8:	00000013          	nop
ffffffff802199ec:	00000013          	nop
ffffffff802199f0:	00000013          	nop
ffffffff802199f4:	00000013          	nop
ffffffff802199f8:	00000013          	nop
ffffffff802199fc:	00000013          	nop
ffffffff80219a00:	00000013          	nop
ffffffff80219a04:	00000013          	nop
ffffffff80219a08:	00000013          	nop
ffffffff80219a0c:	00000013          	nop
ffffffff80219a10:	00000013          	nop
ffffffff80219a14:	00000013          	nop
ffffffff80219a18:	00000013          	nop
ffffffff80219a1c:	00000013          	nop
ffffffff80219a20:	00000013          	nop
ffffffff80219a24:	00000013          	nop
ffffffff80219a28:	00000013          	nop
ffffffff80219a2c:	00000013          	nop
ffffffff80219a30:	00000013          	nop
ffffffff80219a34:	00000013          	nop
ffffffff80219a38:	00000013          	nop
ffffffff80219a3c:	00000013          	nop
ffffffff80219a40:	00000013          	nop
ffffffff80219a44:	00000013          	nop
ffffffff80219a48:	00000013          	nop
ffffffff80219a4c:	00000013          	nop
ffffffff80219a50:	00000013          	nop
ffffffff80219a54:	00000013          	nop
ffffffff80219a58:	00000013          	nop
ffffffff80219a5c:	00000013          	nop
ffffffff80219a60:	00000013          	nop
ffffffff80219a64:	00000013          	nop
ffffffff80219a68:	00000013          	nop
ffffffff80219a6c:	00000013          	nop
ffffffff80219a70:	00000013          	nop
ffffffff80219a74:	00000013          	nop
ffffffff80219a78:	00000013          	nop
ffffffff80219a7c:	00000013          	nop
ffffffff80219a80:	00000013          	nop
ffffffff80219a84:	00000013          	nop
ffffffff80219a88:	00000013          	nop
ffffffff80219a8c:	00000013          	nop
ffffffff80219a90:	00000013          	nop
ffffffff80219a94:	00000013          	nop
ffffffff80219a98:	00000013          	nop
ffffffff80219a9c:	00000013          	nop
ffffffff80219aa0:	00000013          	nop
ffffffff80219aa4:	00000013          	nop
ffffffff80219aa8:	00000013          	nop
ffffffff80219aac:	00000013          	nop
ffffffff80219ab0:	00000013          	nop
ffffffff80219ab4:	00000013          	nop
ffffffff80219ab8:	00000013          	nop
ffffffff80219abc:	00000013          	nop
ffffffff80219ac0:	00000013          	nop
ffffffff80219ac4:	00000013          	nop
ffffffff80219ac8:	00000013          	nop
ffffffff80219acc:	00000013          	nop
ffffffff80219ad0:	00000013          	nop
ffffffff80219ad4:	00000013          	nop
ffffffff80219ad8:	00000013          	nop
ffffffff80219adc:	00000013          	nop
ffffffff80219ae0:	00000013          	nop
ffffffff80219ae4:	00000013          	nop
ffffffff80219ae8:	00000013          	nop
ffffffff80219aec:	00000013          	nop
ffffffff80219af0:	00000013          	nop
ffffffff80219af4:	00000013          	nop
ffffffff80219af8:	00000013          	nop
ffffffff80219afc:	00000013          	nop
ffffffff80219b00:	00000013          	nop
ffffffff80219b04:	00000013          	nop
ffffffff80219b08:	00000013          	nop
ffffffff80219b0c:	00000013          	nop
ffffffff80219b10:	00000013          	nop
ffffffff80219b14:	00000013          	nop
ffffffff80219b18:	00000013          	nop
ffffffff80219b1c:	00000013          	nop
ffffffff80219b20:	00000013          	nop
ffffffff80219b24:	00000013          	nop
ffffffff80219b28:	00000013          	nop
ffffffff80219b2c:	00000013          	nop
ffffffff80219b30:	00000013          	nop
ffffffff80219b34:	00000013          	nop
ffffffff80219b38:	00000013          	nop
ffffffff80219b3c:	00000013          	nop
ffffffff80219b40:	00000013          	nop
ffffffff80219b44:	00000013          	nop
ffffffff80219b48:	00000013          	nop
ffffffff80219b4c:	00000013          	nop
ffffffff80219b50:	00000013          	nop
ffffffff80219b54:	00000013          	nop
ffffffff80219b58:	00000013          	nop
ffffffff80219b5c:	00000013          	nop
ffffffff80219b60:	00000013          	nop
ffffffff80219b64:	00000013          	nop
ffffffff80219b68:	00000013          	nop
ffffffff80219b6c:	00000013          	nop
ffffffff80219b70:	00000013          	nop
ffffffff80219b74:	00000013          	nop
ffffffff80219b78:	00000013          	nop
ffffffff80219b7c:	00000013          	nop
ffffffff80219b80:	00000013          	nop
ffffffff80219b84:	00000013          	nop
ffffffff80219b88:	00000013          	nop
ffffffff80219b8c:	00000013          	nop
ffffffff80219b90:	00000013          	nop
ffffffff80219b94:	00000013          	nop
ffffffff80219b98:	00000013          	nop
ffffffff80219b9c:	00000013          	nop
ffffffff80219ba0:	00000013          	nop
ffffffff80219ba4:	00000013          	nop
ffffffff80219ba8:	00000013          	nop
ffffffff80219bac:	00000013          	nop
ffffffff80219bb0:	00000013          	nop
ffffffff80219bb4:	00000013          	nop
ffffffff80219bb8:	00000013          	nop
ffffffff80219bbc:	00000013          	nop
ffffffff80219bc0:	00000013          	nop
ffffffff80219bc4:	00000013          	nop
ffffffff80219bc8:	00000013          	nop
ffffffff80219bcc:	00000013          	nop
ffffffff80219bd0:	00000013          	nop
ffffffff80219bd4:	00000013          	nop
ffffffff80219bd8:	00000013          	nop
ffffffff80219bdc:	00000013          	nop
ffffffff80219be0:	00000013          	nop
ffffffff80219be4:	00000013          	nop
ffffffff80219be8:	00000013          	nop
ffffffff80219bec:	00000013          	nop
ffffffff80219bf0:	00000013          	nop
ffffffff80219bf4:	00000013          	nop
ffffffff80219bf8:	00000013          	nop
ffffffff80219bfc:	00000013          	nop
ffffffff80219c00:	00000013          	nop
ffffffff80219c04:	00000013          	nop
ffffffff80219c08:	00000013          	nop
ffffffff80219c0c:	00000013          	nop
ffffffff80219c10:	00000013          	nop
ffffffff80219c14:	00000013          	nop
ffffffff80219c18:	00000013          	nop
ffffffff80219c1c:	00000013          	nop
ffffffff80219c20:	00000013          	nop
ffffffff80219c24:	00000013          	nop
ffffffff80219c28:	00000013          	nop
ffffffff80219c2c:	00000013          	nop
ffffffff80219c30:	00000013          	nop
ffffffff80219c34:	00000013          	nop
ffffffff80219c38:	00000013          	nop
ffffffff80219c3c:	00000013          	nop
ffffffff80219c40:	00000013          	nop
ffffffff80219c44:	00000013          	nop
ffffffff80219c48:	00000013          	nop
ffffffff80219c4c:	00000013          	nop
ffffffff80219c50:	00000013          	nop
ffffffff80219c54:	00000013          	nop
ffffffff80219c58:	00000013          	nop
ffffffff80219c5c:	00000013          	nop
ffffffff80219c60:	00000013          	nop
ffffffff80219c64:	00000013          	nop
ffffffff80219c68:	00000013          	nop
ffffffff80219c6c:	00000013          	nop
ffffffff80219c70:	00000013          	nop
ffffffff80219c74:	00000013          	nop
ffffffff80219c78:	00000013          	nop
ffffffff80219c7c:	00000013          	nop
ffffffff80219c80:	00000013          	nop
ffffffff80219c84:	00000013          	nop
ffffffff80219c88:	00000013          	nop
ffffffff80219c8c:	00000013          	nop
ffffffff80219c90:	00000013          	nop
ffffffff80219c94:	00000013          	nop
ffffffff80219c98:	00000013          	nop
ffffffff80219c9c:	00000013          	nop
ffffffff80219ca0:	00000013          	nop
ffffffff80219ca4:	00000013          	nop
ffffffff80219ca8:	00000013          	nop
ffffffff80219cac:	00000013          	nop
ffffffff80219cb0:	00000013          	nop
ffffffff80219cb4:	00000013          	nop
ffffffff80219cb8:	00000013          	nop
ffffffff80219cbc:	00000013          	nop
ffffffff80219cc0:	00000013          	nop
ffffffff80219cc4:	00000013          	nop
ffffffff80219cc8:	00000013          	nop
ffffffff80219ccc:	00000013          	nop
ffffffff80219cd0:	00000013          	nop
ffffffff80219cd4:	00000013          	nop
ffffffff80219cd8:	00000013          	nop
ffffffff80219cdc:	00000013          	nop
ffffffff80219ce0:	00000013          	nop
ffffffff80219ce4:	00000013          	nop
ffffffff80219ce8:	00000013          	nop
ffffffff80219cec:	00000013          	nop
ffffffff80219cf0:	00000013          	nop
ffffffff80219cf4:	00000013          	nop
ffffffff80219cf8:	00000013          	nop
ffffffff80219cfc:	00000013          	nop
ffffffff80219d00:	00000013          	nop
ffffffff80219d04:	00000013          	nop
ffffffff80219d08:	00000013          	nop
ffffffff80219d0c:	00000013          	nop
ffffffff80219d10:	00000013          	nop
ffffffff80219d14:	00000013          	nop
ffffffff80219d18:	00000013          	nop
ffffffff80219d1c:	00000013          	nop
ffffffff80219d20:	00000013          	nop
ffffffff80219d24:	00000013          	nop
ffffffff80219d28:	00000013          	nop
ffffffff80219d2c:	00000013          	nop
ffffffff80219d30:	00000013          	nop
ffffffff80219d34:	00000013          	nop
ffffffff80219d38:	00000013          	nop
ffffffff80219d3c:	00000013          	nop
ffffffff80219d40:	00000013          	nop
ffffffff80219d44:	00000013          	nop
ffffffff80219d48:	00000013          	nop
ffffffff80219d4c:	00000013          	nop
ffffffff80219d50:	00000013          	nop
ffffffff80219d54:	00000013          	nop
ffffffff80219d58:	00000013          	nop
ffffffff80219d5c:	00000013          	nop
ffffffff80219d60:	00000013          	nop
ffffffff80219d64:	00000013          	nop
ffffffff80219d68:	00000013          	nop
ffffffff80219d6c:	00000013          	nop
ffffffff80219d70:	00000013          	nop
ffffffff80219d74:	00000013          	nop
ffffffff80219d78:	00000013          	nop
ffffffff80219d7c:	00000013          	nop
ffffffff80219d80:	00000013          	nop
ffffffff80219d84:	00000013          	nop
ffffffff80219d88:	00000013          	nop
ffffffff80219d8c:	00000013          	nop
ffffffff80219d90:	00000013          	nop
ffffffff80219d94:	00000013          	nop
ffffffff80219d98:	00000013          	nop
ffffffff80219d9c:	00000013          	nop
ffffffff80219da0:	00000013          	nop
ffffffff80219da4:	00000013          	nop
ffffffff80219da8:	00000013          	nop
ffffffff80219dac:	00000013          	nop
ffffffff80219db0:	00000013          	nop
ffffffff80219db4:	00000013          	nop
ffffffff80219db8:	00000013          	nop
ffffffff80219dbc:	00000013          	nop
ffffffff80219dc0:	00000013          	nop
ffffffff80219dc4:	00000013          	nop
ffffffff80219dc8:	00000013          	nop
ffffffff80219dcc:	00000013          	nop
ffffffff80219dd0:	00000013          	nop
ffffffff80219dd4:	00000013          	nop
ffffffff80219dd8:	00000013          	nop
ffffffff80219ddc:	00000013          	nop
ffffffff80219de0:	00000013          	nop
ffffffff80219de4:	00000013          	nop
ffffffff80219de8:	00000013          	nop
ffffffff80219dec:	00000013          	nop
ffffffff80219df0:	00000013          	nop
ffffffff80219df4:	00000013          	nop
ffffffff80219df8:	00000013          	nop
ffffffff80219dfc:	00000013          	nop
ffffffff80219e00:	00000013          	nop
ffffffff80219e04:	00000013          	nop
ffffffff80219e08:	00000013          	nop
ffffffff80219e0c:	00000013          	nop
ffffffff80219e10:	00000013          	nop
ffffffff80219e14:	00000013          	nop
ffffffff80219e18:	00000013          	nop
ffffffff80219e1c:	00000013          	nop
ffffffff80219e20:	00000013          	nop
ffffffff80219e24:	00000013          	nop
ffffffff80219e28:	00000013          	nop
ffffffff80219e2c:	00000013          	nop
ffffffff80219e30:	00000013          	nop
ffffffff80219e34:	00000013          	nop
ffffffff80219e38:	00000013          	nop
ffffffff80219e3c:	00000013          	nop
ffffffff80219e40:	00000013          	nop
ffffffff80219e44:	00000013          	nop
ffffffff80219e48:	00000013          	nop
ffffffff80219e4c:	00000013          	nop
ffffffff80219e50:	00000013          	nop
ffffffff80219e54:	00000013          	nop
ffffffff80219e58:	00000013          	nop
ffffffff80219e5c:	00000013          	nop
ffffffff80219e60:	00000013          	nop
ffffffff80219e64:	00000013          	nop
ffffffff80219e68:	00000013          	nop
ffffffff80219e6c:	00000013          	nop
ffffffff80219e70:	00000013          	nop
ffffffff80219e74:	00000013          	nop
ffffffff80219e78:	00000013          	nop
ffffffff80219e7c:	00000013          	nop
ffffffff80219e80:	00000013          	nop
ffffffff80219e84:	00000013          	nop
ffffffff80219e88:	00000013          	nop
ffffffff80219e8c:	00000013          	nop
ffffffff80219e90:	00000013          	nop
ffffffff80219e94:	00000013          	nop
ffffffff80219e98:	00000013          	nop
ffffffff80219e9c:	00000013          	nop
ffffffff80219ea0:	00000013          	nop
ffffffff80219ea4:	00000013          	nop
ffffffff80219ea8:	00000013          	nop
ffffffff80219eac:	00000013          	nop
ffffffff80219eb0:	00000013          	nop
ffffffff80219eb4:	00000013          	nop
ffffffff80219eb8:	00000013          	nop
ffffffff80219ebc:	00000013          	nop
ffffffff80219ec0:	00000013          	nop
ffffffff80219ec4:	00000013          	nop
ffffffff80219ec8:	00000013          	nop
ffffffff80219ecc:	00000013          	nop
ffffffff80219ed0:	00000013          	nop
ffffffff80219ed4:	00000013          	nop
ffffffff80219ed8:	00000013          	nop
ffffffff80219edc:	00000013          	nop
ffffffff80219ee0:	00000013          	nop
ffffffff80219ee4:	00000013          	nop
ffffffff80219ee8:	00000013          	nop
ffffffff80219eec:	00000013          	nop
ffffffff80219ef0:	00000013          	nop
ffffffff80219ef4:	00000013          	nop
ffffffff80219ef8:	00000013          	nop
ffffffff80219efc:	00000013          	nop
ffffffff80219f00:	00000013          	nop
ffffffff80219f04:	00000013          	nop
ffffffff80219f08:	00000013          	nop
ffffffff80219f0c:	00000013          	nop
ffffffff80219f10:	00000013          	nop
ffffffff80219f14:	00000013          	nop
ffffffff80219f18:	00000013          	nop
ffffffff80219f1c:	00000013          	nop
ffffffff80219f20:	00000013          	nop
ffffffff80219f24:	00000013          	nop
ffffffff80219f28:	00000013          	nop
ffffffff80219f2c:	00000013          	nop
ffffffff80219f30:	00000013          	nop
ffffffff80219f34:	00000013          	nop
ffffffff80219f38:	00000013          	nop
ffffffff80219f3c:	00000013          	nop
ffffffff80219f40:	00000013          	nop
ffffffff80219f44:	00000013          	nop
ffffffff80219f48:	00000013          	nop
ffffffff80219f4c:	00000013          	nop
ffffffff80219f50:	00000013          	nop
ffffffff80219f54:	00000013          	nop
ffffffff80219f58:	00000013          	nop
ffffffff80219f5c:	00000013          	nop
ffffffff80219f60:	00000013          	nop
ffffffff80219f64:	00000013          	nop
ffffffff80219f68:	00000013          	nop
ffffffff80219f6c:	00000013          	nop
ffffffff80219f70:	00000013          	nop
ffffffff80219f74:	00000013          	nop
ffffffff80219f78:	00000013          	nop
ffffffff80219f7c:	00000013          	nop
ffffffff80219f80:	00000013          	nop
ffffffff80219f84:	00000013          	nop
ffffffff80219f88:	00000013          	nop
ffffffff80219f8c:	00000013          	nop
ffffffff80219f90:	00000013          	nop
ffffffff80219f94:	00000013          	nop
ffffffff80219f98:	00000013          	nop
ffffffff80219f9c:	00000013          	nop
ffffffff80219fa0:	00000013          	nop
ffffffff80219fa4:	00000013          	nop
ffffffff80219fa8:	00000013          	nop
ffffffff80219fac:	00000013          	nop
ffffffff80219fb0:	00000013          	nop
ffffffff80219fb4:	00000013          	nop
ffffffff80219fb8:	00000013          	nop
ffffffff80219fbc:	00000013          	nop
ffffffff80219fc0:	00000013          	nop
ffffffff80219fc4:	00000013          	nop
ffffffff80219fc8:	00000013          	nop
ffffffff80219fcc:	00000013          	nop
ffffffff80219fd0:	00000013          	nop
ffffffff80219fd4:	00000013          	nop
ffffffff80219fd8:	00000013          	nop
ffffffff80219fdc:	00000013          	nop
ffffffff80219fe0:	00000013          	nop
ffffffff80219fe4:	00000013          	nop
ffffffff80219fe8:	00000013          	nop
ffffffff80219fec:	00000013          	nop
ffffffff80219ff0:	00000013          	nop
ffffffff80219ff4:	00000013          	nop
ffffffff80219ff8:	00000013          	nop
ffffffff80219ffc:	00000013          	nop
ffffffff8021a000:	00000013          	nop
ffffffff8021a004:	00000013          	nop
ffffffff8021a008:	00000013          	nop
ffffffff8021a00c:	00000013          	nop
ffffffff8021a010:	00000013          	nop
ffffffff8021a014:	00000013          	nop
ffffffff8021a018:	00000013          	nop
ffffffff8021a01c:	00000013          	nop
ffffffff8021a020:	00000013          	nop
ffffffff8021a024:	00000013          	nop
ffffffff8021a028:	00000013          	nop
ffffffff8021a02c:	00000013          	nop
ffffffff8021a030:	00000013          	nop
ffffffff8021a034:	00000013          	nop
ffffffff8021a038:	00000013          	nop
ffffffff8021a03c:	00000013          	nop
ffffffff8021a040:	00000013          	nop
ffffffff8021a044:	00000013          	nop
ffffffff8021a048:	00000013          	nop
ffffffff8021a04c:	00000013          	nop
ffffffff8021a050:	00000013          	nop
ffffffff8021a054:	00000013          	nop
ffffffff8021a058:	00000013          	nop
ffffffff8021a05c:	00000013          	nop
ffffffff8021a060:	00000013          	nop
ffffffff8021a064:	00000013          	nop
ffffffff8021a068:	00000013          	nop
ffffffff8021a06c:	00000013          	nop
ffffffff8021a070:	00000013          	nop
ffffffff8021a074:	00000013          	nop
ffffffff8021a078:	00000013          	nop
ffffffff8021a07c:	00000013          	nop
ffffffff8021a080:	00000013          	nop
ffffffff8021a084:	00000013          	nop
ffffffff8021a088:	00000013          	nop
ffffffff8021a08c:	00000013          	nop
ffffffff8021a090:	00000013          	nop
ffffffff8021a094:	00000013          	nop
ffffffff8021a098:	00000013          	nop
ffffffff8021a09c:	00000013          	nop
ffffffff8021a0a0:	00000013          	nop
ffffffff8021a0a4:	00000013          	nop
ffffffff8021a0a8:	00000013          	nop
ffffffff8021a0ac:	00000013          	nop
ffffffff8021a0b0:	00000013          	nop
ffffffff8021a0b4:	00000013          	nop
ffffffff8021a0b8:	00000013          	nop
ffffffff8021a0bc:	00000013          	nop
ffffffff8021a0c0:	00000013          	nop
ffffffff8021a0c4:	00000013          	nop
ffffffff8021a0c8:	00000013          	nop
ffffffff8021a0cc:	00000013          	nop
ffffffff8021a0d0:	00000013          	nop
ffffffff8021a0d4:	00000013          	nop
ffffffff8021a0d8:	00000013          	nop
ffffffff8021a0dc:	00000013          	nop
ffffffff8021a0e0:	00000013          	nop
ffffffff8021a0e4:	00000013          	nop
ffffffff8021a0e8:	00000013          	nop
ffffffff8021a0ec:	00000013          	nop
ffffffff8021a0f0:	00000013          	nop
ffffffff8021a0f4:	00000013          	nop
ffffffff8021a0f8:	00000013          	nop
ffffffff8021a0fc:	00000013          	nop
ffffffff8021a100:	00000013          	nop
ffffffff8021a104:	00000013          	nop
ffffffff8021a108:	00000013          	nop
ffffffff8021a10c:	00000013          	nop
ffffffff8021a110:	00000013          	nop
ffffffff8021a114:	00000013          	nop
ffffffff8021a118:	00000013          	nop
ffffffff8021a11c:	00000013          	nop
ffffffff8021a120:	00000013          	nop
ffffffff8021a124:	00000013          	nop
ffffffff8021a128:	00000013          	nop
ffffffff8021a12c:	00000013          	nop
ffffffff8021a130:	00000013          	nop
ffffffff8021a134:	00000013          	nop
ffffffff8021a138:	00000013          	nop
ffffffff8021a13c:	00000013          	nop
ffffffff8021a140:	00000013          	nop
ffffffff8021a144:	00000013          	nop
ffffffff8021a148:	00000013          	nop
ffffffff8021a14c:	00000013          	nop
ffffffff8021a150:	00000013          	nop
ffffffff8021a154:	00000013          	nop
ffffffff8021a158:	00000013          	nop
ffffffff8021a15c:	00000013          	nop
ffffffff8021a160:	00000013          	nop
ffffffff8021a164:	00000013          	nop
ffffffff8021a168:	00000013          	nop
ffffffff8021a16c:	00000013          	nop
ffffffff8021a170:	00000013          	nop
ffffffff8021a174:	00000013          	nop
ffffffff8021a178:	00000013          	nop
ffffffff8021a17c:	00000013          	nop
ffffffff8021a180:	00000013          	nop
ffffffff8021a184:	00000013          	nop
ffffffff8021a188:	00000013          	nop
ffffffff8021a18c:	00000013          	nop
ffffffff8021a190:	00000013          	nop
ffffffff8021a194:	00000013          	nop
ffffffff8021a198:	00000013          	nop
ffffffff8021a19c:	00000013          	nop
ffffffff8021a1a0:	00000013          	nop
ffffffff8021a1a4:	00000013          	nop
ffffffff8021a1a8:	00000013          	nop
ffffffff8021a1ac:	00000013          	nop
ffffffff8021a1b0:	00000013          	nop
ffffffff8021a1b4:	00000013          	nop
ffffffff8021a1b8:	00000013          	nop
ffffffff8021a1bc:	00000013          	nop
ffffffff8021a1c0:	00000013          	nop
ffffffff8021a1c4:	00000013          	nop
ffffffff8021a1c8:	00000013          	nop
ffffffff8021a1cc:	00000013          	nop
ffffffff8021a1d0:	00000013          	nop
ffffffff8021a1d4:	00000013          	nop
ffffffff8021a1d8:	00000013          	nop
ffffffff8021a1dc:	00000013          	nop
ffffffff8021a1e0:	00000013          	nop
ffffffff8021a1e4:	00000013          	nop
ffffffff8021a1e8:	00000013          	nop
ffffffff8021a1ec:	00000013          	nop
ffffffff8021a1f0:	00000013          	nop
ffffffff8021a1f4:	00000013          	nop
ffffffff8021a1f8:	00000013          	nop
ffffffff8021a1fc:	00000013          	nop
ffffffff8021a200:	00000013          	nop
ffffffff8021a204:	00000013          	nop
ffffffff8021a208:	00000013          	nop
ffffffff8021a20c:	00000013          	nop
ffffffff8021a210:	00000013          	nop
ffffffff8021a214:	00000013          	nop
ffffffff8021a218:	00000013          	nop
ffffffff8021a21c:	00000013          	nop
ffffffff8021a220:	00000013          	nop
ffffffff8021a224:	00000013          	nop
ffffffff8021a228:	00000013          	nop
ffffffff8021a22c:	00000013          	nop
ffffffff8021a230:	00000013          	nop
ffffffff8021a234:	00000013          	nop
ffffffff8021a238:	00000013          	nop
ffffffff8021a23c:	00000013          	nop
ffffffff8021a240:	00000013          	nop
ffffffff8021a244:	00000013          	nop
ffffffff8021a248:	00000013          	nop
ffffffff8021a24c:	00000013          	nop
ffffffff8021a250:	00000013          	nop
ffffffff8021a254:	00000013          	nop
ffffffff8021a258:	00000013          	nop
ffffffff8021a25c:	00000013          	nop
ffffffff8021a260:	00000013          	nop
ffffffff8021a264:	00000013          	nop
ffffffff8021a268:	00000013          	nop
ffffffff8021a26c:	00000013          	nop
ffffffff8021a270:	00000013          	nop
ffffffff8021a274:	00000013          	nop
ffffffff8021a278:	00000013          	nop
ffffffff8021a27c:	00000013          	nop
ffffffff8021a280:	00000013          	nop
ffffffff8021a284:	00000013          	nop
ffffffff8021a288:	00000013          	nop
ffffffff8021a28c:	00000013          	nop
ffffffff8021a290:	00000013          	nop
ffffffff8021a294:	00000013          	nop
ffffffff8021a298:	00000013          	nop
ffffffff8021a29c:	00000013          	nop
ffffffff8021a2a0:	00000013          	nop
ffffffff8021a2a4:	00000013          	nop
ffffffff8021a2a8:	00000013          	nop
ffffffff8021a2ac:	00000013          	nop
ffffffff8021a2b0:	00000013          	nop
ffffffff8021a2b4:	00000013          	nop
ffffffff8021a2b8:	00000013          	nop
ffffffff8021a2bc:	00000013          	nop
ffffffff8021a2c0:	00000013          	nop
ffffffff8021a2c4:	00000013          	nop
ffffffff8021a2c8:	00000013          	nop
ffffffff8021a2cc:	00000013          	nop
ffffffff8021a2d0:	00000013          	nop
ffffffff8021a2d4:	00000013          	nop
ffffffff8021a2d8:	00000013          	nop
ffffffff8021a2dc:	00000013          	nop
ffffffff8021a2e0:	00000013          	nop
ffffffff8021a2e4:	00000013          	nop
ffffffff8021a2e8:	00000013          	nop
ffffffff8021a2ec:	00000013          	nop
ffffffff8021a2f0:	00000013          	nop
ffffffff8021a2f4:	00000013          	nop
ffffffff8021a2f8:	00000013          	nop
ffffffff8021a2fc:	00000013          	nop
ffffffff8021a300:	00000013          	nop
ffffffff8021a304:	00000013          	nop
ffffffff8021a308:	00000013          	nop
ffffffff8021a30c:	00000013          	nop
ffffffff8021a310:	00000013          	nop
ffffffff8021a314:	00000013          	nop
ffffffff8021a318:	00000013          	nop
ffffffff8021a31c:	00000013          	nop
ffffffff8021a320:	00000013          	nop
ffffffff8021a324:	00000013          	nop
ffffffff8021a328:	00000013          	nop
ffffffff8021a32c:	00000013          	nop
ffffffff8021a330:	00000013          	nop
ffffffff8021a334:	00000013          	nop
ffffffff8021a338:	00000013          	nop
ffffffff8021a33c:	00000013          	nop
ffffffff8021a340:	00000013          	nop
ffffffff8021a344:	00000013          	nop
ffffffff8021a348:	00000013          	nop
ffffffff8021a34c:	00000013          	nop
ffffffff8021a350:	00000013          	nop
ffffffff8021a354:	00000013          	nop
ffffffff8021a358:	00000013          	nop
ffffffff8021a35c:	00000013          	nop
ffffffff8021a360:	00000013          	nop
ffffffff8021a364:	00000013          	nop
ffffffff8021a368:	00000013          	nop
ffffffff8021a36c:	00000013          	nop
ffffffff8021a370:	00000013          	nop
ffffffff8021a374:	00000013          	nop
ffffffff8021a378:	00000013          	nop
ffffffff8021a37c:	00000013          	nop
ffffffff8021a380:	00000013          	nop
ffffffff8021a384:	00000013          	nop
ffffffff8021a388:	00000013          	nop
ffffffff8021a38c:	00000013          	nop
ffffffff8021a390:	00000013          	nop
ffffffff8021a394:	00000013          	nop
ffffffff8021a398:	00000013          	nop
ffffffff8021a39c:	00000013          	nop
ffffffff8021a3a0:	00000013          	nop
ffffffff8021a3a4:	00000013          	nop
ffffffff8021a3a8:	00000013          	nop
ffffffff8021a3ac:	00000013          	nop
ffffffff8021a3b0:	00000013          	nop
ffffffff8021a3b4:	00000013          	nop
ffffffff8021a3b8:	00000013          	nop
ffffffff8021a3bc:	00000013          	nop
ffffffff8021a3c0:	00000013          	nop
ffffffff8021a3c4:	00000013          	nop
ffffffff8021a3c8:	00000013          	nop
ffffffff8021a3cc:	00000013          	nop
ffffffff8021a3d0:	00000013          	nop
ffffffff8021a3d4:	00000013          	nop
ffffffff8021a3d8:	00000013          	nop
ffffffff8021a3dc:	00000013          	nop
ffffffff8021a3e0:	00000013          	nop
ffffffff8021a3e4:	00000013          	nop
ffffffff8021a3e8:	00000013          	nop
ffffffff8021a3ec:	00000013          	nop
ffffffff8021a3f0:	00000013          	nop
ffffffff8021a3f4:	00000013          	nop
ffffffff8021a3f8:	00000013          	nop
ffffffff8021a3fc:	00000013          	nop
ffffffff8021a400:	00000013          	nop
ffffffff8021a404:	00000013          	nop
ffffffff8021a408:	00000013          	nop
ffffffff8021a40c:	00000013          	nop
ffffffff8021a410:	00000013          	nop
ffffffff8021a414:	00000013          	nop
ffffffff8021a418:	00000013          	nop
ffffffff8021a41c:	00000013          	nop
ffffffff8021a420:	00000013          	nop
ffffffff8021a424:	00000013          	nop
ffffffff8021a428:	00000013          	nop
ffffffff8021a42c:	00000013          	nop
ffffffff8021a430:	00000013          	nop
ffffffff8021a434:	00000013          	nop
ffffffff8021a438:	00000013          	nop
ffffffff8021a43c:	00000013          	nop
ffffffff8021a440:	00000013          	nop
ffffffff8021a444:	00000013          	nop
ffffffff8021a448:	00000013          	nop
ffffffff8021a44c:	00000013          	nop
ffffffff8021a450:	00000013          	nop
ffffffff8021a454:	00000013          	nop
ffffffff8021a458:	00000013          	nop
ffffffff8021a45c:	00000013          	nop
ffffffff8021a460:	00000013          	nop
ffffffff8021a464:	00000013          	nop
ffffffff8021a468:	00000013          	nop
ffffffff8021a46c:	00000013          	nop
ffffffff8021a470:	00000013          	nop
ffffffff8021a474:	00000013          	nop
ffffffff8021a478:	00000013          	nop
ffffffff8021a47c:	00000013          	nop
ffffffff8021a480:	00000013          	nop
ffffffff8021a484:	00000013          	nop
ffffffff8021a488:	00000013          	nop
ffffffff8021a48c:	00000013          	nop
ffffffff8021a490:	00000013          	nop
ffffffff8021a494:	00000013          	nop
ffffffff8021a498:	00000013          	nop
ffffffff8021a49c:	00000013          	nop
ffffffff8021a4a0:	00000013          	nop
ffffffff8021a4a4:	00000013          	nop
ffffffff8021a4a8:	00000013          	nop
ffffffff8021a4ac:	00000013          	nop
ffffffff8021a4b0:	00000013          	nop
ffffffff8021a4b4:	00000013          	nop
ffffffff8021a4b8:	00000013          	nop
ffffffff8021a4bc:	00000013          	nop
ffffffff8021a4c0:	00000013          	nop
ffffffff8021a4c4:	00000013          	nop
ffffffff8021a4c8:	00000013          	nop
ffffffff8021a4cc:	00000013          	nop
ffffffff8021a4d0:	00000013          	nop
ffffffff8021a4d4:	00000013          	nop
ffffffff8021a4d8:	00000013          	nop
ffffffff8021a4dc:	00000013          	nop
ffffffff8021a4e0:	00000013          	nop
ffffffff8021a4e4:	00000013          	nop
ffffffff8021a4e8:	00000013          	nop
ffffffff8021a4ec:	00000013          	nop
ffffffff8021a4f0:	00000013          	nop
ffffffff8021a4f4:	00000013          	nop
ffffffff8021a4f8:	00000013          	nop
ffffffff8021a4fc:	00000013          	nop
ffffffff8021a500:	00000013          	nop
ffffffff8021a504:	00000013          	nop
ffffffff8021a508:	00000013          	nop
ffffffff8021a50c:	00000013          	nop
ffffffff8021a510:	00000013          	nop
ffffffff8021a514:	00000013          	nop
ffffffff8021a518:	00000013          	nop
ffffffff8021a51c:	00000013          	nop
ffffffff8021a520:	00000013          	nop
ffffffff8021a524:	00000013          	nop
ffffffff8021a528:	00000013          	nop
ffffffff8021a52c:	00000013          	nop
ffffffff8021a530:	00000013          	nop
ffffffff8021a534:	00000013          	nop
ffffffff8021a538:	00000013          	nop
ffffffff8021a53c:	00000013          	nop
ffffffff8021a540:	00000013          	nop
ffffffff8021a544:	00000013          	nop
ffffffff8021a548:	00000013          	nop
ffffffff8021a54c:	00000013          	nop
ffffffff8021a550:	00000013          	nop
ffffffff8021a554:	00000013          	nop
ffffffff8021a558:	00000013          	nop
ffffffff8021a55c:	00000013          	nop
ffffffff8021a560:	00000013          	nop
ffffffff8021a564:	00000013          	nop
ffffffff8021a568:	00000013          	nop
ffffffff8021a56c:	00000013          	nop
ffffffff8021a570:	00000013          	nop
ffffffff8021a574:	00000013          	nop
ffffffff8021a578:	00000013          	nop
ffffffff8021a57c:	00000013          	nop
ffffffff8021a580:	00000013          	nop
ffffffff8021a584:	00000013          	nop
ffffffff8021a588:	00000013          	nop
ffffffff8021a58c:	00000013          	nop
ffffffff8021a590:	00000013          	nop
ffffffff8021a594:	00000013          	nop
ffffffff8021a598:	00000013          	nop
ffffffff8021a59c:	00000013          	nop
ffffffff8021a5a0:	00000013          	nop
ffffffff8021a5a4:	00000013          	nop
ffffffff8021a5a8:	00000013          	nop
ffffffff8021a5ac:	00000013          	nop
ffffffff8021a5b0:	00000013          	nop
ffffffff8021a5b4:	00000013          	nop
ffffffff8021a5b8:	00000013          	nop
ffffffff8021a5bc:	00000013          	nop
ffffffff8021a5c0:	00000013          	nop
ffffffff8021a5c4:	00000013          	nop
ffffffff8021a5c8:	00000013          	nop
ffffffff8021a5cc:	00000013          	nop
ffffffff8021a5d0:	00000013          	nop
ffffffff8021a5d4:	00000013          	nop
ffffffff8021a5d8:	00000013          	nop
ffffffff8021a5dc:	00000013          	nop
ffffffff8021a5e0:	00000013          	nop
ffffffff8021a5e4:	00000013          	nop
ffffffff8021a5e8:	00000013          	nop
ffffffff8021a5ec:	00000013          	nop
ffffffff8021a5f0:	00000013          	nop
ffffffff8021a5f4:	00000013          	nop
ffffffff8021a5f8:	00000013          	nop
ffffffff8021a5fc:	00000013          	nop
ffffffff8021a600:	00000013          	nop
ffffffff8021a604:	00000013          	nop
ffffffff8021a608:	00000013          	nop
ffffffff8021a60c:	00000013          	nop
ffffffff8021a610:	00000013          	nop
ffffffff8021a614:	00000013          	nop
ffffffff8021a618:	00000013          	nop
ffffffff8021a61c:	00000013          	nop
ffffffff8021a620:	00000013          	nop
ffffffff8021a624:	00000013          	nop
ffffffff8021a628:	00000013          	nop
ffffffff8021a62c:	00000013          	nop
ffffffff8021a630:	00000013          	nop
ffffffff8021a634:	00000013          	nop
ffffffff8021a638:	00000013          	nop
ffffffff8021a63c:	00000013          	nop
ffffffff8021a640:	00000013          	nop
ffffffff8021a644:	00000013          	nop
ffffffff8021a648:	00000013          	nop
ffffffff8021a64c:	00000013          	nop
ffffffff8021a650:	00000013          	nop
ffffffff8021a654:	00000013          	nop
ffffffff8021a658:	00000013          	nop
ffffffff8021a65c:	00000013          	nop
ffffffff8021a660:	00000013          	nop
ffffffff8021a664:	00000013          	nop
ffffffff8021a668:	00000013          	nop
ffffffff8021a66c:	00000013          	nop
ffffffff8021a670:	00000013          	nop
ffffffff8021a674:	00000013          	nop
ffffffff8021a678:	00000013          	nop
ffffffff8021a67c:	00000013          	nop
ffffffff8021a680:	00000013          	nop
ffffffff8021a684:	00000013          	nop
ffffffff8021a688:	00000013          	nop
ffffffff8021a68c:	00000013          	nop
ffffffff8021a690:	00000013          	nop
ffffffff8021a694:	00000013          	nop
ffffffff8021a698:	00000013          	nop
ffffffff8021a69c:	00000013          	nop
ffffffff8021a6a0:	00000013          	nop
ffffffff8021a6a4:	00000013          	nop
ffffffff8021a6a8:	00000013          	nop
ffffffff8021a6ac:	00000013          	nop
ffffffff8021a6b0:	00000013          	nop
ffffffff8021a6b4:	00000013          	nop
ffffffff8021a6b8:	00000013          	nop
ffffffff8021a6bc:	00000013          	nop
ffffffff8021a6c0:	00000013          	nop
ffffffff8021a6c4:	00000013          	nop
ffffffff8021a6c8:	00000013          	nop
ffffffff8021a6cc:	00000013          	nop
ffffffff8021a6d0:	00000013          	nop
ffffffff8021a6d4:	00000013          	nop
ffffffff8021a6d8:	00000013          	nop
ffffffff8021a6dc:	00000013          	nop
ffffffff8021a6e0:	00000013          	nop
ffffffff8021a6e4:	00000013          	nop
ffffffff8021a6e8:	00000013          	nop
ffffffff8021a6ec:	00000013          	nop
ffffffff8021a6f0:	00000013          	nop
ffffffff8021a6f4:	00000013          	nop
ffffffff8021a6f8:	00000013          	nop
ffffffff8021a6fc:	00000013          	nop
ffffffff8021a700:	00000013          	nop
ffffffff8021a704:	00000013          	nop
ffffffff8021a708:	00000013          	nop
ffffffff8021a70c:	00000013          	nop
ffffffff8021a710:	00000013          	nop
ffffffff8021a714:	00000013          	nop
ffffffff8021a718:	00000013          	nop
ffffffff8021a71c:	00000013          	nop
ffffffff8021a720:	00000013          	nop
ffffffff8021a724:	00000013          	nop
ffffffff8021a728:	00000013          	nop
ffffffff8021a72c:	00000013          	nop
ffffffff8021a730:	00000013          	nop
ffffffff8021a734:	00000013          	nop
ffffffff8021a738:	00000013          	nop
ffffffff8021a73c:	00000013          	nop
ffffffff8021a740:	00000013          	nop
ffffffff8021a744:	00000013          	nop
ffffffff8021a748:	00000013          	nop
ffffffff8021a74c:	00000013          	nop
ffffffff8021a750:	00000013          	nop
ffffffff8021a754:	00000013          	nop
ffffffff8021a758:	00000013          	nop
ffffffff8021a75c:	00000013          	nop
ffffffff8021a760:	00000013          	nop
ffffffff8021a764:	00000013          	nop
ffffffff8021a768:	00000013          	nop
ffffffff8021a76c:	00000013          	nop
ffffffff8021a770:	00000013          	nop
ffffffff8021a774:	00000013          	nop
ffffffff8021a778:	00000013          	nop
ffffffff8021a77c:	00000013          	nop
ffffffff8021a780:	00000013          	nop
ffffffff8021a784:	00000013          	nop
ffffffff8021a788:	00000013          	nop
ffffffff8021a78c:	00000013          	nop
ffffffff8021a790:	00000013          	nop
ffffffff8021a794:	00000013          	nop
ffffffff8021a798:	00000013          	nop
ffffffff8021a79c:	00000013          	nop
ffffffff8021a7a0:	00000013          	nop
ffffffff8021a7a4:	00000013          	nop
ffffffff8021a7a8:	00000013          	nop
ffffffff8021a7ac:	00000013          	nop
ffffffff8021a7b0:	00000013          	nop
ffffffff8021a7b4:	00000013          	nop
ffffffff8021a7b8:	00000013          	nop
ffffffff8021a7bc:	00000013          	nop
ffffffff8021a7c0:	00000013          	nop
ffffffff8021a7c4:	00000013          	nop
ffffffff8021a7c8:	00000013          	nop
ffffffff8021a7cc:	00000013          	nop
ffffffff8021a7d0:	00000013          	nop
ffffffff8021a7d4:	00000013          	nop
ffffffff8021a7d8:	00000013          	nop
ffffffff8021a7dc:	00000013          	nop
ffffffff8021a7e0:	00000013          	nop
ffffffff8021a7e4:	00000013          	nop
ffffffff8021a7e8:	00000013          	nop
ffffffff8021a7ec:	00000013          	nop
ffffffff8021a7f0:	00000013          	nop
ffffffff8021a7f4:	00000013          	nop
ffffffff8021a7f8:	00000013          	nop
ffffffff8021a7fc:	00000013          	nop
ffffffff8021a800:	00000013          	nop
ffffffff8021a804:	00000013          	nop
ffffffff8021a808:	00000013          	nop
ffffffff8021a80c:	00000013          	nop
ffffffff8021a810:	00000013          	nop
ffffffff8021a814:	00000013          	nop
ffffffff8021a818:	00000013          	nop
ffffffff8021a81c:	00000013          	nop
ffffffff8021a820:	00000013          	nop
ffffffff8021a824:	00000013          	nop
ffffffff8021a828:	00000013          	nop
ffffffff8021a82c:	00000013          	nop
ffffffff8021a830:	00000013          	nop
ffffffff8021a834:	00000013          	nop
ffffffff8021a838:	00000013          	nop
ffffffff8021a83c:	00000013          	nop
ffffffff8021a840:	00000013          	nop
ffffffff8021a844:	00000013          	nop
ffffffff8021a848:	00000013          	nop
ffffffff8021a84c:	00000013          	nop
ffffffff8021a850:	00000013          	nop
ffffffff8021a854:	00000013          	nop
ffffffff8021a858:	00000013          	nop
ffffffff8021a85c:	00000013          	nop
ffffffff8021a860:	00000013          	nop
ffffffff8021a864:	00000013          	nop
ffffffff8021a868:	00000013          	nop
ffffffff8021a86c:	00000013          	nop
ffffffff8021a870:	00000013          	nop
ffffffff8021a874:	00000013          	nop
ffffffff8021a878:	00000013          	nop
ffffffff8021a87c:	00000013          	nop
ffffffff8021a880:	00000013          	nop
ffffffff8021a884:	00000013          	nop
ffffffff8021a888:	00000013          	nop
ffffffff8021a88c:	00000013          	nop
ffffffff8021a890:	00000013          	nop
ffffffff8021a894:	00000013          	nop
ffffffff8021a898:	00000013          	nop
ffffffff8021a89c:	00000013          	nop
ffffffff8021a8a0:	00000013          	nop
ffffffff8021a8a4:	00000013          	nop
ffffffff8021a8a8:	00000013          	nop
ffffffff8021a8ac:	00000013          	nop
ffffffff8021a8b0:	00000013          	nop
ffffffff8021a8b4:	00000013          	nop
ffffffff8021a8b8:	00000013          	nop
ffffffff8021a8bc:	00000013          	nop
ffffffff8021a8c0:	00000013          	nop
ffffffff8021a8c4:	00000013          	nop
ffffffff8021a8c8:	00000013          	nop
ffffffff8021a8cc:	00000013          	nop
ffffffff8021a8d0:	00000013          	nop
ffffffff8021a8d4:	00000013          	nop
ffffffff8021a8d8:	00000013          	nop
ffffffff8021a8dc:	00000013          	nop
ffffffff8021a8e0:	00000013          	nop
ffffffff8021a8e4:	00000013          	nop
ffffffff8021a8e8:	00000013          	nop
ffffffff8021a8ec:	00000013          	nop
ffffffff8021a8f0:	00000013          	nop
ffffffff8021a8f4:	00000013          	nop
ffffffff8021a8f8:	00000013          	nop
ffffffff8021a8fc:	00000013          	nop
ffffffff8021a900:	00000013          	nop
ffffffff8021a904:	00000013          	nop
ffffffff8021a908:	00000013          	nop
ffffffff8021a90c:	00000013          	nop
ffffffff8021a910:	00000013          	nop
ffffffff8021a914:	00000013          	nop
ffffffff8021a918:	00000013          	nop
ffffffff8021a91c:	00000013          	nop
ffffffff8021a920:	00000013          	nop
ffffffff8021a924:	00000013          	nop
ffffffff8021a928:	00000013          	nop
ffffffff8021a92c:	00000013          	nop
ffffffff8021a930:	00000013          	nop
ffffffff8021a934:	00000013          	nop
ffffffff8021a938:	00000013          	nop
ffffffff8021a93c:	00000013          	nop
ffffffff8021a940:	00000013          	nop
ffffffff8021a944:	00000013          	nop
ffffffff8021a948:	00000013          	nop
ffffffff8021a94c:	00000013          	nop
ffffffff8021a950:	00000013          	nop
ffffffff8021a954:	00000013          	nop
ffffffff8021a958:	00000013          	nop
ffffffff8021a95c:	00000013          	nop
ffffffff8021a960:	00000013          	nop
ffffffff8021a964:	00000013          	nop
ffffffff8021a968:	00000013          	nop
ffffffff8021a96c:	00000013          	nop
ffffffff8021a970:	00000013          	nop
ffffffff8021a974:	00000013          	nop
ffffffff8021a978:	00000013          	nop
ffffffff8021a97c:	00000013          	nop
ffffffff8021a980:	00000013          	nop
ffffffff8021a984:	00000013          	nop
ffffffff8021a988:	00000013          	nop
ffffffff8021a98c:	00000013          	nop
ffffffff8021a990:	00000013          	nop
ffffffff8021a994:	00000013          	nop
ffffffff8021a998:	00000013          	nop
ffffffff8021a99c:	00000013          	nop
ffffffff8021a9a0:	00000013          	nop
ffffffff8021a9a4:	00000013          	nop
ffffffff8021a9a8:	00000013          	nop
ffffffff8021a9ac:	00000013          	nop
ffffffff8021a9b0:	00000013          	nop
ffffffff8021a9b4:	00000013          	nop
ffffffff8021a9b8:	00000013          	nop
ffffffff8021a9bc:	00000013          	nop
ffffffff8021a9c0:	00000013          	nop
ffffffff8021a9c4:	00000013          	nop
ffffffff8021a9c8:	00000013          	nop
ffffffff8021a9cc:	00000013          	nop
ffffffff8021a9d0:	00000013          	nop
ffffffff8021a9d4:	00000013          	nop
ffffffff8021a9d8:	00000013          	nop
ffffffff8021a9dc:	00000013          	nop
ffffffff8021a9e0:	00000013          	nop
ffffffff8021a9e4:	00000013          	nop
ffffffff8021a9e8:	00000013          	nop
ffffffff8021a9ec:	00000013          	nop
ffffffff8021a9f0:	00000013          	nop
ffffffff8021a9f4:	00000013          	nop
ffffffff8021a9f8:	00000013          	nop
ffffffff8021a9fc:	00000013          	nop
ffffffff8021aa00:	00000013          	nop
ffffffff8021aa04:	00000013          	nop
ffffffff8021aa08:	00000013          	nop
ffffffff8021aa0c:	00000013          	nop
ffffffff8021aa10:	00000013          	nop
ffffffff8021aa14:	00000013          	nop
ffffffff8021aa18:	00000013          	nop
ffffffff8021aa1c:	00000013          	nop
ffffffff8021aa20:	00000013          	nop
ffffffff8021aa24:	00000013          	nop
ffffffff8021aa28:	00000013          	nop
ffffffff8021aa2c:	00000013          	nop
ffffffff8021aa30:	00000013          	nop
ffffffff8021aa34:	00000013          	nop
ffffffff8021aa38:	00000013          	nop
ffffffff8021aa3c:	00000013          	nop
ffffffff8021aa40:	00000013          	nop
ffffffff8021aa44:	00000013          	nop
ffffffff8021aa48:	00000013          	nop
ffffffff8021aa4c:	00000013          	nop
ffffffff8021aa50:	00000013          	nop
ffffffff8021aa54:	00000013          	nop
ffffffff8021aa58:	00000013          	nop
ffffffff8021aa5c:	00000013          	nop
ffffffff8021aa60:	00000013          	nop
ffffffff8021aa64:	00000013          	nop
ffffffff8021aa68:	00000013          	nop
ffffffff8021aa6c:	00000013          	nop
ffffffff8021aa70:	00000013          	nop
ffffffff8021aa74:	00000013          	nop
ffffffff8021aa78:	00000013          	nop
ffffffff8021aa7c:	00000013          	nop
ffffffff8021aa80:	00000013          	nop
ffffffff8021aa84:	00000013          	nop
ffffffff8021aa88:	00000013          	nop
ffffffff8021aa8c:	00000013          	nop
ffffffff8021aa90:	00000013          	nop
ffffffff8021aa94:	00000013          	nop
ffffffff8021aa98:	00000013          	nop
ffffffff8021aa9c:	00000013          	nop
ffffffff8021aaa0:	00000013          	nop
ffffffff8021aaa4:	00000013          	nop
ffffffff8021aaa8:	00000013          	nop
ffffffff8021aaac:	00000013          	nop
ffffffff8021aab0:	00000013          	nop
ffffffff8021aab4:	00000013          	nop
ffffffff8021aab8:	00000013          	nop
ffffffff8021aabc:	00000013          	nop
ffffffff8021aac0:	00000013          	nop
ffffffff8021aac4:	00000013          	nop
ffffffff8021aac8:	00000013          	nop
ffffffff8021aacc:	00000013          	nop
ffffffff8021aad0:	00000013          	nop
ffffffff8021aad4:	00000013          	nop
ffffffff8021aad8:	00000013          	nop
ffffffff8021aadc:	00000013          	nop
ffffffff8021aae0:	00000013          	nop
ffffffff8021aae4:	00000013          	nop
ffffffff8021aae8:	00000013          	nop
ffffffff8021aaec:	00000013          	nop
ffffffff8021aaf0:	00000013          	nop
ffffffff8021aaf4:	00000013          	nop
ffffffff8021aaf8:	00000013          	nop
ffffffff8021aafc:	00000013          	nop
ffffffff8021ab00:	00000013          	nop
ffffffff8021ab04:	00000013          	nop
ffffffff8021ab08:	00000013          	nop
ffffffff8021ab0c:	00000013          	nop
ffffffff8021ab10:	00000013          	nop
ffffffff8021ab14:	00000013          	nop
ffffffff8021ab18:	00000013          	nop
ffffffff8021ab1c:	00000013          	nop
ffffffff8021ab20:	00000013          	nop
ffffffff8021ab24:	00000013          	nop
ffffffff8021ab28:	00000013          	nop
ffffffff8021ab2c:	00000013          	nop
ffffffff8021ab30:	00000013          	nop
ffffffff8021ab34:	00000013          	nop
ffffffff8021ab38:	00000013          	nop
ffffffff8021ab3c:	00000013          	nop
ffffffff8021ab40:	00000013          	nop
ffffffff8021ab44:	00000013          	nop
ffffffff8021ab48:	00000013          	nop
ffffffff8021ab4c:	00000013          	nop
ffffffff8021ab50:	00000013          	nop
ffffffff8021ab54:	00000013          	nop
ffffffff8021ab58:	00000013          	nop
ffffffff8021ab5c:	00000013          	nop
ffffffff8021ab60:	00000013          	nop
ffffffff8021ab64:	00000013          	nop
ffffffff8021ab68:	00000013          	nop
ffffffff8021ab6c:	00000013          	nop
ffffffff8021ab70:	00000013          	nop
ffffffff8021ab74:	00000013          	nop
ffffffff8021ab78:	00000013          	nop
ffffffff8021ab7c:	00000013          	nop
ffffffff8021ab80:	00000013          	nop
ffffffff8021ab84:	00000013          	nop
ffffffff8021ab88:	00000013          	nop
ffffffff8021ab8c:	00000013          	nop
ffffffff8021ab90:	00000013          	nop
ffffffff8021ab94:	00000013          	nop
ffffffff8021ab98:	00000013          	nop
ffffffff8021ab9c:	00000013          	nop
ffffffff8021aba0:	00000013          	nop
ffffffff8021aba4:	00000013          	nop
ffffffff8021aba8:	00000013          	nop
ffffffff8021abac:	00000013          	nop
ffffffff8021abb0:	00000013          	nop
ffffffff8021abb4:	00000013          	nop
ffffffff8021abb8:	00000013          	nop
ffffffff8021abbc:	00000013          	nop
ffffffff8021abc0:	00000013          	nop
ffffffff8021abc4:	00000013          	nop
ffffffff8021abc8:	00000013          	nop
ffffffff8021abcc:	00000013          	nop
ffffffff8021abd0:	00000013          	nop
ffffffff8021abd4:	00000013          	nop
ffffffff8021abd8:	00000013          	nop
ffffffff8021abdc:	00000013          	nop
ffffffff8021abe0:	00000013          	nop
ffffffff8021abe4:	00000013          	nop
ffffffff8021abe8:	00000013          	nop
ffffffff8021abec:	00000013          	nop
ffffffff8021abf0:	00000013          	nop
ffffffff8021abf4:	00000013          	nop
ffffffff8021abf8:	00000013          	nop
ffffffff8021abfc:	00000013          	nop
ffffffff8021ac00:	00000013          	nop
ffffffff8021ac04:	00000013          	nop
ffffffff8021ac08:	00000013          	nop
ffffffff8021ac0c:	00000013          	nop
ffffffff8021ac10:	00000013          	nop
ffffffff8021ac14:	00000013          	nop
ffffffff8021ac18:	00000013          	nop
ffffffff8021ac1c:	00000013          	nop
ffffffff8021ac20:	00000013          	nop
ffffffff8021ac24:	00000013          	nop
ffffffff8021ac28:	00000013          	nop
ffffffff8021ac2c:	00000013          	nop
ffffffff8021ac30:	00000013          	nop
ffffffff8021ac34:	00000013          	nop
ffffffff8021ac38:	00000013          	nop
ffffffff8021ac3c:	00000013          	nop
ffffffff8021ac40:	00000013          	nop
ffffffff8021ac44:	00000013          	nop
ffffffff8021ac48:	00000013          	nop
ffffffff8021ac4c:	00000013          	nop
ffffffff8021ac50:	00000013          	nop
ffffffff8021ac54:	00000013          	nop
ffffffff8021ac58:	00000013          	nop
ffffffff8021ac5c:	00000013          	nop
ffffffff8021ac60:	00000013          	nop
ffffffff8021ac64:	00000013          	nop
ffffffff8021ac68:	00000013          	nop
ffffffff8021ac6c:	00000013          	nop
ffffffff8021ac70:	00000013          	nop
ffffffff8021ac74:	00000013          	nop
ffffffff8021ac78:	00000013          	nop
ffffffff8021ac7c:	00000013          	nop
ffffffff8021ac80:	00000013          	nop
ffffffff8021ac84:	00000013          	nop
ffffffff8021ac88:	00000013          	nop
ffffffff8021ac8c:	00000013          	nop
ffffffff8021ac90:	00000013          	nop
ffffffff8021ac94:	00000013          	nop
ffffffff8021ac98:	00000013          	nop
ffffffff8021ac9c:	00000013          	nop
ffffffff8021aca0:	00000013          	nop
ffffffff8021aca4:	00000013          	nop
ffffffff8021aca8:	00000013          	nop
ffffffff8021acac:	00000013          	nop
ffffffff8021acb0:	00000013          	nop
ffffffff8021acb4:	00000013          	nop
ffffffff8021acb8:	00000013          	nop
ffffffff8021acbc:	00000013          	nop
ffffffff8021acc0:	00000013          	nop
ffffffff8021acc4:	00000013          	nop
ffffffff8021acc8:	00000013          	nop
ffffffff8021accc:	00000013          	nop
ffffffff8021acd0:	00000013          	nop
ffffffff8021acd4:	00000013          	nop
ffffffff8021acd8:	00000013          	nop
ffffffff8021acdc:	00000013          	nop
ffffffff8021ace0:	00000013          	nop
ffffffff8021ace4:	00000013          	nop
ffffffff8021ace8:	00000013          	nop
ffffffff8021acec:	00000013          	nop
ffffffff8021acf0:	00000013          	nop
ffffffff8021acf4:	00000013          	nop
ffffffff8021acf8:	00000013          	nop
ffffffff8021acfc:	00000013          	nop
ffffffff8021ad00:	00000013          	nop
ffffffff8021ad04:	00000013          	nop
ffffffff8021ad08:	00000013          	nop
ffffffff8021ad0c:	00000013          	nop
ffffffff8021ad10:	00000013          	nop
ffffffff8021ad14:	00000013          	nop
ffffffff8021ad18:	00000013          	nop
ffffffff8021ad1c:	00000013          	nop
ffffffff8021ad20:	00000013          	nop
ffffffff8021ad24:	00000013          	nop
ffffffff8021ad28:	00000013          	nop
ffffffff8021ad2c:	00000013          	nop
ffffffff8021ad30:	00000013          	nop
ffffffff8021ad34:	00000013          	nop
ffffffff8021ad38:	00000013          	nop
ffffffff8021ad3c:	00000013          	nop
ffffffff8021ad40:	00000013          	nop
ffffffff8021ad44:	00000013          	nop
ffffffff8021ad48:	00000013          	nop
ffffffff8021ad4c:	00000013          	nop
ffffffff8021ad50:	00000013          	nop
ffffffff8021ad54:	00000013          	nop
ffffffff8021ad58:	00000013          	nop
ffffffff8021ad5c:	00000013          	nop
ffffffff8021ad60:	00000013          	nop
ffffffff8021ad64:	00000013          	nop
ffffffff8021ad68:	00000013          	nop
ffffffff8021ad6c:	00000013          	nop
ffffffff8021ad70:	00000013          	nop
ffffffff8021ad74:	00000013          	nop
ffffffff8021ad78:	00000013          	nop
ffffffff8021ad7c:	00000013          	nop
ffffffff8021ad80:	00000013          	nop
ffffffff8021ad84:	00000013          	nop
ffffffff8021ad88:	00000013          	nop
ffffffff8021ad8c:	00000013          	nop
ffffffff8021ad90:	00000013          	nop
ffffffff8021ad94:	00000013          	nop
ffffffff8021ad98:	00000013          	nop
ffffffff8021ad9c:	00000013          	nop
ffffffff8021ada0:	00000013          	nop
ffffffff8021ada4:	00000013          	nop
ffffffff8021ada8:	00000013          	nop
ffffffff8021adac:	00000013          	nop
ffffffff8021adb0:	00000013          	nop
ffffffff8021adb4:	00000013          	nop
ffffffff8021adb8:	00000013          	nop
ffffffff8021adbc:	00000013          	nop
ffffffff8021adc0:	00000013          	nop
ffffffff8021adc4:	00000013          	nop
ffffffff8021adc8:	00000013          	nop
ffffffff8021adcc:	00000013          	nop
ffffffff8021add0:	00000013          	nop
ffffffff8021add4:	00000013          	nop
ffffffff8021add8:	00000013          	nop
ffffffff8021addc:	00000013          	nop
ffffffff8021ade0:	00000013          	nop
ffffffff8021ade4:	00000013          	nop
ffffffff8021ade8:	00000013          	nop
ffffffff8021adec:	00000013          	nop
ffffffff8021adf0:	00000013          	nop
ffffffff8021adf4:	00000013          	nop
ffffffff8021adf8:	00000013          	nop
ffffffff8021adfc:	00000013          	nop
ffffffff8021ae00:	00000013          	nop
ffffffff8021ae04:	00000013          	nop
ffffffff8021ae08:	00000013          	nop
ffffffff8021ae0c:	00000013          	nop
ffffffff8021ae10:	00000013          	nop
ffffffff8021ae14:	00000013          	nop
ffffffff8021ae18:	00000013          	nop
ffffffff8021ae1c:	00000013          	nop
ffffffff8021ae20:	00000013          	nop
ffffffff8021ae24:	00000013          	nop
ffffffff8021ae28:	00000013          	nop
ffffffff8021ae2c:	00000013          	nop
ffffffff8021ae30:	00000013          	nop
ffffffff8021ae34:	00000013          	nop
ffffffff8021ae38:	00000013          	nop
ffffffff8021ae3c:	00000013          	nop
ffffffff8021ae40:	00000013          	nop
ffffffff8021ae44:	00000013          	nop
ffffffff8021ae48:	00000013          	nop
ffffffff8021ae4c:	00000013          	nop
ffffffff8021ae50:	00000013          	nop
ffffffff8021ae54:	00000013          	nop
ffffffff8021ae58:	00000013          	nop
ffffffff8021ae5c:	00000013          	nop
ffffffff8021ae60:	00000013          	nop
ffffffff8021ae64:	00000013          	nop
ffffffff8021ae68:	00000013          	nop
ffffffff8021ae6c:	00000013          	nop
ffffffff8021ae70:	00000013          	nop
ffffffff8021ae74:	00000013          	nop
ffffffff8021ae78:	00000013          	nop
ffffffff8021ae7c:	00000013          	nop
ffffffff8021ae80:	00000013          	nop
ffffffff8021ae84:	00000013          	nop
ffffffff8021ae88:	00000013          	nop
ffffffff8021ae8c:	00000013          	nop
ffffffff8021ae90:	00000013          	nop
ffffffff8021ae94:	00000013          	nop
ffffffff8021ae98:	00000013          	nop
ffffffff8021ae9c:	00000013          	nop
ffffffff8021aea0:	00000013          	nop
ffffffff8021aea4:	00000013          	nop
ffffffff8021aea8:	00000013          	nop
ffffffff8021aeac:	00000013          	nop
ffffffff8021aeb0:	00000013          	nop
ffffffff8021aeb4:	00000013          	nop
ffffffff8021aeb8:	00000013          	nop
ffffffff8021aebc:	00000013          	nop
ffffffff8021aec0:	00000013          	nop
ffffffff8021aec4:	00000013          	nop
ffffffff8021aec8:	00000013          	nop
ffffffff8021aecc:	00000013          	nop
ffffffff8021aed0:	00000013          	nop
ffffffff8021aed4:	00000013          	nop
ffffffff8021aed8:	00000013          	nop
ffffffff8021aedc:	00000013          	nop
ffffffff8021aee0:	00000013          	nop
ffffffff8021aee4:	00000013          	nop
ffffffff8021aee8:	00000013          	nop
ffffffff8021aeec:	00000013          	nop
ffffffff8021aef0:	00000013          	nop
ffffffff8021aef4:	00000013          	nop
ffffffff8021aef8:	00000013          	nop
ffffffff8021aefc:	00000013          	nop
ffffffff8021af00:	00000013          	nop
ffffffff8021af04:	00000013          	nop
ffffffff8021af08:	00000013          	nop
ffffffff8021af0c:	00000013          	nop
ffffffff8021af10:	00000013          	nop
ffffffff8021af14:	00000013          	nop
ffffffff8021af18:	00000013          	nop
ffffffff8021af1c:	00000013          	nop
ffffffff8021af20:	00000013          	nop
ffffffff8021af24:	00000013          	nop
ffffffff8021af28:	00000013          	nop
ffffffff8021af2c:	00000013          	nop
ffffffff8021af30:	00000013          	nop
ffffffff8021af34:	00000013          	nop
ffffffff8021af38:	00000013          	nop
ffffffff8021af3c:	00000013          	nop
ffffffff8021af40:	00000013          	nop
ffffffff8021af44:	00000013          	nop
ffffffff8021af48:	00000013          	nop
ffffffff8021af4c:	00000013          	nop
ffffffff8021af50:	00000013          	nop
ffffffff8021af54:	00000013          	nop
ffffffff8021af58:	00000013          	nop
ffffffff8021af5c:	00000013          	nop
ffffffff8021af60:	00000013          	nop
ffffffff8021af64:	00000013          	nop
ffffffff8021af68:	00000013          	nop
ffffffff8021af6c:	00000013          	nop
ffffffff8021af70:	00000013          	nop
ffffffff8021af74:	00000013          	nop
ffffffff8021af78:	00000013          	nop
ffffffff8021af7c:	00000013          	nop
ffffffff8021af80:	00000013          	nop
ffffffff8021af84:	00000013          	nop
ffffffff8021af88:	00000013          	nop
ffffffff8021af8c:	00000013          	nop
ffffffff8021af90:	00000013          	nop
ffffffff8021af94:	00000013          	nop
ffffffff8021af98:	00000013          	nop
ffffffff8021af9c:	00000013          	nop
ffffffff8021afa0:	00000013          	nop
ffffffff8021afa4:	00000013          	nop
ffffffff8021afa8:	00000013          	nop
ffffffff8021afac:	00000013          	nop
ffffffff8021afb0:	00000013          	nop
ffffffff8021afb4:	00000013          	nop
ffffffff8021afb8:	00000013          	nop
ffffffff8021afbc:	00000013          	nop
ffffffff8021afc0:	00000013          	nop
ffffffff8021afc4:	00000013          	nop
ffffffff8021afc8:	00000013          	nop
ffffffff8021afcc:	00000013          	nop
ffffffff8021afd0:	00000013          	nop
ffffffff8021afd4:	00000013          	nop
ffffffff8021afd8:	00000013          	nop
ffffffff8021afdc:	00000013          	nop
ffffffff8021afe0:	00000013          	nop
ffffffff8021afe4:	00000013          	nop
ffffffff8021afe8:	00000013          	nop
ffffffff8021afec:	00000013          	nop
ffffffff8021aff0:	00000013          	nop
ffffffff8021aff4:	00000013          	nop
ffffffff8021aff8:	00000013          	nop
ffffffff8021affc:	00000013          	nop
ffffffff8021b000:	00000013          	nop
ffffffff8021b004:	00000013          	nop
ffffffff8021b008:	00000013          	nop
ffffffff8021b00c:	00000013          	nop
ffffffff8021b010:	00000013          	nop
ffffffff8021b014:	00000013          	nop
ffffffff8021b018:	00000013          	nop
ffffffff8021b01c:	00000013          	nop
ffffffff8021b020:	00000013          	nop
ffffffff8021b024:	00000013          	nop
ffffffff8021b028:	00000013          	nop
ffffffff8021b02c:	00000013          	nop
ffffffff8021b030:	00000013          	nop
ffffffff8021b034:	00000013          	nop
ffffffff8021b038:	00000013          	nop
ffffffff8021b03c:	00000013          	nop
ffffffff8021b040:	00000013          	nop
ffffffff8021b044:	00000013          	nop
ffffffff8021b048:	00000013          	nop
ffffffff8021b04c:	00000013          	nop
ffffffff8021b050:	00000013          	nop
ffffffff8021b054:	00000013          	nop
ffffffff8021b058:	00000013          	nop
ffffffff8021b05c:	00000013          	nop
ffffffff8021b060:	00000013          	nop
ffffffff8021b064:	00000013          	nop
ffffffff8021b068:	00000013          	nop
ffffffff8021b06c:	00000013          	nop
ffffffff8021b070:	00000013          	nop
ffffffff8021b074:	00000013          	nop
ffffffff8021b078:	00000013          	nop
ffffffff8021b07c:	00000013          	nop
ffffffff8021b080:	00000013          	nop
ffffffff8021b084:	00000013          	nop
ffffffff8021b088:	00000013          	nop
ffffffff8021b08c:	00000013          	nop
ffffffff8021b090:	00000013          	nop
ffffffff8021b094:	00000013          	nop
ffffffff8021b098:	00000013          	nop
ffffffff8021b09c:	00000013          	nop
ffffffff8021b0a0:	00000013          	nop
ffffffff8021b0a4:	00000013          	nop
ffffffff8021b0a8:	00000013          	nop
ffffffff8021b0ac:	00000013          	nop
ffffffff8021b0b0:	00000013          	nop
ffffffff8021b0b4:	00000013          	nop
ffffffff8021b0b8:	00000013          	nop
ffffffff8021b0bc:	00000013          	nop
ffffffff8021b0c0:	00000013          	nop
ffffffff8021b0c4:	00000013          	nop
ffffffff8021b0c8:	00000013          	nop
ffffffff8021b0cc:	00000013          	nop
ffffffff8021b0d0:	00000013          	nop
ffffffff8021b0d4:	00000013          	nop
ffffffff8021b0d8:	00000013          	nop
ffffffff8021b0dc:	00000013          	nop
ffffffff8021b0e0:	00000013          	nop
ffffffff8021b0e4:	00000013          	nop
ffffffff8021b0e8:	00000013          	nop
ffffffff8021b0ec:	00000013          	nop
ffffffff8021b0f0:	00000013          	nop
ffffffff8021b0f4:	00000013          	nop
ffffffff8021b0f8:	00000013          	nop
ffffffff8021b0fc:	00000013          	nop
ffffffff8021b100:	00000013          	nop
ffffffff8021b104:	00000013          	nop
ffffffff8021b108:	00000013          	nop
ffffffff8021b10c:	00000013          	nop
ffffffff8021b110:	00000013          	nop
ffffffff8021b114:	00000013          	nop
ffffffff8021b118:	00000013          	nop
ffffffff8021b11c:	00000013          	nop
ffffffff8021b120:	00000013          	nop
ffffffff8021b124:	00000013          	nop
ffffffff8021b128:	00000013          	nop
ffffffff8021b12c:	00000013          	nop
ffffffff8021b130:	00000013          	nop
ffffffff8021b134:	00000013          	nop
ffffffff8021b138:	00000013          	nop
ffffffff8021b13c:	00000013          	nop
ffffffff8021b140:	00000013          	nop
ffffffff8021b144:	00000013          	nop
ffffffff8021b148:	00000013          	nop
ffffffff8021b14c:	00000013          	nop
ffffffff8021b150:	00000013          	nop
ffffffff8021b154:	00000013          	nop
ffffffff8021b158:	00000013          	nop
ffffffff8021b15c:	00000013          	nop
ffffffff8021b160:	00000013          	nop
ffffffff8021b164:	00000013          	nop
ffffffff8021b168:	00000013          	nop
ffffffff8021b16c:	00000013          	nop
ffffffff8021b170:	00000013          	nop
ffffffff8021b174:	00000013          	nop
ffffffff8021b178:	00000013          	nop
ffffffff8021b17c:	00000013          	nop
ffffffff8021b180:	00000013          	nop
ffffffff8021b184:	00000013          	nop
ffffffff8021b188:	00000013          	nop
ffffffff8021b18c:	00000013          	nop
ffffffff8021b190:	00000013          	nop
ffffffff8021b194:	00000013          	nop
ffffffff8021b198:	00000013          	nop
ffffffff8021b19c:	00000013          	nop
ffffffff8021b1a0:	00000013          	nop
ffffffff8021b1a4:	00000013          	nop
ffffffff8021b1a8:	00000013          	nop
ffffffff8021b1ac:	00000013          	nop
ffffffff8021b1b0:	00000013          	nop
ffffffff8021b1b4:	00000013          	nop
ffffffff8021b1b8:	00000013          	nop
ffffffff8021b1bc:	00000013          	nop
ffffffff8021b1c0:	00000013          	nop
ffffffff8021b1c4:	00000013          	nop
ffffffff8021b1c8:	00000013          	nop
ffffffff8021b1cc:	00000013          	nop
ffffffff8021b1d0:	00000013          	nop
ffffffff8021b1d4:	00000013          	nop
ffffffff8021b1d8:	00000013          	nop
ffffffff8021b1dc:	00000013          	nop
ffffffff8021b1e0:	00000013          	nop
ffffffff8021b1e4:	00000013          	nop
ffffffff8021b1e8:	00000013          	nop
ffffffff8021b1ec:	00000013          	nop
ffffffff8021b1f0:	00000013          	nop
ffffffff8021b1f4:	00000013          	nop
ffffffff8021b1f8:	00000013          	nop
ffffffff8021b1fc:	00000013          	nop
ffffffff8021b200:	00000013          	nop
ffffffff8021b204:	00000013          	nop
ffffffff8021b208:	00000013          	nop
ffffffff8021b20c:	00000013          	nop
ffffffff8021b210:	00000013          	nop
ffffffff8021b214:	00000013          	nop
ffffffff8021b218:	00000013          	nop
ffffffff8021b21c:	00000013          	nop
ffffffff8021b220:	00000013          	nop
ffffffff8021b224:	00000013          	nop
ffffffff8021b228:	00000013          	nop
ffffffff8021b22c:	00000013          	nop
ffffffff8021b230:	00000013          	nop
ffffffff8021b234:	00000013          	nop
ffffffff8021b238:	00000013          	nop
ffffffff8021b23c:	00000013          	nop
ffffffff8021b240:	00000013          	nop
ffffffff8021b244:	00000013          	nop
ffffffff8021b248:	00000013          	nop
ffffffff8021b24c:	00000013          	nop
ffffffff8021b250:	00000013          	nop
ffffffff8021b254:	00000013          	nop
ffffffff8021b258:	00000013          	nop
ffffffff8021b25c:	00000013          	nop
ffffffff8021b260:	00000013          	nop
ffffffff8021b264:	00000013          	nop
ffffffff8021b268:	00000013          	nop
ffffffff8021b26c:	00000013          	nop
ffffffff8021b270:	00000013          	nop
ffffffff8021b274:	00000013          	nop
ffffffff8021b278:	00000013          	nop
ffffffff8021b27c:	00000013          	nop
ffffffff8021b280:	00000013          	nop
ffffffff8021b284:	00000013          	nop
ffffffff8021b288:	00000013          	nop
ffffffff8021b28c:	00000013          	nop
ffffffff8021b290:	00000013          	nop
ffffffff8021b294:	00000013          	nop
ffffffff8021b298:	00000013          	nop
ffffffff8021b29c:	00000013          	nop
ffffffff8021b2a0:	00000013          	nop
ffffffff8021b2a4:	00000013          	nop
ffffffff8021b2a8:	00000013          	nop
ffffffff8021b2ac:	00000013          	nop
ffffffff8021b2b0:	00000013          	nop
ffffffff8021b2b4:	00000013          	nop
ffffffff8021b2b8:	00000013          	nop
ffffffff8021b2bc:	00000013          	nop
ffffffff8021b2c0:	00000013          	nop
ffffffff8021b2c4:	00000013          	nop
ffffffff8021b2c8:	00000013          	nop
ffffffff8021b2cc:	00000013          	nop
ffffffff8021b2d0:	00000013          	nop
ffffffff8021b2d4:	00000013          	nop
ffffffff8021b2d8:	00000013          	nop
ffffffff8021b2dc:	00000013          	nop
ffffffff8021b2e0:	00000013          	nop
ffffffff8021b2e4:	00000013          	nop
ffffffff8021b2e8:	00000013          	nop
ffffffff8021b2ec:	00000013          	nop
ffffffff8021b2f0:	00000013          	nop
ffffffff8021b2f4:	00000013          	nop
ffffffff8021b2f8:	00000013          	nop
ffffffff8021b2fc:	00000013          	nop
ffffffff8021b300:	00000013          	nop
ffffffff8021b304:	00000013          	nop
ffffffff8021b308:	00000013          	nop
ffffffff8021b30c:	00000013          	nop
ffffffff8021b310:	00000013          	nop
ffffffff8021b314:	00000013          	nop
ffffffff8021b318:	00000013          	nop
ffffffff8021b31c:	00000013          	nop
ffffffff8021b320:	00000013          	nop
ffffffff8021b324:	00000013          	nop
ffffffff8021b328:	00000013          	nop
ffffffff8021b32c:	00000013          	nop
ffffffff8021b330:	00000013          	nop
ffffffff8021b334:	00000013          	nop
ffffffff8021b338:	00000013          	nop
ffffffff8021b33c:	00000013          	nop
ffffffff8021b340:	00000013          	nop
ffffffff8021b344:	00000013          	nop
ffffffff8021b348:	00000013          	nop
ffffffff8021b34c:	00000013          	nop
ffffffff8021b350:	00000013          	nop
ffffffff8021b354:	00000013          	nop
ffffffff8021b358:	00000013          	nop
ffffffff8021b35c:	00000013          	nop
ffffffff8021b360:	00000013          	nop
ffffffff8021b364:	00000013          	nop
ffffffff8021b368:	00000013          	nop
ffffffff8021b36c:	00000013          	nop
ffffffff8021b370:	00000013          	nop
ffffffff8021b374:	00000013          	nop
ffffffff8021b378:	00000013          	nop
ffffffff8021b37c:	00000013          	nop
ffffffff8021b380:	00000013          	nop
ffffffff8021b384:	00000013          	nop
ffffffff8021b388:	00000013          	nop
ffffffff8021b38c:	00000013          	nop
ffffffff8021b390:	00000013          	nop
ffffffff8021b394:	00000013          	nop
ffffffff8021b398:	00000013          	nop
ffffffff8021b39c:	00000013          	nop
ffffffff8021b3a0:	00000013          	nop
ffffffff8021b3a4:	00000013          	nop
ffffffff8021b3a8:	00000013          	nop
ffffffff8021b3ac:	00000013          	nop
ffffffff8021b3b0:	00000013          	nop
ffffffff8021b3b4:	00000013          	nop
ffffffff8021b3b8:	00000013          	nop
ffffffff8021b3bc:	00000013          	nop
ffffffff8021b3c0:	00000013          	nop
ffffffff8021b3c4:	00000013          	nop
ffffffff8021b3c8:	00000013          	nop
ffffffff8021b3cc:	00000013          	nop
ffffffff8021b3d0:	00000013          	nop
ffffffff8021b3d4:	00000013          	nop
ffffffff8021b3d8:	00000013          	nop
ffffffff8021b3dc:	00000013          	nop
ffffffff8021b3e0:	00000013          	nop
ffffffff8021b3e4:	00000013          	nop
ffffffff8021b3e8:	00000013          	nop
ffffffff8021b3ec:	00000013          	nop
ffffffff8021b3f0:	00000013          	nop
ffffffff8021b3f4:	00000013          	nop
ffffffff8021b3f8:	00000013          	nop
ffffffff8021b3fc:	00000013          	nop
ffffffff8021b400:	00000013          	nop
ffffffff8021b404:	00000013          	nop
ffffffff8021b408:	00000013          	nop
ffffffff8021b40c:	00000013          	nop
ffffffff8021b410:	00000013          	nop
ffffffff8021b414:	00000013          	nop
ffffffff8021b418:	00000013          	nop
ffffffff8021b41c:	00000013          	nop
ffffffff8021b420:	00000013          	nop
ffffffff8021b424:	00000013          	nop
ffffffff8021b428:	00000013          	nop
ffffffff8021b42c:	00000013          	nop
ffffffff8021b430:	00000013          	nop
ffffffff8021b434:	00000013          	nop
ffffffff8021b438:	00000013          	nop
ffffffff8021b43c:	00000013          	nop
ffffffff8021b440:	00000013          	nop
ffffffff8021b444:	00000013          	nop
ffffffff8021b448:	00000013          	nop
ffffffff8021b44c:	00000013          	nop
ffffffff8021b450:	00000013          	nop
ffffffff8021b454:	00000013          	nop
ffffffff8021b458:	00000013          	nop
ffffffff8021b45c:	00000013          	nop
ffffffff8021b460:	00000013          	nop
ffffffff8021b464:	00000013          	nop
ffffffff8021b468:	00000013          	nop
ffffffff8021b46c:	00000013          	nop
ffffffff8021b470:	00000013          	nop
ffffffff8021b474:	00000013          	nop
ffffffff8021b478:	00000013          	nop
ffffffff8021b47c:	00000013          	nop
ffffffff8021b480:	00000013          	nop
ffffffff8021b484:	00000013          	nop
ffffffff8021b488:	00000013          	nop
ffffffff8021b48c:	00000013          	nop
ffffffff8021b490:	00000013          	nop
ffffffff8021b494:	00000013          	nop
ffffffff8021b498:	00000013          	nop
ffffffff8021b49c:	00000013          	nop
ffffffff8021b4a0:	00000013          	nop
ffffffff8021b4a4:	00000013          	nop
ffffffff8021b4a8:	00000013          	nop
ffffffff8021b4ac:	00000013          	nop
ffffffff8021b4b0:	00000013          	nop
ffffffff8021b4b4:	00000013          	nop
ffffffff8021b4b8:	00000013          	nop
ffffffff8021b4bc:	00000013          	nop
ffffffff8021b4c0:	00000013          	nop
ffffffff8021b4c4:	00000013          	nop
ffffffff8021b4c8:	00000013          	nop
ffffffff8021b4cc:	00000013          	nop
ffffffff8021b4d0:	00000013          	nop
ffffffff8021b4d4:	00000013          	nop
ffffffff8021b4d8:	00000013          	nop
ffffffff8021b4dc:	00000013          	nop
ffffffff8021b4e0:	00000013          	nop
ffffffff8021b4e4:	00000013          	nop
ffffffff8021b4e8:	00000013          	nop
ffffffff8021b4ec:	00000013          	nop
ffffffff8021b4f0:	00000013          	nop
ffffffff8021b4f4:	00000013          	nop
ffffffff8021b4f8:	00000013          	nop
ffffffff8021b4fc:	00000013          	nop
ffffffff8021b500:	00000013          	nop
ffffffff8021b504:	00000013          	nop
ffffffff8021b508:	00000013          	nop
ffffffff8021b50c:	00000013          	nop
ffffffff8021b510:	00000013          	nop
ffffffff8021b514:	00000013          	nop
ffffffff8021b518:	00000013          	nop
ffffffff8021b51c:	00000013          	nop
ffffffff8021b520:	00000013          	nop
ffffffff8021b524:	00000013          	nop
ffffffff8021b528:	00000013          	nop
ffffffff8021b52c:	00000013          	nop
ffffffff8021b530:	00000013          	nop
ffffffff8021b534:	00000013          	nop
ffffffff8021b538:	00000013          	nop
ffffffff8021b53c:	00000013          	nop
ffffffff8021b540:	00000013          	nop
ffffffff8021b544:	00000013          	nop
ffffffff8021b548:	00000013          	nop
ffffffff8021b54c:	00000013          	nop
ffffffff8021b550:	00000013          	nop
ffffffff8021b554:	00000013          	nop
ffffffff8021b558:	00000013          	nop
ffffffff8021b55c:	00000013          	nop
ffffffff8021b560:	00000013          	nop
ffffffff8021b564:	00000013          	nop
ffffffff8021b568:	00000013          	nop
ffffffff8021b56c:	00000013          	nop
ffffffff8021b570:	00000013          	nop
ffffffff8021b574:	00000013          	nop
ffffffff8021b578:	00000013          	nop
ffffffff8021b57c:	00000013          	nop
ffffffff8021b580:	00000013          	nop
ffffffff8021b584:	00000013          	nop
ffffffff8021b588:	00000013          	nop
ffffffff8021b58c:	00000013          	nop
ffffffff8021b590:	00000013          	nop
ffffffff8021b594:	00000013          	nop
ffffffff8021b598:	00000013          	nop
ffffffff8021b59c:	00000013          	nop
ffffffff8021b5a0:	00000013          	nop
ffffffff8021b5a4:	00000013          	nop
ffffffff8021b5a8:	00000013          	nop
ffffffff8021b5ac:	00000013          	nop
ffffffff8021b5b0:	00000013          	nop
ffffffff8021b5b4:	00000013          	nop
ffffffff8021b5b8:	00000013          	nop
ffffffff8021b5bc:	00000013          	nop
ffffffff8021b5c0:	00000013          	nop
ffffffff8021b5c4:	00000013          	nop
ffffffff8021b5c8:	00000013          	nop
ffffffff8021b5cc:	00000013          	nop
ffffffff8021b5d0:	00000013          	nop
ffffffff8021b5d4:	00000013          	nop
ffffffff8021b5d8:	00000013          	nop
ffffffff8021b5dc:	00000013          	nop
ffffffff8021b5e0:	00000013          	nop
ffffffff8021b5e4:	00000013          	nop
ffffffff8021b5e8:	00000013          	nop
ffffffff8021b5ec:	00000013          	nop
ffffffff8021b5f0:	00000013          	nop
ffffffff8021b5f4:	00000013          	nop
ffffffff8021b5f8:	00000013          	nop
ffffffff8021b5fc:	00000013          	nop
ffffffff8021b600:	00000013          	nop
ffffffff8021b604:	00000013          	nop
ffffffff8021b608:	00000013          	nop
ffffffff8021b60c:	00000013          	nop
ffffffff8021b610:	00000013          	nop
ffffffff8021b614:	00000013          	nop
ffffffff8021b618:	00000013          	nop
ffffffff8021b61c:	00000013          	nop
ffffffff8021b620:	00000013          	nop
ffffffff8021b624:	00000013          	nop
ffffffff8021b628:	00000013          	nop
ffffffff8021b62c:	00000013          	nop
ffffffff8021b630:	00000013          	nop
ffffffff8021b634:	00000013          	nop
ffffffff8021b638:	00000013          	nop
ffffffff8021b63c:	00000013          	nop
ffffffff8021b640:	00000013          	nop
ffffffff8021b644:	00000013          	nop
ffffffff8021b648:	00000013          	nop
ffffffff8021b64c:	00000013          	nop
ffffffff8021b650:	00000013          	nop
ffffffff8021b654:	00000013          	nop
ffffffff8021b658:	00000013          	nop
ffffffff8021b65c:	00000013          	nop
ffffffff8021b660:	00000013          	nop
ffffffff8021b664:	00000013          	nop
ffffffff8021b668:	00000013          	nop
ffffffff8021b66c:	00000013          	nop
ffffffff8021b670:	00000013          	nop
ffffffff8021b674:	00000013          	nop
ffffffff8021b678:	00000013          	nop
ffffffff8021b67c:	00000013          	nop
ffffffff8021b680:	00000013          	nop
ffffffff8021b684:	00000013          	nop
ffffffff8021b688:	00000013          	nop
ffffffff8021b68c:	00000013          	nop
ffffffff8021b690:	00000013          	nop
ffffffff8021b694:	00000013          	nop
ffffffff8021b698:	00000013          	nop
ffffffff8021b69c:	00000013          	nop
ffffffff8021b6a0:	00000013          	nop
ffffffff8021b6a4:	00000013          	nop
ffffffff8021b6a8:	00000013          	nop
ffffffff8021b6ac:	00000013          	nop
ffffffff8021b6b0:	00000013          	nop
ffffffff8021b6b4:	00000013          	nop
ffffffff8021b6b8:	00000013          	nop
ffffffff8021b6bc:	00000013          	nop
ffffffff8021b6c0:	00000013          	nop
ffffffff8021b6c4:	00000013          	nop
ffffffff8021b6c8:	00000013          	nop
ffffffff8021b6cc:	00000013          	nop
ffffffff8021b6d0:	00000013          	nop
ffffffff8021b6d4:	00000013          	nop
ffffffff8021b6d8:	00000013          	nop
ffffffff8021b6dc:	00000013          	nop
ffffffff8021b6e0:	00000013          	nop
ffffffff8021b6e4:	00000013          	nop
ffffffff8021b6e8:	00000013          	nop
ffffffff8021b6ec:	00000013          	nop
ffffffff8021b6f0:	00000013          	nop
ffffffff8021b6f4:	00000013          	nop
ffffffff8021b6f8:	00000013          	nop
ffffffff8021b6fc:	00000013          	nop
ffffffff8021b700:	00000013          	nop
ffffffff8021b704:	00000013          	nop
ffffffff8021b708:	00000013          	nop
ffffffff8021b70c:	00000013          	nop
ffffffff8021b710:	00000013          	nop
ffffffff8021b714:	00000013          	nop
ffffffff8021b718:	00000013          	nop
ffffffff8021b71c:	00000013          	nop
ffffffff8021b720:	00000013          	nop
ffffffff8021b724:	00000013          	nop
ffffffff8021b728:	00000013          	nop
ffffffff8021b72c:	00000013          	nop
ffffffff8021b730:	00000013          	nop
ffffffff8021b734:	00000013          	nop
ffffffff8021b738:	00000013          	nop
ffffffff8021b73c:	00000013          	nop
ffffffff8021b740:	00000013          	nop
ffffffff8021b744:	00000013          	nop
ffffffff8021b748:	00000013          	nop
ffffffff8021b74c:	00000013          	nop
ffffffff8021b750:	00000013          	nop
ffffffff8021b754:	00000013          	nop
ffffffff8021b758:	00000013          	nop
ffffffff8021b75c:	00000013          	nop
ffffffff8021b760:	00000013          	nop
ffffffff8021b764:	00000013          	nop
ffffffff8021b768:	00000013          	nop
ffffffff8021b76c:	00000013          	nop
ffffffff8021b770:	00000013          	nop
ffffffff8021b774:	00000013          	nop
ffffffff8021b778:	00000013          	nop
ffffffff8021b77c:	00000013          	nop
ffffffff8021b780:	00000013          	nop
ffffffff8021b784:	00000013          	nop
ffffffff8021b788:	00000013          	nop
ffffffff8021b78c:	00000013          	nop
ffffffff8021b790:	00000013          	nop
ffffffff8021b794:	00000013          	nop
ffffffff8021b798:	00000013          	nop
ffffffff8021b79c:	00000013          	nop
ffffffff8021b7a0:	00000013          	nop
ffffffff8021b7a4:	00000013          	nop
ffffffff8021b7a8:	00000013          	nop
ffffffff8021b7ac:	00000013          	nop
ffffffff8021b7b0:	00000013          	nop
ffffffff8021b7b4:	00000013          	nop
ffffffff8021b7b8:	00000013          	nop
ffffffff8021b7bc:	00000013          	nop
ffffffff8021b7c0:	00000013          	nop
ffffffff8021b7c4:	00000013          	nop
ffffffff8021b7c8:	00000013          	nop
ffffffff8021b7cc:	00000013          	nop
ffffffff8021b7d0:	00000013          	nop
ffffffff8021b7d4:	00000013          	nop
ffffffff8021b7d8:	00000013          	nop
ffffffff8021b7dc:	00000013          	nop
ffffffff8021b7e0:	00000013          	nop
ffffffff8021b7e4:	00000013          	nop
ffffffff8021b7e8:	00000013          	nop
ffffffff8021b7ec:	00000013          	nop
ffffffff8021b7f0:	00000013          	nop
ffffffff8021b7f4:	00000013          	nop
ffffffff8021b7f8:	00000013          	nop
ffffffff8021b7fc:	00000013          	nop
ffffffff8021b800:	00000013          	nop
ffffffff8021b804:	00000013          	nop
ffffffff8021b808:	00000013          	nop
ffffffff8021b80c:	00000013          	nop
ffffffff8021b810:	00000013          	nop
ffffffff8021b814:	00000013          	nop
ffffffff8021b818:	00000013          	nop
ffffffff8021b81c:	00000013          	nop
ffffffff8021b820:	00000013          	nop
ffffffff8021b824:	00000013          	nop
ffffffff8021b828:	00000013          	nop
ffffffff8021b82c:	00000013          	nop
ffffffff8021b830:	00000013          	nop
ffffffff8021b834:	00000013          	nop
ffffffff8021b838:	00000013          	nop
ffffffff8021b83c:	00000013          	nop
ffffffff8021b840:	00000013          	nop
ffffffff8021b844:	00000013          	nop
ffffffff8021b848:	00000013          	nop
ffffffff8021b84c:	00000013          	nop
ffffffff8021b850:	00000013          	nop
ffffffff8021b854:	00000013          	nop
ffffffff8021b858:	00000013          	nop
ffffffff8021b85c:	00000013          	nop
ffffffff8021b860:	00000013          	nop
ffffffff8021b864:	00000013          	nop
ffffffff8021b868:	00000013          	nop
ffffffff8021b86c:	00000013          	nop
ffffffff8021b870:	00000013          	nop
ffffffff8021b874:	00000013          	nop
ffffffff8021b878:	00000013          	nop
ffffffff8021b87c:	00000013          	nop
ffffffff8021b880:	00000013          	nop
ffffffff8021b884:	00000013          	nop
ffffffff8021b888:	00000013          	nop
ffffffff8021b88c:	00000013          	nop
ffffffff8021b890:	00000013          	nop
ffffffff8021b894:	00000013          	nop
ffffffff8021b898:	00000013          	nop
ffffffff8021b89c:	00000013          	nop
ffffffff8021b8a0:	00000013          	nop
ffffffff8021b8a4:	00000013          	nop
ffffffff8021b8a8:	00000013          	nop
ffffffff8021b8ac:	00000013          	nop
ffffffff8021b8b0:	00000013          	nop
ffffffff8021b8b4:	00000013          	nop
ffffffff8021b8b8:	00000013          	nop
ffffffff8021b8bc:	00000013          	nop
ffffffff8021b8c0:	00000013          	nop
ffffffff8021b8c4:	00000013          	nop
ffffffff8021b8c8:	00000013          	nop
ffffffff8021b8cc:	00000013          	nop
ffffffff8021b8d0:	00000013          	nop
ffffffff8021b8d4:	00000013          	nop
ffffffff8021b8d8:	00000013          	nop
ffffffff8021b8dc:	00000013          	nop
ffffffff8021b8e0:	00000013          	nop
ffffffff8021b8e4:	00000013          	nop
ffffffff8021b8e8:	00000013          	nop
ffffffff8021b8ec:	00000013          	nop
ffffffff8021b8f0:	00000013          	nop
ffffffff8021b8f4:	00000013          	nop
ffffffff8021b8f8:	00000013          	nop
ffffffff8021b8fc:	00000013          	nop
ffffffff8021b900:	00000013          	nop
ffffffff8021b904:	00000013          	nop
ffffffff8021b908:	00000013          	nop
ffffffff8021b90c:	00000013          	nop
ffffffff8021b910:	00000013          	nop
ffffffff8021b914:	00000013          	nop
ffffffff8021b918:	00000013          	nop
ffffffff8021b91c:	00000013          	nop
ffffffff8021b920:	00000013          	nop
ffffffff8021b924:	00000013          	nop
ffffffff8021b928:	00000013          	nop
ffffffff8021b92c:	00000013          	nop
ffffffff8021b930:	00000013          	nop
ffffffff8021b934:	00000013          	nop
ffffffff8021b938:	00000013          	nop
ffffffff8021b93c:	00000013          	nop
ffffffff8021b940:	00000013          	nop
ffffffff8021b944:	00000013          	nop
ffffffff8021b948:	00000013          	nop
ffffffff8021b94c:	00000013          	nop
ffffffff8021b950:	00000013          	nop
ffffffff8021b954:	00000013          	nop
ffffffff8021b958:	00000013          	nop
ffffffff8021b95c:	00000013          	nop
ffffffff8021b960:	00000013          	nop
ffffffff8021b964:	00000013          	nop
ffffffff8021b968:	00000013          	nop
ffffffff8021b96c:	00000013          	nop
ffffffff8021b970:	00000013          	nop
ffffffff8021b974:	00000013          	nop
ffffffff8021b978:	00000013          	nop
ffffffff8021b97c:	00000013          	nop
ffffffff8021b980:	00000013          	nop
ffffffff8021b984:	00000013          	nop
ffffffff8021b988:	00000013          	nop
ffffffff8021b98c:	00000013          	nop
ffffffff8021b990:	00000013          	nop
ffffffff8021b994:	00000013          	nop
ffffffff8021b998:	00000013          	nop
ffffffff8021b99c:	00000013          	nop
ffffffff8021b9a0:	00000013          	nop
ffffffff8021b9a4:	00000013          	nop
ffffffff8021b9a8:	00000013          	nop
ffffffff8021b9ac:	00000013          	nop
ffffffff8021b9b0:	00000013          	nop
ffffffff8021b9b4:	00000013          	nop
ffffffff8021b9b8:	00000013          	nop
ffffffff8021b9bc:	00000013          	nop
ffffffff8021b9c0:	00000013          	nop
ffffffff8021b9c4:	00000013          	nop
ffffffff8021b9c8:	00000013          	nop
ffffffff8021b9cc:	00000013          	nop
ffffffff8021b9d0:	00000013          	nop
ffffffff8021b9d4:	00000013          	nop
ffffffff8021b9d8:	00000013          	nop
ffffffff8021b9dc:	00000013          	nop
ffffffff8021b9e0:	00000013          	nop
ffffffff8021b9e4:	00000013          	nop
ffffffff8021b9e8:	00000013          	nop
ffffffff8021b9ec:	00000013          	nop
ffffffff8021b9f0:	00000013          	nop
ffffffff8021b9f4:	00000013          	nop
ffffffff8021b9f8:	00000013          	nop
ffffffff8021b9fc:	00000013          	nop
ffffffff8021ba00:	00000013          	nop
ffffffff8021ba04:	00000013          	nop
ffffffff8021ba08:	00000013          	nop
ffffffff8021ba0c:	00000013          	nop
ffffffff8021ba10:	00000013          	nop
ffffffff8021ba14:	00000013          	nop
ffffffff8021ba18:	00000013          	nop
ffffffff8021ba1c:	00000013          	nop
ffffffff8021ba20:	00000013          	nop
ffffffff8021ba24:	00000013          	nop
ffffffff8021ba28:	00000013          	nop
ffffffff8021ba2c:	00000013          	nop
ffffffff8021ba30:	00000013          	nop
ffffffff8021ba34:	00000013          	nop
ffffffff8021ba38:	00000013          	nop
ffffffff8021ba3c:	00000013          	nop
ffffffff8021ba40:	00000013          	nop
ffffffff8021ba44:	00000013          	nop
ffffffff8021ba48:	00000013          	nop
ffffffff8021ba4c:	00000013          	nop
ffffffff8021ba50:	00000013          	nop
ffffffff8021ba54:	00000013          	nop
ffffffff8021ba58:	00000013          	nop
ffffffff8021ba5c:	00000013          	nop
ffffffff8021ba60:	00000013          	nop
ffffffff8021ba64:	00000013          	nop
ffffffff8021ba68:	00000013          	nop
ffffffff8021ba6c:	00000013          	nop
ffffffff8021ba70:	00000013          	nop
ffffffff8021ba74:	00000013          	nop
ffffffff8021ba78:	00000013          	nop
ffffffff8021ba7c:	00000013          	nop
ffffffff8021ba80:	00000013          	nop
ffffffff8021ba84:	00000013          	nop
ffffffff8021ba88:	00000013          	nop
ffffffff8021ba8c:	00000013          	nop
ffffffff8021ba90:	00000013          	nop
ffffffff8021ba94:	00000013          	nop
ffffffff8021ba98:	00000013          	nop
ffffffff8021ba9c:	00000013          	nop
ffffffff8021baa0:	00000013          	nop
ffffffff8021baa4:	00000013          	nop
ffffffff8021baa8:	00000013          	nop
ffffffff8021baac:	00000013          	nop
ffffffff8021bab0:	00000013          	nop
ffffffff8021bab4:	00000013          	nop
ffffffff8021bab8:	00000013          	nop
ffffffff8021babc:	00000013          	nop
ffffffff8021bac0:	00000013          	nop
ffffffff8021bac4:	00000013          	nop
ffffffff8021bac8:	00000013          	nop
ffffffff8021bacc:	00000013          	nop
ffffffff8021bad0:	00000013          	nop
ffffffff8021bad4:	00000013          	nop
ffffffff8021bad8:	00000013          	nop
ffffffff8021badc:	00000013          	nop
ffffffff8021bae0:	00000013          	nop
ffffffff8021bae4:	00000013          	nop
ffffffff8021bae8:	00000013          	nop
ffffffff8021baec:	00000013          	nop
ffffffff8021baf0:	00000013          	nop
ffffffff8021baf4:	00000013          	nop
ffffffff8021baf8:	00000013          	nop
ffffffff8021bafc:	00000013          	nop
ffffffff8021bb00:	00000013          	nop
ffffffff8021bb04:	00000013          	nop
ffffffff8021bb08:	00000013          	nop
ffffffff8021bb0c:	00000013          	nop
ffffffff8021bb10:	00000013          	nop
ffffffff8021bb14:	00000013          	nop
ffffffff8021bb18:	00000013          	nop
ffffffff8021bb1c:	00000013          	nop
ffffffff8021bb20:	00000013          	nop
ffffffff8021bb24:	00000013          	nop
ffffffff8021bb28:	00000013          	nop
ffffffff8021bb2c:	00000013          	nop
ffffffff8021bb30:	00000013          	nop
ffffffff8021bb34:	00000013          	nop
ffffffff8021bb38:	00000013          	nop
ffffffff8021bb3c:	00000013          	nop
ffffffff8021bb40:	00000013          	nop
ffffffff8021bb44:	00000013          	nop
ffffffff8021bb48:	00000013          	nop
ffffffff8021bb4c:	00000013          	nop
ffffffff8021bb50:	00000013          	nop
ffffffff8021bb54:	00000013          	nop
ffffffff8021bb58:	00000013          	nop
ffffffff8021bb5c:	00000013          	nop
ffffffff8021bb60:	00000013          	nop
ffffffff8021bb64:	00000013          	nop
ffffffff8021bb68:	00000013          	nop
ffffffff8021bb6c:	00000013          	nop
ffffffff8021bb70:	00000013          	nop
ffffffff8021bb74:	00000013          	nop
ffffffff8021bb78:	00000013          	nop
ffffffff8021bb7c:	00000013          	nop
ffffffff8021bb80:	00000013          	nop
ffffffff8021bb84:	00000013          	nop
ffffffff8021bb88:	00000013          	nop
ffffffff8021bb8c:	00000013          	nop
ffffffff8021bb90:	00000013          	nop
ffffffff8021bb94:	00000013          	nop
ffffffff8021bb98:	00000013          	nop
ffffffff8021bb9c:	00000013          	nop
ffffffff8021bba0:	00000013          	nop
ffffffff8021bba4:	00000013          	nop
ffffffff8021bba8:	00000013          	nop
ffffffff8021bbac:	00000013          	nop
ffffffff8021bbb0:	00000013          	nop
ffffffff8021bbb4:	00000013          	nop
ffffffff8021bbb8:	00000013          	nop
ffffffff8021bbbc:	00000013          	nop
ffffffff8021bbc0:	00000013          	nop
ffffffff8021bbc4:	00000013          	nop
ffffffff8021bbc8:	00000013          	nop
ffffffff8021bbcc:	00000013          	nop
ffffffff8021bbd0:	00000013          	nop
ffffffff8021bbd4:	00000013          	nop
ffffffff8021bbd8:	00000013          	nop
ffffffff8021bbdc:	00000013          	nop
ffffffff8021bbe0:	00000013          	nop
ffffffff8021bbe4:	00000013          	nop
ffffffff8021bbe8:	00000013          	nop
ffffffff8021bbec:	00000013          	nop
ffffffff8021bbf0:	00000013          	nop
ffffffff8021bbf4:	00000013          	nop
ffffffff8021bbf8:	00000013          	nop
ffffffff8021bbfc:	00000013          	nop
ffffffff8021bc00:	00000013          	nop
ffffffff8021bc04:	00000013          	nop
ffffffff8021bc08:	00000013          	nop
ffffffff8021bc0c:	00000013          	nop
ffffffff8021bc10:	00000013          	nop
ffffffff8021bc14:	00000013          	nop
ffffffff8021bc18:	00000013          	nop
ffffffff8021bc1c:	00000013          	nop
ffffffff8021bc20:	00000013          	nop
ffffffff8021bc24:	00000013          	nop
ffffffff8021bc28:	00000013          	nop
ffffffff8021bc2c:	00000013          	nop
ffffffff8021bc30:	00000013          	nop
ffffffff8021bc34:	00000013          	nop
ffffffff8021bc38:	00000013          	nop
ffffffff8021bc3c:	00000013          	nop
ffffffff8021bc40:	00000013          	nop
ffffffff8021bc44:	00000013          	nop
ffffffff8021bc48:	00000013          	nop
ffffffff8021bc4c:	00000013          	nop
ffffffff8021bc50:	00000013          	nop
ffffffff8021bc54:	00000013          	nop
ffffffff8021bc58:	00000013          	nop
ffffffff8021bc5c:	00000013          	nop
ffffffff8021bc60:	00000013          	nop
ffffffff8021bc64:	00000013          	nop
ffffffff8021bc68:	00000013          	nop
ffffffff8021bc6c:	00000013          	nop
ffffffff8021bc70:	00000013          	nop
ffffffff8021bc74:	00000013          	nop
ffffffff8021bc78:	00000013          	nop
ffffffff8021bc7c:	00000013          	nop
ffffffff8021bc80:	00000013          	nop
ffffffff8021bc84:	00000013          	nop
ffffffff8021bc88:	00000013          	nop
ffffffff8021bc8c:	00000013          	nop
ffffffff8021bc90:	00000013          	nop
ffffffff8021bc94:	00000013          	nop
ffffffff8021bc98:	00000013          	nop
ffffffff8021bc9c:	00000013          	nop
ffffffff8021bca0:	00000013          	nop
ffffffff8021bca4:	00000013          	nop
ffffffff8021bca8:	00000013          	nop
ffffffff8021bcac:	00000013          	nop
ffffffff8021bcb0:	00000013          	nop
ffffffff8021bcb4:	00000013          	nop
ffffffff8021bcb8:	00000013          	nop
ffffffff8021bcbc:	00000013          	nop
ffffffff8021bcc0:	00000013          	nop
ffffffff8021bcc4:	00000013          	nop
ffffffff8021bcc8:	00000013          	nop
ffffffff8021bccc:	00000013          	nop
ffffffff8021bcd0:	00000013          	nop
ffffffff8021bcd4:	00000013          	nop
ffffffff8021bcd8:	00000013          	nop
ffffffff8021bcdc:	00000013          	nop
ffffffff8021bce0:	00000013          	nop
ffffffff8021bce4:	00000013          	nop
ffffffff8021bce8:	00000013          	nop
ffffffff8021bcec:	00000013          	nop
ffffffff8021bcf0:	00000013          	nop
ffffffff8021bcf4:	00000013          	nop
ffffffff8021bcf8:	00000013          	nop
ffffffff8021bcfc:	00000013          	nop
ffffffff8021bd00:	00000013          	nop
ffffffff8021bd04:	00000013          	nop
ffffffff8021bd08:	00000013          	nop
ffffffff8021bd0c:	00000013          	nop
ffffffff8021bd10:	00000013          	nop
ffffffff8021bd14:	00000013          	nop
ffffffff8021bd18:	00000013          	nop
ffffffff8021bd1c:	00000013          	nop
ffffffff8021bd20:	00000013          	nop
ffffffff8021bd24:	00000013          	nop
ffffffff8021bd28:	00000013          	nop
ffffffff8021bd2c:	00000013          	nop
ffffffff8021bd30:	00000013          	nop
ffffffff8021bd34:	00000013          	nop
ffffffff8021bd38:	00000013          	nop
ffffffff8021bd3c:	00000013          	nop
ffffffff8021bd40:	00000013          	nop
ffffffff8021bd44:	00000013          	nop
ffffffff8021bd48:	00000013          	nop
ffffffff8021bd4c:	00000013          	nop
ffffffff8021bd50:	00000013          	nop
ffffffff8021bd54:	00000013          	nop
ffffffff8021bd58:	00000013          	nop
ffffffff8021bd5c:	00000013          	nop
ffffffff8021bd60:	00000013          	nop
ffffffff8021bd64:	00000013          	nop
ffffffff8021bd68:	00000013          	nop
ffffffff8021bd6c:	00000013          	nop
ffffffff8021bd70:	00000013          	nop
ffffffff8021bd74:	00000013          	nop
ffffffff8021bd78:	00000013          	nop
ffffffff8021bd7c:	00000013          	nop
ffffffff8021bd80:	00000013          	nop
ffffffff8021bd84:	00000013          	nop
ffffffff8021bd88:	00000013          	nop
ffffffff8021bd8c:	00000013          	nop
ffffffff8021bd90:	00000013          	nop
ffffffff8021bd94:	00000013          	nop
ffffffff8021bd98:	00000013          	nop
ffffffff8021bd9c:	00000013          	nop
ffffffff8021bda0:	00000013          	nop
ffffffff8021bda4:	00000013          	nop
ffffffff8021bda8:	00000013          	nop
ffffffff8021bdac:	00000013          	nop
ffffffff8021bdb0:	00000013          	nop
ffffffff8021bdb4:	00000013          	nop
ffffffff8021bdb8:	00000013          	nop
ffffffff8021bdbc:	00000013          	nop
ffffffff8021bdc0:	00000013          	nop
ffffffff8021bdc4:	00000013          	nop
ffffffff8021bdc8:	00000013          	nop
ffffffff8021bdcc:	00000013          	nop
ffffffff8021bdd0:	00000013          	nop
ffffffff8021bdd4:	00000013          	nop
ffffffff8021bdd8:	00000013          	nop
ffffffff8021bddc:	00000013          	nop
ffffffff8021bde0:	00000013          	nop
ffffffff8021bde4:	00000013          	nop
ffffffff8021bde8:	00000013          	nop
ffffffff8021bdec:	00000013          	nop
ffffffff8021bdf0:	00000013          	nop
ffffffff8021bdf4:	00000013          	nop
ffffffff8021bdf8:	00000013          	nop
ffffffff8021bdfc:	00000013          	nop
ffffffff8021be00:	00000013          	nop
ffffffff8021be04:	00000013          	nop
ffffffff8021be08:	00000013          	nop
ffffffff8021be0c:	00000013          	nop
ffffffff8021be10:	00000013          	nop
ffffffff8021be14:	00000013          	nop
ffffffff8021be18:	00000013          	nop
ffffffff8021be1c:	00000013          	nop
ffffffff8021be20:	00000013          	nop
ffffffff8021be24:	00000013          	nop
ffffffff8021be28:	00000013          	nop
ffffffff8021be2c:	00000013          	nop
ffffffff8021be30:	00000013          	nop
ffffffff8021be34:	00000013          	nop
ffffffff8021be38:	00000013          	nop
ffffffff8021be3c:	00000013          	nop
ffffffff8021be40:	00000013          	nop
ffffffff8021be44:	00000013          	nop
ffffffff8021be48:	00000013          	nop
ffffffff8021be4c:	00000013          	nop
ffffffff8021be50:	00000013          	nop
ffffffff8021be54:	00000013          	nop
ffffffff8021be58:	00000013          	nop
ffffffff8021be5c:	00000013          	nop
ffffffff8021be60:	00000013          	nop
ffffffff8021be64:	00000013          	nop
ffffffff8021be68:	00000013          	nop
ffffffff8021be6c:	00000013          	nop
ffffffff8021be70:	00000013          	nop
ffffffff8021be74:	00000013          	nop
ffffffff8021be78:	00000013          	nop
ffffffff8021be7c:	00000013          	nop
ffffffff8021be80:	00000013          	nop
ffffffff8021be84:	00000013          	nop
ffffffff8021be88:	00000013          	nop
ffffffff8021be8c:	00000013          	nop
ffffffff8021be90:	00000013          	nop
ffffffff8021be94:	00000013          	nop
ffffffff8021be98:	00000013          	nop
ffffffff8021be9c:	00000013          	nop
ffffffff8021bea0:	00000013          	nop
ffffffff8021bea4:	00000013          	nop
ffffffff8021bea8:	00000013          	nop
ffffffff8021beac:	00000013          	nop
ffffffff8021beb0:	00000013          	nop
ffffffff8021beb4:	00000013          	nop
ffffffff8021beb8:	00000013          	nop
ffffffff8021bebc:	00000013          	nop
ffffffff8021bec0:	00000013          	nop
ffffffff8021bec4:	00000013          	nop
ffffffff8021bec8:	00000013          	nop
ffffffff8021becc:	00000013          	nop
ffffffff8021bed0:	00000013          	nop
ffffffff8021bed4:	00000013          	nop
ffffffff8021bed8:	00000013          	nop
ffffffff8021bedc:	00000013          	nop
ffffffff8021bee0:	00000013          	nop
ffffffff8021bee4:	00000013          	nop
ffffffff8021bee8:	00000013          	nop
ffffffff8021beec:	00000013          	nop
ffffffff8021bef0:	00000013          	nop
ffffffff8021bef4:	00000013          	nop
ffffffff8021bef8:	00000013          	nop
ffffffff8021befc:	00000013          	nop
ffffffff8021bf00:	00000013          	nop
ffffffff8021bf04:	00000013          	nop
ffffffff8021bf08:	00000013          	nop
ffffffff8021bf0c:	00000013          	nop
ffffffff8021bf10:	00000013          	nop
ffffffff8021bf14:	00000013          	nop
ffffffff8021bf18:	00000013          	nop
ffffffff8021bf1c:	00000013          	nop
ffffffff8021bf20:	00000013          	nop
ffffffff8021bf24:	00000013          	nop
ffffffff8021bf28:	00000013          	nop
ffffffff8021bf2c:	00000013          	nop
ffffffff8021bf30:	00000013          	nop
ffffffff8021bf34:	00000013          	nop
ffffffff8021bf38:	00000013          	nop
ffffffff8021bf3c:	00000013          	nop
ffffffff8021bf40:	00000013          	nop
ffffffff8021bf44:	00000013          	nop
ffffffff8021bf48:	00000013          	nop
ffffffff8021bf4c:	00000013          	nop
ffffffff8021bf50:	00000013          	nop
ffffffff8021bf54:	00000013          	nop
ffffffff8021bf58:	00000013          	nop
ffffffff8021bf5c:	00000013          	nop
ffffffff8021bf60:	00000013          	nop
ffffffff8021bf64:	00000013          	nop
ffffffff8021bf68:	00000013          	nop
ffffffff8021bf6c:	00000013          	nop
ffffffff8021bf70:	00000013          	nop
ffffffff8021bf74:	00000013          	nop
ffffffff8021bf78:	00000013          	nop
ffffffff8021bf7c:	00000013          	nop
ffffffff8021bf80:	00000013          	nop
ffffffff8021bf84:	00000013          	nop
ffffffff8021bf88:	00000013          	nop
ffffffff8021bf8c:	00000013          	nop
ffffffff8021bf90:	00000013          	nop
ffffffff8021bf94:	00000013          	nop
ffffffff8021bf98:	00000013          	nop
ffffffff8021bf9c:	00000013          	nop
ffffffff8021bfa0:	00000013          	nop
ffffffff8021bfa4:	00000013          	nop
ffffffff8021bfa8:	00000013          	nop
ffffffff8021bfac:	00000013          	nop
ffffffff8021bfb0:	00000013          	nop
ffffffff8021bfb4:	00000013          	nop
ffffffff8021bfb8:	00000013          	nop
ffffffff8021bfbc:	00000013          	nop
ffffffff8021bfc0:	00000013          	nop
ffffffff8021bfc4:	00000013          	nop
ffffffff8021bfc8:	00000013          	nop
ffffffff8021bfcc:	00000013          	nop
ffffffff8021bfd0:	00000013          	nop
ffffffff8021bfd4:	00000013          	nop
ffffffff8021bfd8:	00000013          	nop
ffffffff8021bfdc:	00000013          	nop
ffffffff8021bfe0:	00000013          	nop
ffffffff8021bfe4:	00000013          	nop
ffffffff8021bfe8:	00000013          	nop
ffffffff8021bfec:	00000013          	nop
ffffffff8021bff0:	00000013          	nop
ffffffff8021bff4:	00000013          	nop
ffffffff8021bff8:	00000013          	nop
ffffffff8021bffc:	00000013          	nop
ffffffff8021c000:	00000013          	nop
ffffffff8021c004:	00000013          	nop
ffffffff8021c008:	00000013          	nop
ffffffff8021c00c:	00000013          	nop
ffffffff8021c010:	00000013          	nop
ffffffff8021c014:	00000013          	nop
ffffffff8021c018:	00000013          	nop
ffffffff8021c01c:	00000013          	nop
ffffffff8021c020:	00000013          	nop
ffffffff8021c024:	00000013          	nop
ffffffff8021c028:	00000013          	nop
ffffffff8021c02c:	00000013          	nop
ffffffff8021c030:	00000013          	nop
ffffffff8021c034:	00000013          	nop
ffffffff8021c038:	00000013          	nop
ffffffff8021c03c:	00000013          	nop
ffffffff8021c040:	00000013          	nop
ffffffff8021c044:	00000013          	nop
ffffffff8021c048:	00000013          	nop
ffffffff8021c04c:	00000013          	nop
ffffffff8021c050:	00000013          	nop
ffffffff8021c054:	00000013          	nop
ffffffff8021c058:	00000013          	nop
ffffffff8021c05c:	00000013          	nop
ffffffff8021c060:	00000013          	nop
ffffffff8021c064:	00000013          	nop
ffffffff8021c068:	00000013          	nop
ffffffff8021c06c:	00000013          	nop
ffffffff8021c070:	00000013          	nop
ffffffff8021c074:	00000013          	nop
ffffffff8021c078:	00000013          	nop
ffffffff8021c07c:	00000013          	nop
ffffffff8021c080:	00000013          	nop
ffffffff8021c084:	00000013          	nop
ffffffff8021c088:	00000013          	nop
ffffffff8021c08c:	00000013          	nop
ffffffff8021c090:	00000013          	nop
ffffffff8021c094:	00000013          	nop
ffffffff8021c098:	00000013          	nop
ffffffff8021c09c:	00000013          	nop
ffffffff8021c0a0:	00000013          	nop
ffffffff8021c0a4:	00000013          	nop
ffffffff8021c0a8:	00000013          	nop
ffffffff8021c0ac:	00000013          	nop
ffffffff8021c0b0:	00000013          	nop
ffffffff8021c0b4:	00000013          	nop
ffffffff8021c0b8:	00000013          	nop
ffffffff8021c0bc:	00000013          	nop
ffffffff8021c0c0:	00000013          	nop
ffffffff8021c0c4:	00000013          	nop
ffffffff8021c0c8:	00000013          	nop
ffffffff8021c0cc:	00000013          	nop
ffffffff8021c0d0:	00000013          	nop
ffffffff8021c0d4:	00000013          	nop
ffffffff8021c0d8:	00000013          	nop
ffffffff8021c0dc:	00000013          	nop
ffffffff8021c0e0:	00000013          	nop
ffffffff8021c0e4:	00000013          	nop
ffffffff8021c0e8:	00000013          	nop
ffffffff8021c0ec:	00000013          	nop
ffffffff8021c0f0:	00000013          	nop
ffffffff8021c0f4:	00000013          	nop
ffffffff8021c0f8:	00000013          	nop
ffffffff8021c0fc:	00000013          	nop
ffffffff8021c100:	00000013          	nop
ffffffff8021c104:	00000013          	nop
ffffffff8021c108:	00000013          	nop
ffffffff8021c10c:	00000013          	nop
ffffffff8021c110:	00000013          	nop
ffffffff8021c114:	00000013          	nop
ffffffff8021c118:	00000013          	nop
ffffffff8021c11c:	00000013          	nop
ffffffff8021c120:	00000013          	nop
ffffffff8021c124:	00000013          	nop
ffffffff8021c128:	00000013          	nop
ffffffff8021c12c:	00000013          	nop
ffffffff8021c130:	00000013          	nop
ffffffff8021c134:	00000013          	nop
ffffffff8021c138:	00000013          	nop
ffffffff8021c13c:	00000013          	nop
ffffffff8021c140:	00000013          	nop
ffffffff8021c144:	00000013          	nop
ffffffff8021c148:	00000013          	nop
ffffffff8021c14c:	00000013          	nop
ffffffff8021c150:	00000013          	nop
ffffffff8021c154:	00000013          	nop
ffffffff8021c158:	00000013          	nop
ffffffff8021c15c:	00000013          	nop
ffffffff8021c160:	00000013          	nop
ffffffff8021c164:	00000013          	nop
ffffffff8021c168:	00000013          	nop
ffffffff8021c16c:	00000013          	nop
ffffffff8021c170:	00000013          	nop
ffffffff8021c174:	00000013          	nop
ffffffff8021c178:	00000013          	nop
ffffffff8021c17c:	00000013          	nop
ffffffff8021c180:	00000013          	nop
ffffffff8021c184:	00000013          	nop
ffffffff8021c188:	00000013          	nop
ffffffff8021c18c:	00000013          	nop
ffffffff8021c190:	00000013          	nop
ffffffff8021c194:	00000013          	nop
ffffffff8021c198:	00000013          	nop
ffffffff8021c19c:	00000013          	nop
ffffffff8021c1a0:	00000013          	nop
ffffffff8021c1a4:	00000013          	nop
ffffffff8021c1a8:	00000013          	nop
ffffffff8021c1ac:	00000013          	nop
ffffffff8021c1b0:	00000013          	nop
ffffffff8021c1b4:	00000013          	nop
ffffffff8021c1b8:	00000013          	nop
ffffffff8021c1bc:	00000013          	nop
ffffffff8021c1c0:	00000013          	nop
ffffffff8021c1c4:	00000013          	nop
ffffffff8021c1c8:	00000013          	nop
ffffffff8021c1cc:	00000013          	nop
ffffffff8021c1d0:	00000013          	nop
ffffffff8021c1d4:	00000013          	nop
ffffffff8021c1d8:	00000013          	nop
ffffffff8021c1dc:	00000013          	nop
ffffffff8021c1e0:	00000013          	nop
ffffffff8021c1e4:	00000013          	nop
ffffffff8021c1e8:	00000013          	nop
ffffffff8021c1ec:	00000013          	nop
ffffffff8021c1f0:	00000013          	nop
ffffffff8021c1f4:	00000013          	nop
ffffffff8021c1f8:	00000013          	nop
ffffffff8021c1fc:	00000013          	nop
ffffffff8021c200:	00000013          	nop
ffffffff8021c204:	00000013          	nop
ffffffff8021c208:	00000013          	nop
ffffffff8021c20c:	00000013          	nop
ffffffff8021c210:	00000013          	nop
ffffffff8021c214:	00000013          	nop
ffffffff8021c218:	00000013          	nop
ffffffff8021c21c:	00000013          	nop
ffffffff8021c220:	00000013          	nop
ffffffff8021c224:	00000013          	nop
ffffffff8021c228:	00000013          	nop
ffffffff8021c22c:	00000013          	nop
ffffffff8021c230:	00000013          	nop
ffffffff8021c234:	00000013          	nop
ffffffff8021c238:	00000013          	nop
ffffffff8021c23c:	00000013          	nop
ffffffff8021c240:	00000013          	nop
ffffffff8021c244:	00000013          	nop
ffffffff8021c248:	00000013          	nop
ffffffff8021c24c:	00000013          	nop
ffffffff8021c250:	00000013          	nop
ffffffff8021c254:	00000013          	nop
ffffffff8021c258:	00000013          	nop
ffffffff8021c25c:	00000013          	nop
ffffffff8021c260:	00000013          	nop
ffffffff8021c264:	00000013          	nop
ffffffff8021c268:	00000013          	nop
ffffffff8021c26c:	00000013          	nop
ffffffff8021c270:	00000013          	nop
ffffffff8021c274:	00000013          	nop
ffffffff8021c278:	00000013          	nop
ffffffff8021c27c:	00000013          	nop
ffffffff8021c280:	00000013          	nop
ffffffff8021c284:	00000013          	nop
ffffffff8021c288:	00000013          	nop
ffffffff8021c28c:	00000013          	nop
ffffffff8021c290:	00000013          	nop
ffffffff8021c294:	00000013          	nop
ffffffff8021c298:	00000013          	nop
ffffffff8021c29c:	00000013          	nop
ffffffff8021c2a0:	00000013          	nop
ffffffff8021c2a4:	00000013          	nop
ffffffff8021c2a8:	00000013          	nop
ffffffff8021c2ac:	00000013          	nop
ffffffff8021c2b0:	00000013          	nop
ffffffff8021c2b4:	00000013          	nop
ffffffff8021c2b8:	00000013          	nop
ffffffff8021c2bc:	00000013          	nop
ffffffff8021c2c0:	00000013          	nop
ffffffff8021c2c4:	00000013          	nop
ffffffff8021c2c8:	00000013          	nop
ffffffff8021c2cc:	00000013          	nop
ffffffff8021c2d0:	00000013          	nop
ffffffff8021c2d4:	00000013          	nop
ffffffff8021c2d8:	00000013          	nop
ffffffff8021c2dc:	00000013          	nop
ffffffff8021c2e0:	00000013          	nop
ffffffff8021c2e4:	00000013          	nop
ffffffff8021c2e8:	00000013          	nop
ffffffff8021c2ec:	00000013          	nop
ffffffff8021c2f0:	00000013          	nop
ffffffff8021c2f4:	00000013          	nop
ffffffff8021c2f8:	00000013          	nop
ffffffff8021c2fc:	00000013          	nop
ffffffff8021c300:	00000013          	nop
ffffffff8021c304:	00000013          	nop
ffffffff8021c308:	00000013          	nop
ffffffff8021c30c:	00000013          	nop
ffffffff8021c310:	00000013          	nop
ffffffff8021c314:	00000013          	nop
ffffffff8021c318:	00000013          	nop
ffffffff8021c31c:	00000013          	nop
ffffffff8021c320:	00000013          	nop
ffffffff8021c324:	00000013          	nop
ffffffff8021c328:	00000013          	nop
ffffffff8021c32c:	00000013          	nop
ffffffff8021c330:	00000013          	nop
ffffffff8021c334:	00000013          	nop
ffffffff8021c338:	00000013          	nop
ffffffff8021c33c:	00000013          	nop
ffffffff8021c340:	00000013          	nop
ffffffff8021c344:	00000013          	nop
ffffffff8021c348:	00000013          	nop
ffffffff8021c34c:	00000013          	nop
ffffffff8021c350:	00000013          	nop
ffffffff8021c354:	00000013          	nop
ffffffff8021c358:	00000013          	nop
ffffffff8021c35c:	00000013          	nop
ffffffff8021c360:	00000013          	nop
ffffffff8021c364:	00000013          	nop
ffffffff8021c368:	00000013          	nop
ffffffff8021c36c:	00000013          	nop
ffffffff8021c370:	00000013          	nop
ffffffff8021c374:	00000013          	nop
ffffffff8021c378:	00000013          	nop
ffffffff8021c37c:	00000013          	nop
ffffffff8021c380:	00000013          	nop
ffffffff8021c384:	00000013          	nop
ffffffff8021c388:	00000013          	nop
ffffffff8021c38c:	00000013          	nop
ffffffff8021c390:	00000013          	nop
ffffffff8021c394:	00000013          	nop
ffffffff8021c398:	00000013          	nop
ffffffff8021c39c:	00000013          	nop
ffffffff8021c3a0:	00000013          	nop
ffffffff8021c3a4:	00000013          	nop
ffffffff8021c3a8:	00000013          	nop
ffffffff8021c3ac:	00000013          	nop
ffffffff8021c3b0:	00000013          	nop
ffffffff8021c3b4:	00000013          	nop
ffffffff8021c3b8:	00000013          	nop
ffffffff8021c3bc:	00000013          	nop
ffffffff8021c3c0:	00000013          	nop
ffffffff8021c3c4:	00000013          	nop
ffffffff8021c3c8:	00000013          	nop
ffffffff8021c3cc:	00000013          	nop
ffffffff8021c3d0:	00000013          	nop
ffffffff8021c3d4:	00000013          	nop
ffffffff8021c3d8:	00000013          	nop
ffffffff8021c3dc:	00000013          	nop
ffffffff8021c3e0:	00000013          	nop
ffffffff8021c3e4:	00000013          	nop
ffffffff8021c3e8:	00000013          	nop
ffffffff8021c3ec:	00000013          	nop
ffffffff8021c3f0:	00000013          	nop
ffffffff8021c3f4:	00000013          	nop
ffffffff8021c3f8:	00000013          	nop
ffffffff8021c3fc:	00000013          	nop
ffffffff8021c400:	00000013          	nop
ffffffff8021c404:	00000013          	nop
ffffffff8021c408:	00000013          	nop
ffffffff8021c40c:	00000013          	nop
ffffffff8021c410:	00000013          	nop
ffffffff8021c414:	00000013          	nop
ffffffff8021c418:	00000013          	nop
ffffffff8021c41c:	00000013          	nop
ffffffff8021c420:	00000013          	nop
ffffffff8021c424:	00000013          	nop
ffffffff8021c428:	00000013          	nop
ffffffff8021c42c:	00000013          	nop
ffffffff8021c430:	00000013          	nop
ffffffff8021c434:	00000013          	nop
ffffffff8021c438:	00000013          	nop
ffffffff8021c43c:	00000013          	nop
ffffffff8021c440:	00000013          	nop
ffffffff8021c444:	00000013          	nop
ffffffff8021c448:	00000013          	nop
ffffffff8021c44c:	00000013          	nop
ffffffff8021c450:	00000013          	nop
ffffffff8021c454:	00000013          	nop
ffffffff8021c458:	00000013          	nop
ffffffff8021c45c:	00000013          	nop
ffffffff8021c460:	00000013          	nop
ffffffff8021c464:	00000013          	nop
ffffffff8021c468:	00000013          	nop
ffffffff8021c46c:	00000013          	nop
ffffffff8021c470:	00000013          	nop
ffffffff8021c474:	00000013          	nop
ffffffff8021c478:	00000013          	nop
ffffffff8021c47c:	00000013          	nop
ffffffff8021c480:	00000013          	nop
ffffffff8021c484:	00000013          	nop
ffffffff8021c488:	00000013          	nop
ffffffff8021c48c:	00000013          	nop
ffffffff8021c490:	00000013          	nop
ffffffff8021c494:	00000013          	nop
ffffffff8021c498:	00000013          	nop
ffffffff8021c49c:	00000013          	nop
ffffffff8021c4a0:	00000013          	nop
ffffffff8021c4a4:	00000013          	nop
ffffffff8021c4a8:	00000013          	nop
ffffffff8021c4ac:	00000013          	nop
ffffffff8021c4b0:	00000013          	nop
ffffffff8021c4b4:	00000013          	nop
ffffffff8021c4b8:	00000013          	nop
ffffffff8021c4bc:	00000013          	nop
ffffffff8021c4c0:	00000013          	nop
ffffffff8021c4c4:	00000013          	nop
ffffffff8021c4c8:	00000013          	nop
ffffffff8021c4cc:	00000013          	nop
ffffffff8021c4d0:	00000013          	nop
ffffffff8021c4d4:	00000013          	nop
ffffffff8021c4d8:	00000013          	nop
ffffffff8021c4dc:	00000013          	nop
ffffffff8021c4e0:	00000013          	nop
ffffffff8021c4e4:	00000013          	nop
ffffffff8021c4e8:	00000013          	nop
ffffffff8021c4ec:	00000013          	nop
ffffffff8021c4f0:	00000013          	nop
ffffffff8021c4f4:	00000013          	nop
ffffffff8021c4f8:	00000013          	nop
ffffffff8021c4fc:	00000013          	nop
ffffffff8021c500:	00000013          	nop
ffffffff8021c504:	00000013          	nop
ffffffff8021c508:	00000013          	nop
ffffffff8021c50c:	00000013          	nop
ffffffff8021c510:	00000013          	nop
ffffffff8021c514:	00000013          	nop
ffffffff8021c518:	00000013          	nop
ffffffff8021c51c:	00000013          	nop
ffffffff8021c520:	00000013          	nop
ffffffff8021c524:	00000013          	nop
ffffffff8021c528:	00000013          	nop
ffffffff8021c52c:	00000013          	nop
ffffffff8021c530:	00000013          	nop
ffffffff8021c534:	00000013          	nop
ffffffff8021c538:	00000013          	nop
ffffffff8021c53c:	00000013          	nop
ffffffff8021c540:	00000013          	nop
ffffffff8021c544:	00000013          	nop
ffffffff8021c548:	00000013          	nop
ffffffff8021c54c:	00000013          	nop
ffffffff8021c550:	00000013          	nop
ffffffff8021c554:	00000013          	nop
ffffffff8021c558:	00000013          	nop
ffffffff8021c55c:	00000013          	nop
ffffffff8021c560:	00000013          	nop
ffffffff8021c564:	00000013          	nop
ffffffff8021c568:	00000013          	nop
ffffffff8021c56c:	00000013          	nop
ffffffff8021c570:	00000013          	nop
ffffffff8021c574:	00000013          	nop
ffffffff8021c578:	00000013          	nop
ffffffff8021c57c:	00000013          	nop
ffffffff8021c580:	00000013          	nop
ffffffff8021c584:	00000013          	nop
ffffffff8021c588:	00000013          	nop
ffffffff8021c58c:	00000013          	nop
ffffffff8021c590:	00000013          	nop
ffffffff8021c594:	00000013          	nop
ffffffff8021c598:	00000013          	nop
ffffffff8021c59c:	00000013          	nop
ffffffff8021c5a0:	00000013          	nop
ffffffff8021c5a4:	00000013          	nop
ffffffff8021c5a8:	00000013          	nop
ffffffff8021c5ac:	00000013          	nop
ffffffff8021c5b0:	00000013          	nop
ffffffff8021c5b4:	00000013          	nop
ffffffff8021c5b8:	00000013          	nop
ffffffff8021c5bc:	00000013          	nop
ffffffff8021c5c0:	00000013          	nop
ffffffff8021c5c4:	00000013          	nop
ffffffff8021c5c8:	00000013          	nop
ffffffff8021c5cc:	00000013          	nop
ffffffff8021c5d0:	00000013          	nop
ffffffff8021c5d4:	00000013          	nop
ffffffff8021c5d8:	00000013          	nop
ffffffff8021c5dc:	00000013          	nop
ffffffff8021c5e0:	00000013          	nop
ffffffff8021c5e4:	00000013          	nop
ffffffff8021c5e8:	00000013          	nop
ffffffff8021c5ec:	00000013          	nop
ffffffff8021c5f0:	00000013          	nop
ffffffff8021c5f4:	00000013          	nop
ffffffff8021c5f8:	00000013          	nop
ffffffff8021c5fc:	00000013          	nop
ffffffff8021c600:	00000013          	nop
ffffffff8021c604:	00000013          	nop
ffffffff8021c608:	00000013          	nop
ffffffff8021c60c:	00000013          	nop
ffffffff8021c610:	00000013          	nop
ffffffff8021c614:	00000013          	nop
ffffffff8021c618:	00000013          	nop
ffffffff8021c61c:	00000013          	nop
ffffffff8021c620:	00000013          	nop
ffffffff8021c624:	00000013          	nop
ffffffff8021c628:	00000013          	nop
ffffffff8021c62c:	00000013          	nop
ffffffff8021c630:	00000013          	nop
ffffffff8021c634:	00000013          	nop
ffffffff8021c638:	00000013          	nop
ffffffff8021c63c:	00000013          	nop
ffffffff8021c640:	00000013          	nop
ffffffff8021c644:	00000013          	nop
ffffffff8021c648:	00000013          	nop
ffffffff8021c64c:	00000013          	nop
ffffffff8021c650:	00000013          	nop
ffffffff8021c654:	00000013          	nop
ffffffff8021c658:	00000013          	nop
ffffffff8021c65c:	00000013          	nop
ffffffff8021c660:	00000013          	nop
ffffffff8021c664:	00000013          	nop
ffffffff8021c668:	00000013          	nop
ffffffff8021c66c:	00000013          	nop
ffffffff8021c670:	00000013          	nop
ffffffff8021c674:	00000013          	nop
ffffffff8021c678:	00000013          	nop
ffffffff8021c67c:	00000013          	nop
ffffffff8021c680:	00000013          	nop
ffffffff8021c684:	00000013          	nop
ffffffff8021c688:	00000013          	nop
ffffffff8021c68c:	00000013          	nop
ffffffff8021c690:	00000013          	nop
ffffffff8021c694:	00000013          	nop
ffffffff8021c698:	00000013          	nop
ffffffff8021c69c:	00000013          	nop
ffffffff8021c6a0:	00000013          	nop
ffffffff8021c6a4:	00000013          	nop
ffffffff8021c6a8:	00000013          	nop
ffffffff8021c6ac:	00000013          	nop
ffffffff8021c6b0:	00000013          	nop
ffffffff8021c6b4:	00000013          	nop
ffffffff8021c6b8:	00000013          	nop
ffffffff8021c6bc:	00000013          	nop
ffffffff8021c6c0:	00000013          	nop
ffffffff8021c6c4:	00000013          	nop
ffffffff8021c6c8:	00000013          	nop
ffffffff8021c6cc:	00000013          	nop
ffffffff8021c6d0:	00000013          	nop
ffffffff8021c6d4:	00000013          	nop
ffffffff8021c6d8:	00000013          	nop
ffffffff8021c6dc:	00000013          	nop
ffffffff8021c6e0:	00000013          	nop
ffffffff8021c6e4:	00000013          	nop
ffffffff8021c6e8:	00000013          	nop
ffffffff8021c6ec:	00000013          	nop
ffffffff8021c6f0:	00000013          	nop
ffffffff8021c6f4:	00000013          	nop
ffffffff8021c6f8:	00000013          	nop
ffffffff8021c6fc:	00000013          	nop
ffffffff8021c700:	00000013          	nop
ffffffff8021c704:	00000013          	nop
ffffffff8021c708:	00000013          	nop
ffffffff8021c70c:	00000013          	nop
ffffffff8021c710:	00000013          	nop
ffffffff8021c714:	00000013          	nop
ffffffff8021c718:	00000013          	nop
ffffffff8021c71c:	00000013          	nop
ffffffff8021c720:	00000013          	nop
ffffffff8021c724:	00000013          	nop
ffffffff8021c728:	00000013          	nop
ffffffff8021c72c:	00000013          	nop
ffffffff8021c730:	00000013          	nop
ffffffff8021c734:	00000013          	nop
ffffffff8021c738:	00000013          	nop
ffffffff8021c73c:	00000013          	nop
ffffffff8021c740:	00000013          	nop
ffffffff8021c744:	00000013          	nop
ffffffff8021c748:	00000013          	nop
ffffffff8021c74c:	00000013          	nop
ffffffff8021c750:	00000013          	nop
ffffffff8021c754:	00000013          	nop
ffffffff8021c758:	00000013          	nop
ffffffff8021c75c:	00000013          	nop
ffffffff8021c760:	00000013          	nop
ffffffff8021c764:	00000013          	nop
ffffffff8021c768:	00000013          	nop
ffffffff8021c76c:	00000013          	nop
ffffffff8021c770:	00000013          	nop
ffffffff8021c774:	00000013          	nop
ffffffff8021c778:	00000013          	nop
ffffffff8021c77c:	00000013          	nop
ffffffff8021c780:	00000013          	nop
ffffffff8021c784:	00000013          	nop
ffffffff8021c788:	00000013          	nop
ffffffff8021c78c:	00000013          	nop
ffffffff8021c790:	00000013          	nop
ffffffff8021c794:	00000013          	nop
ffffffff8021c798:	00000013          	nop
ffffffff8021c79c:	00000013          	nop
ffffffff8021c7a0:	00000013          	nop
ffffffff8021c7a4:	00000013          	nop
ffffffff8021c7a8:	00000013          	nop
ffffffff8021c7ac:	00000013          	nop
ffffffff8021c7b0:	00000013          	nop
ffffffff8021c7b4:	00000013          	nop
ffffffff8021c7b8:	00000013          	nop
ffffffff8021c7bc:	00000013          	nop
ffffffff8021c7c0:	00000013          	nop
ffffffff8021c7c4:	00000013          	nop
ffffffff8021c7c8:	00000013          	nop
ffffffff8021c7cc:	00000013          	nop
ffffffff8021c7d0:	00000013          	nop
ffffffff8021c7d4:	00000013          	nop
ffffffff8021c7d8:	00000013          	nop
ffffffff8021c7dc:	00000013          	nop
ffffffff8021c7e0:	00000013          	nop
ffffffff8021c7e4:	00000013          	nop
ffffffff8021c7e8:	00000013          	nop
ffffffff8021c7ec:	00000013          	nop
ffffffff8021c7f0:	00000013          	nop
ffffffff8021c7f4:	00000013          	nop
ffffffff8021c7f8:	00000013          	nop
ffffffff8021c7fc:	00000013          	nop
ffffffff8021c800:	00000013          	nop
ffffffff8021c804:	00000013          	nop
ffffffff8021c808:	00000013          	nop
ffffffff8021c80c:	00000013          	nop
ffffffff8021c810:	00000013          	nop
ffffffff8021c814:	00000013          	nop
ffffffff8021c818:	00000013          	nop
ffffffff8021c81c:	00000013          	nop
ffffffff8021c820:	00000013          	nop
ffffffff8021c824:	00000013          	nop
ffffffff8021c828:	00000013          	nop
ffffffff8021c82c:	00000013          	nop
ffffffff8021c830:	00000013          	nop
ffffffff8021c834:	00000013          	nop
ffffffff8021c838:	00000013          	nop
ffffffff8021c83c:	00000013          	nop
ffffffff8021c840:	00000013          	nop
ffffffff8021c844:	00000013          	nop
ffffffff8021c848:	00000013          	nop
ffffffff8021c84c:	00000013          	nop
ffffffff8021c850:	00000013          	nop
ffffffff8021c854:	00000013          	nop
ffffffff8021c858:	00000013          	nop
ffffffff8021c85c:	00000013          	nop
ffffffff8021c860:	00000013          	nop
ffffffff8021c864:	00000013          	nop
ffffffff8021c868:	00000013          	nop
ffffffff8021c86c:	00000013          	nop
ffffffff8021c870:	00000013          	nop
ffffffff8021c874:	00000013          	nop
ffffffff8021c878:	00000013          	nop
ffffffff8021c87c:	00000013          	nop
ffffffff8021c880:	00000013          	nop
ffffffff8021c884:	00000013          	nop
ffffffff8021c888:	00000013          	nop
ffffffff8021c88c:	00000013          	nop
ffffffff8021c890:	00000013          	nop
ffffffff8021c894:	00000013          	nop
ffffffff8021c898:	00000013          	nop
ffffffff8021c89c:	00000013          	nop
ffffffff8021c8a0:	00000013          	nop
ffffffff8021c8a4:	00000013          	nop
ffffffff8021c8a8:	00000013          	nop
ffffffff8021c8ac:	00000013          	nop
ffffffff8021c8b0:	00000013          	nop
ffffffff8021c8b4:	00000013          	nop
ffffffff8021c8b8:	00000013          	nop
ffffffff8021c8bc:	00000013          	nop
ffffffff8021c8c0:	00000013          	nop
ffffffff8021c8c4:	00000013          	nop
ffffffff8021c8c8:	00000013          	nop
ffffffff8021c8cc:	00000013          	nop
ffffffff8021c8d0:	00000013          	nop
ffffffff8021c8d4:	00000013          	nop
ffffffff8021c8d8:	00000013          	nop
ffffffff8021c8dc:	00000013          	nop
ffffffff8021c8e0:	00000013          	nop
ffffffff8021c8e4:	00000013          	nop
ffffffff8021c8e8:	00000013          	nop
ffffffff8021c8ec:	00000013          	nop
ffffffff8021c8f0:	00000013          	nop
ffffffff8021c8f4:	00000013          	nop
ffffffff8021c8f8:	00000013          	nop
ffffffff8021c8fc:	00000013          	nop
ffffffff8021c900:	00000013          	nop
ffffffff8021c904:	00000013          	nop
ffffffff8021c908:	00000013          	nop
ffffffff8021c90c:	00000013          	nop
ffffffff8021c910:	00000013          	nop
ffffffff8021c914:	00000013          	nop
ffffffff8021c918:	00000013          	nop
ffffffff8021c91c:	00000013          	nop
ffffffff8021c920:	00000013          	nop
ffffffff8021c924:	00000013          	nop
ffffffff8021c928:	00000013          	nop
ffffffff8021c92c:	00000013          	nop
ffffffff8021c930:	00000013          	nop
ffffffff8021c934:	00000013          	nop
ffffffff8021c938:	00000013          	nop
ffffffff8021c93c:	00000013          	nop
ffffffff8021c940:	00000013          	nop
ffffffff8021c944:	00000013          	nop
ffffffff8021c948:	00000013          	nop
ffffffff8021c94c:	00000013          	nop
ffffffff8021c950:	00000013          	nop
ffffffff8021c954:	00000013          	nop
ffffffff8021c958:	00000013          	nop
ffffffff8021c95c:	00000013          	nop
ffffffff8021c960:	00000013          	nop
ffffffff8021c964:	00000013          	nop
ffffffff8021c968:	00000013          	nop
ffffffff8021c96c:	00000013          	nop
ffffffff8021c970:	00000013          	nop
ffffffff8021c974:	00000013          	nop
ffffffff8021c978:	00000013          	nop
ffffffff8021c97c:	00000013          	nop
ffffffff8021c980:	00000013          	nop
ffffffff8021c984:	00000013          	nop
ffffffff8021c988:	00000013          	nop
ffffffff8021c98c:	00000013          	nop
ffffffff8021c990:	00000013          	nop
ffffffff8021c994:	00000013          	nop
ffffffff8021c998:	00000013          	nop
ffffffff8021c99c:	00000013          	nop
ffffffff8021c9a0:	00000013          	nop
ffffffff8021c9a4:	00000013          	nop
ffffffff8021c9a8:	00000013          	nop
ffffffff8021c9ac:	00000013          	nop
ffffffff8021c9b0:	00000013          	nop
ffffffff8021c9b4:	00000013          	nop
ffffffff8021c9b8:	00000013          	nop
ffffffff8021c9bc:	00000013          	nop
ffffffff8021c9c0:	00000013          	nop
ffffffff8021c9c4:	00000013          	nop
ffffffff8021c9c8:	00000013          	nop
ffffffff8021c9cc:	00000013          	nop
ffffffff8021c9d0:	00000013          	nop
ffffffff8021c9d4:	00000013          	nop
ffffffff8021c9d8:	00000013          	nop
ffffffff8021c9dc:	00000013          	nop
ffffffff8021c9e0:	00000013          	nop
ffffffff8021c9e4:	00000013          	nop
ffffffff8021c9e8:	00000013          	nop
ffffffff8021c9ec:	00000013          	nop
ffffffff8021c9f0:	00000013          	nop
ffffffff8021c9f4:	00000013          	nop
ffffffff8021c9f8:	00000013          	nop
ffffffff8021c9fc:	00000013          	nop
ffffffff8021ca00:	00000013          	nop
ffffffff8021ca04:	00000013          	nop
ffffffff8021ca08:	00000013          	nop
ffffffff8021ca0c:	00000013          	nop
ffffffff8021ca10:	00000013          	nop
ffffffff8021ca14:	00000013          	nop
ffffffff8021ca18:	00000013          	nop
ffffffff8021ca1c:	00000013          	nop
ffffffff8021ca20:	00000013          	nop
ffffffff8021ca24:	00000013          	nop
ffffffff8021ca28:	00000013          	nop
ffffffff8021ca2c:	00000013          	nop
ffffffff8021ca30:	00000013          	nop
ffffffff8021ca34:	00000013          	nop
ffffffff8021ca38:	00000013          	nop
ffffffff8021ca3c:	00000013          	nop
ffffffff8021ca40:	00000013          	nop
ffffffff8021ca44:	00000013          	nop
ffffffff8021ca48:	00000013          	nop
ffffffff8021ca4c:	00000013          	nop
ffffffff8021ca50:	00000013          	nop
ffffffff8021ca54:	00000013          	nop
ffffffff8021ca58:	00000013          	nop
ffffffff8021ca5c:	00000013          	nop
ffffffff8021ca60:	00000013          	nop
ffffffff8021ca64:	00000013          	nop
ffffffff8021ca68:	00000013          	nop
ffffffff8021ca6c:	00000013          	nop
ffffffff8021ca70:	00000013          	nop
ffffffff8021ca74:	00000013          	nop
ffffffff8021ca78:	00000013          	nop
ffffffff8021ca7c:	00000013          	nop
ffffffff8021ca80:	00000013          	nop
ffffffff8021ca84:	00000013          	nop
ffffffff8021ca88:	00000013          	nop
ffffffff8021ca8c:	00000013          	nop
ffffffff8021ca90:	00000013          	nop
ffffffff8021ca94:	00000013          	nop
ffffffff8021ca98:	00000013          	nop
ffffffff8021ca9c:	00000013          	nop
ffffffff8021caa0:	00000013          	nop
ffffffff8021caa4:	00000013          	nop
ffffffff8021caa8:	00000013          	nop
ffffffff8021caac:	00000013          	nop
ffffffff8021cab0:	00000013          	nop
ffffffff8021cab4:	00000013          	nop
ffffffff8021cab8:	00000013          	nop
ffffffff8021cabc:	00000013          	nop
ffffffff8021cac0:	00000013          	nop
ffffffff8021cac4:	00000013          	nop
ffffffff8021cac8:	00000013          	nop
ffffffff8021cacc:	00000013          	nop
ffffffff8021cad0:	00000013          	nop
ffffffff8021cad4:	00000013          	nop
ffffffff8021cad8:	00000013          	nop
ffffffff8021cadc:	00000013          	nop
ffffffff8021cae0:	00000013          	nop
ffffffff8021cae4:	00000013          	nop
ffffffff8021cae8:	00000013          	nop
ffffffff8021caec:	00000013          	nop
ffffffff8021caf0:	00000013          	nop
ffffffff8021caf4:	00000013          	nop
ffffffff8021caf8:	00000013          	nop
ffffffff8021cafc:	00000013          	nop
ffffffff8021cb00:	00000013          	nop
ffffffff8021cb04:	00000013          	nop
ffffffff8021cb08:	00000013          	nop
ffffffff8021cb0c:	00000013          	nop
ffffffff8021cb10:	00000013          	nop
ffffffff8021cb14:	00000013          	nop
ffffffff8021cb18:	00000013          	nop
ffffffff8021cb1c:	00000013          	nop
ffffffff8021cb20:	00000013          	nop
ffffffff8021cb24:	00000013          	nop
ffffffff8021cb28:	00000013          	nop
ffffffff8021cb2c:	00000013          	nop
ffffffff8021cb30:	00000013          	nop
ffffffff8021cb34:	00000013          	nop
ffffffff8021cb38:	00000013          	nop
ffffffff8021cb3c:	00000013          	nop
ffffffff8021cb40:	00000013          	nop
ffffffff8021cb44:	00000013          	nop
ffffffff8021cb48:	00000013          	nop
ffffffff8021cb4c:	00000013          	nop
ffffffff8021cb50:	00000013          	nop
ffffffff8021cb54:	00000013          	nop
ffffffff8021cb58:	00000013          	nop
ffffffff8021cb5c:	00000013          	nop
ffffffff8021cb60:	00000013          	nop
ffffffff8021cb64:	00000013          	nop
ffffffff8021cb68:	00000013          	nop
ffffffff8021cb6c:	00000013          	nop
ffffffff8021cb70:	00000013          	nop
ffffffff8021cb74:	00000013          	nop
ffffffff8021cb78:	00000013          	nop
ffffffff8021cb7c:	00000013          	nop
ffffffff8021cb80:	00000013          	nop
ffffffff8021cb84:	00000013          	nop
ffffffff8021cb88:	00000013          	nop
ffffffff8021cb8c:	00000013          	nop
ffffffff8021cb90:	00000013          	nop
ffffffff8021cb94:	00000013          	nop
ffffffff8021cb98:	00000013          	nop
ffffffff8021cb9c:	00000013          	nop
ffffffff8021cba0:	00000013          	nop
ffffffff8021cba4:	00000013          	nop
ffffffff8021cba8:	00000013          	nop
ffffffff8021cbac:	00000013          	nop
ffffffff8021cbb0:	00000013          	nop
ffffffff8021cbb4:	00000013          	nop
ffffffff8021cbb8:	00000013          	nop
ffffffff8021cbbc:	00000013          	nop
ffffffff8021cbc0:	00000013          	nop
ffffffff8021cbc4:	00000013          	nop
ffffffff8021cbc8:	00000013          	nop
ffffffff8021cbcc:	00000013          	nop
ffffffff8021cbd0:	00000013          	nop
ffffffff8021cbd4:	00000013          	nop
ffffffff8021cbd8:	00000013          	nop
ffffffff8021cbdc:	00000013          	nop
ffffffff8021cbe0:	00000013          	nop
ffffffff8021cbe4:	00000013          	nop
ffffffff8021cbe8:	00000013          	nop
ffffffff8021cbec:	00000013          	nop
ffffffff8021cbf0:	00000013          	nop
ffffffff8021cbf4:	00000013          	nop
ffffffff8021cbf8:	00000013          	nop
ffffffff8021cbfc:	00000013          	nop
ffffffff8021cc00:	00000013          	nop
ffffffff8021cc04:	00000013          	nop
ffffffff8021cc08:	00000013          	nop
ffffffff8021cc0c:	00000013          	nop
ffffffff8021cc10:	00000013          	nop
ffffffff8021cc14:	00000013          	nop
ffffffff8021cc18:	00000013          	nop
ffffffff8021cc1c:	00000013          	nop
ffffffff8021cc20:	00000013          	nop
ffffffff8021cc24:	00000013          	nop
ffffffff8021cc28:	00000013          	nop
ffffffff8021cc2c:	00000013          	nop
ffffffff8021cc30:	00000013          	nop
ffffffff8021cc34:	00000013          	nop
ffffffff8021cc38:	00000013          	nop
ffffffff8021cc3c:	00000013          	nop
ffffffff8021cc40:	00000013          	nop
ffffffff8021cc44:	00000013          	nop
ffffffff8021cc48:	00000013          	nop
ffffffff8021cc4c:	00000013          	nop
ffffffff8021cc50:	00000013          	nop
ffffffff8021cc54:	00000013          	nop
ffffffff8021cc58:	00000013          	nop
ffffffff8021cc5c:	00000013          	nop
ffffffff8021cc60:	00000013          	nop
ffffffff8021cc64:	00000013          	nop
ffffffff8021cc68:	00000013          	nop
ffffffff8021cc6c:	00000013          	nop
ffffffff8021cc70:	00000013          	nop
ffffffff8021cc74:	00000013          	nop
ffffffff8021cc78:	00000013          	nop
ffffffff8021cc7c:	00000013          	nop
ffffffff8021cc80:	00000013          	nop
ffffffff8021cc84:	00000013          	nop
ffffffff8021cc88:	00000013          	nop
ffffffff8021cc8c:	00000013          	nop
ffffffff8021cc90:	00000013          	nop
ffffffff8021cc94:	00000013          	nop
ffffffff8021cc98:	00000013          	nop
ffffffff8021cc9c:	00000013          	nop
ffffffff8021cca0:	00000013          	nop
ffffffff8021cca4:	00000013          	nop
ffffffff8021cca8:	00000013          	nop
ffffffff8021ccac:	00000013          	nop
ffffffff8021ccb0:	00000013          	nop
ffffffff8021ccb4:	00000013          	nop
ffffffff8021ccb8:	00000013          	nop
ffffffff8021ccbc:	00000013          	nop
ffffffff8021ccc0:	00000013          	nop
ffffffff8021ccc4:	00000013          	nop
ffffffff8021ccc8:	00000013          	nop
ffffffff8021cccc:	00000013          	nop
ffffffff8021ccd0:	00000013          	nop
ffffffff8021ccd4:	00000013          	nop
ffffffff8021ccd8:	00000013          	nop
ffffffff8021ccdc:	00000013          	nop
ffffffff8021cce0:	00000013          	nop
ffffffff8021cce4:	00000013          	nop
ffffffff8021cce8:	00000013          	nop
ffffffff8021ccec:	00000013          	nop
ffffffff8021ccf0:	00000013          	nop
ffffffff8021ccf4:	00000013          	nop
ffffffff8021ccf8:	00000013          	nop
ffffffff8021ccfc:	00000013          	nop
ffffffff8021cd00:	00000013          	nop
ffffffff8021cd04:	00000013          	nop
ffffffff8021cd08:	00000013          	nop
ffffffff8021cd0c:	00000013          	nop
ffffffff8021cd10:	00000013          	nop
ffffffff8021cd14:	00000013          	nop
ffffffff8021cd18:	00000013          	nop
ffffffff8021cd1c:	00000013          	nop
ffffffff8021cd20:	00000013          	nop
ffffffff8021cd24:	00000013          	nop
ffffffff8021cd28:	00000013          	nop
ffffffff8021cd2c:	00000013          	nop
ffffffff8021cd30:	00000013          	nop
ffffffff8021cd34:	00000013          	nop
ffffffff8021cd38:	00000013          	nop
ffffffff8021cd3c:	00000013          	nop
ffffffff8021cd40:	00000013          	nop
ffffffff8021cd44:	00000013          	nop
ffffffff8021cd48:	00000013          	nop
ffffffff8021cd4c:	00000013          	nop
ffffffff8021cd50:	00000013          	nop
ffffffff8021cd54:	00000013          	nop
ffffffff8021cd58:	00000013          	nop
ffffffff8021cd5c:	00000013          	nop
ffffffff8021cd60:	00000013          	nop
ffffffff8021cd64:	00000013          	nop
ffffffff8021cd68:	00000013          	nop
ffffffff8021cd6c:	00000013          	nop
ffffffff8021cd70:	00000013          	nop
ffffffff8021cd74:	00000013          	nop
ffffffff8021cd78:	00000013          	nop
ffffffff8021cd7c:	00000013          	nop
ffffffff8021cd80:	00000013          	nop
ffffffff8021cd84:	00000013          	nop
ffffffff8021cd88:	00000013          	nop
ffffffff8021cd8c:	00000013          	nop
ffffffff8021cd90:	00000013          	nop
ffffffff8021cd94:	00000013          	nop
ffffffff8021cd98:	00000013          	nop
ffffffff8021cd9c:	00000013          	nop
ffffffff8021cda0:	00000013          	nop
ffffffff8021cda4:	00000013          	nop
ffffffff8021cda8:	00000013          	nop
ffffffff8021cdac:	00000013          	nop
ffffffff8021cdb0:	00000013          	nop
ffffffff8021cdb4:	00000013          	nop
ffffffff8021cdb8:	00000013          	nop
ffffffff8021cdbc:	00000013          	nop
ffffffff8021cdc0:	00000013          	nop
ffffffff8021cdc4:	00000013          	nop
ffffffff8021cdc8:	00000013          	nop
ffffffff8021cdcc:	00000013          	nop
ffffffff8021cdd0:	00000013          	nop
ffffffff8021cdd4:	00000013          	nop
ffffffff8021cdd8:	00000013          	nop
ffffffff8021cddc:	00000013          	nop
ffffffff8021cde0:	00000013          	nop
ffffffff8021cde4:	00000013          	nop
ffffffff8021cde8:	00000013          	nop
ffffffff8021cdec:	00000013          	nop
ffffffff8021cdf0:	00000013          	nop
ffffffff8021cdf4:	00000013          	nop
ffffffff8021cdf8:	00000013          	nop
ffffffff8021cdfc:	00000013          	nop
ffffffff8021ce00:	00000013          	nop
ffffffff8021ce04:	00000013          	nop
ffffffff8021ce08:	00000013          	nop
ffffffff8021ce0c:	00000013          	nop
ffffffff8021ce10:	00000013          	nop
ffffffff8021ce14:	00000013          	nop
ffffffff8021ce18:	00000013          	nop
ffffffff8021ce1c:	00000013          	nop
ffffffff8021ce20:	00000013          	nop
ffffffff8021ce24:	00000013          	nop
ffffffff8021ce28:	00000013          	nop
ffffffff8021ce2c:	00000013          	nop
ffffffff8021ce30:	00000013          	nop
ffffffff8021ce34:	00000013          	nop
ffffffff8021ce38:	00000013          	nop
ffffffff8021ce3c:	00000013          	nop
ffffffff8021ce40:	00000013          	nop
ffffffff8021ce44:	00000013          	nop
ffffffff8021ce48:	00000013          	nop
ffffffff8021ce4c:	00000013          	nop
ffffffff8021ce50:	00000013          	nop
ffffffff8021ce54:	00000013          	nop
ffffffff8021ce58:	00000013          	nop
ffffffff8021ce5c:	00000013          	nop
ffffffff8021ce60:	00000013          	nop
ffffffff8021ce64:	00000013          	nop
ffffffff8021ce68:	00000013          	nop
ffffffff8021ce6c:	00000013          	nop
ffffffff8021ce70:	00000013          	nop
ffffffff8021ce74:	00000013          	nop
ffffffff8021ce78:	00000013          	nop
ffffffff8021ce7c:	00000013          	nop
ffffffff8021ce80:	00000013          	nop
ffffffff8021ce84:	00000013          	nop
ffffffff8021ce88:	00000013          	nop
ffffffff8021ce8c:	00000013          	nop
ffffffff8021ce90:	00000013          	nop
ffffffff8021ce94:	00000013          	nop
ffffffff8021ce98:	00000013          	nop
ffffffff8021ce9c:	00000013          	nop
ffffffff8021cea0:	00000013          	nop
ffffffff8021cea4:	00000013          	nop
ffffffff8021cea8:	00000013          	nop
ffffffff8021ceac:	00000013          	nop
ffffffff8021ceb0:	00000013          	nop
ffffffff8021ceb4:	00000013          	nop
ffffffff8021ceb8:	00000013          	nop
ffffffff8021cebc:	00000013          	nop
ffffffff8021cec0:	00000013          	nop
ffffffff8021cec4:	00000013          	nop
ffffffff8021cec8:	00000013          	nop
ffffffff8021cecc:	00000013          	nop
ffffffff8021ced0:	00000013          	nop
ffffffff8021ced4:	00000013          	nop
ffffffff8021ced8:	00000013          	nop
ffffffff8021cedc:	00000013          	nop
ffffffff8021cee0:	00000013          	nop
ffffffff8021cee4:	00000013          	nop
ffffffff8021cee8:	00000013          	nop
ffffffff8021ceec:	00000013          	nop
ffffffff8021cef0:	00000013          	nop
ffffffff8021cef4:	00000013          	nop
ffffffff8021cef8:	00000013          	nop
ffffffff8021cefc:	00000013          	nop
ffffffff8021cf00:	00000013          	nop
ffffffff8021cf04:	00000013          	nop
ffffffff8021cf08:	00000013          	nop
ffffffff8021cf0c:	00000013          	nop
ffffffff8021cf10:	00000013          	nop
ffffffff8021cf14:	00000013          	nop
ffffffff8021cf18:	00000013          	nop
ffffffff8021cf1c:	00000013          	nop
ffffffff8021cf20:	00000013          	nop
ffffffff8021cf24:	00000013          	nop
ffffffff8021cf28:	00000013          	nop
ffffffff8021cf2c:	00000013          	nop
ffffffff8021cf30:	00000013          	nop
ffffffff8021cf34:	00000013          	nop
ffffffff8021cf38:	00000013          	nop
ffffffff8021cf3c:	00000013          	nop
ffffffff8021cf40:	00000013          	nop
ffffffff8021cf44:	00000013          	nop
ffffffff8021cf48:	00000013          	nop
ffffffff8021cf4c:	00000013          	nop
ffffffff8021cf50:	00000013          	nop
ffffffff8021cf54:	00000013          	nop
ffffffff8021cf58:	00000013          	nop
ffffffff8021cf5c:	00000013          	nop
ffffffff8021cf60:	00000013          	nop
ffffffff8021cf64:	00000013          	nop
ffffffff8021cf68:	00000013          	nop
ffffffff8021cf6c:	00000013          	nop
ffffffff8021cf70:	00000013          	nop
ffffffff8021cf74:	00000013          	nop
ffffffff8021cf78:	00000013          	nop
ffffffff8021cf7c:	00000013          	nop
ffffffff8021cf80:	00000013          	nop
ffffffff8021cf84:	00000013          	nop
ffffffff8021cf88:	00000013          	nop
ffffffff8021cf8c:	00000013          	nop
ffffffff8021cf90:	00000013          	nop
ffffffff8021cf94:	00000013          	nop
ffffffff8021cf98:	00000013          	nop
ffffffff8021cf9c:	00000013          	nop
ffffffff8021cfa0:	00000013          	nop
ffffffff8021cfa4:	00000013          	nop
ffffffff8021cfa8:	00000013          	nop
ffffffff8021cfac:	00000013          	nop
ffffffff8021cfb0:	00000013          	nop
ffffffff8021cfb4:	00000013          	nop
ffffffff8021cfb8:	00000013          	nop
ffffffff8021cfbc:	00000013          	nop
ffffffff8021cfc0:	00000013          	nop
ffffffff8021cfc4:	00000013          	nop
ffffffff8021cfc8:	00000013          	nop
ffffffff8021cfcc:	00000013          	nop
ffffffff8021cfd0:	00000013          	nop
ffffffff8021cfd4:	00000013          	nop
ffffffff8021cfd8:	00000013          	nop
ffffffff8021cfdc:	00000013          	nop
ffffffff8021cfe0:	00000013          	nop
ffffffff8021cfe4:	00000013          	nop
ffffffff8021cfe8:	00000013          	nop
ffffffff8021cfec:	00000013          	nop
ffffffff8021cff0:	00000013          	nop
ffffffff8021cff4:	00000013          	nop
ffffffff8021cff8:	00000013          	nop
ffffffff8021cffc:	00000013          	nop
ffffffff8021d000:	00000013          	nop
ffffffff8021d004:	00000013          	nop
ffffffff8021d008:	00000013          	nop
ffffffff8021d00c:	00000013          	nop
ffffffff8021d010:	00000013          	nop
ffffffff8021d014:	00000013          	nop
ffffffff8021d018:	00000013          	nop
ffffffff8021d01c:	00000013          	nop
ffffffff8021d020:	00000013          	nop
ffffffff8021d024:	00000013          	nop
ffffffff8021d028:	00000013          	nop
ffffffff8021d02c:	00000013          	nop
ffffffff8021d030:	00000013          	nop
ffffffff8021d034:	00000013          	nop
ffffffff8021d038:	00000013          	nop
ffffffff8021d03c:	00000013          	nop
ffffffff8021d040:	00000013          	nop
ffffffff8021d044:	00000013          	nop
ffffffff8021d048:	00000013          	nop
ffffffff8021d04c:	00000013          	nop
ffffffff8021d050:	00000013          	nop
ffffffff8021d054:	00000013          	nop
ffffffff8021d058:	00000013          	nop
ffffffff8021d05c:	00000013          	nop
ffffffff8021d060:	00000013          	nop
ffffffff8021d064:	00000013          	nop
ffffffff8021d068:	00000013          	nop
ffffffff8021d06c:	00000013          	nop
ffffffff8021d070:	00000013          	nop
ffffffff8021d074:	00000013          	nop
ffffffff8021d078:	00000013          	nop
ffffffff8021d07c:	00000013          	nop
ffffffff8021d080:	00000013          	nop
ffffffff8021d084:	00000013          	nop
ffffffff8021d088:	00000013          	nop
ffffffff8021d08c:	00000013          	nop
ffffffff8021d090:	00000013          	nop
ffffffff8021d094:	00000013          	nop
ffffffff8021d098:	00000013          	nop
ffffffff8021d09c:	00000013          	nop
ffffffff8021d0a0:	00000013          	nop
ffffffff8021d0a4:	00000013          	nop
ffffffff8021d0a8:	00000013          	nop
ffffffff8021d0ac:	00000013          	nop
ffffffff8021d0b0:	00000013          	nop
ffffffff8021d0b4:	00000013          	nop
ffffffff8021d0b8:	00000013          	nop
ffffffff8021d0bc:	00000013          	nop
ffffffff8021d0c0:	00000013          	nop
ffffffff8021d0c4:	00000013          	nop
ffffffff8021d0c8:	00000013          	nop
ffffffff8021d0cc:	00000013          	nop
ffffffff8021d0d0:	00000013          	nop
ffffffff8021d0d4:	00000013          	nop
ffffffff8021d0d8:	00000013          	nop
ffffffff8021d0dc:	00000013          	nop
ffffffff8021d0e0:	00000013          	nop
ffffffff8021d0e4:	00000013          	nop
ffffffff8021d0e8:	00000013          	nop
ffffffff8021d0ec:	00000013          	nop
ffffffff8021d0f0:	00000013          	nop
ffffffff8021d0f4:	00000013          	nop
ffffffff8021d0f8:	00000013          	nop
ffffffff8021d0fc:	00000013          	nop
ffffffff8021d100:	00000013          	nop
ffffffff8021d104:	00000013          	nop
ffffffff8021d108:	00000013          	nop
ffffffff8021d10c:	00000013          	nop
ffffffff8021d110:	00000013          	nop
ffffffff8021d114:	00000013          	nop
ffffffff8021d118:	00000013          	nop
ffffffff8021d11c:	00000013          	nop
ffffffff8021d120:	00000013          	nop
ffffffff8021d124:	00000013          	nop
ffffffff8021d128:	00000013          	nop
ffffffff8021d12c:	00000013          	nop
ffffffff8021d130:	00000013          	nop
ffffffff8021d134:	00000013          	nop
ffffffff8021d138:	00000013          	nop
ffffffff8021d13c:	00000013          	nop
ffffffff8021d140:	00000013          	nop
ffffffff8021d144:	00000013          	nop
ffffffff8021d148:	00000013          	nop
ffffffff8021d14c:	00000013          	nop
ffffffff8021d150:	00000013          	nop
ffffffff8021d154:	00000013          	nop
ffffffff8021d158:	00000013          	nop
ffffffff8021d15c:	00000013          	nop
ffffffff8021d160:	00000013          	nop
ffffffff8021d164:	00000013          	nop
ffffffff8021d168:	00000013          	nop
ffffffff8021d16c:	00000013          	nop
ffffffff8021d170:	00000013          	nop
ffffffff8021d174:	00000013          	nop
ffffffff8021d178:	00000013          	nop
ffffffff8021d17c:	00000013          	nop
ffffffff8021d180:	00000013          	nop
ffffffff8021d184:	00000013          	nop
ffffffff8021d188:	00000013          	nop
ffffffff8021d18c:	00000013          	nop
ffffffff8021d190:	00000013          	nop
ffffffff8021d194:	00000013          	nop
ffffffff8021d198:	00000013          	nop
ffffffff8021d19c:	00000013          	nop
ffffffff8021d1a0:	00000013          	nop
ffffffff8021d1a4:	00000013          	nop
ffffffff8021d1a8:	00000013          	nop
ffffffff8021d1ac:	00000013          	nop
ffffffff8021d1b0:	00000013          	nop
ffffffff8021d1b4:	00000013          	nop
ffffffff8021d1b8:	00000013          	nop
ffffffff8021d1bc:	00000013          	nop
ffffffff8021d1c0:	00000013          	nop
ffffffff8021d1c4:	00000013          	nop
ffffffff8021d1c8:	00000013          	nop
ffffffff8021d1cc:	00000013          	nop
ffffffff8021d1d0:	00000013          	nop
ffffffff8021d1d4:	00000013          	nop
ffffffff8021d1d8:	00000013          	nop
ffffffff8021d1dc:	00000013          	nop
ffffffff8021d1e0:	00000013          	nop
ffffffff8021d1e4:	00000013          	nop
ffffffff8021d1e8:	00000013          	nop
ffffffff8021d1ec:	00000013          	nop
ffffffff8021d1f0:	00000013          	nop
ffffffff8021d1f4:	00000013          	nop
ffffffff8021d1f8:	00000013          	nop
ffffffff8021d1fc:	00000013          	nop
ffffffff8021d200:	00000013          	nop
ffffffff8021d204:	00000013          	nop
ffffffff8021d208:	00000013          	nop
ffffffff8021d20c:	00000013          	nop
ffffffff8021d210:	00000013          	nop
ffffffff8021d214:	00000013          	nop
ffffffff8021d218:	00000013          	nop
ffffffff8021d21c:	00000013          	nop
ffffffff8021d220:	00000013          	nop
ffffffff8021d224:	00000013          	nop
ffffffff8021d228:	00000013          	nop
ffffffff8021d22c:	00000013          	nop
ffffffff8021d230:	00000013          	nop
ffffffff8021d234:	00000013          	nop
ffffffff8021d238:	00000013          	nop
ffffffff8021d23c:	00000013          	nop
ffffffff8021d240:	00000013          	nop
ffffffff8021d244:	00000013          	nop
ffffffff8021d248:	00000013          	nop
ffffffff8021d24c:	00000013          	nop
ffffffff8021d250:	00000013          	nop
ffffffff8021d254:	00000013          	nop
ffffffff8021d258:	00000013          	nop
ffffffff8021d25c:	00000013          	nop
ffffffff8021d260:	00000013          	nop
ffffffff8021d264:	00000013          	nop
ffffffff8021d268:	00000013          	nop
ffffffff8021d26c:	00000013          	nop
ffffffff8021d270:	00000013          	nop
ffffffff8021d274:	00000013          	nop
ffffffff8021d278:	00000013          	nop
ffffffff8021d27c:	00000013          	nop
ffffffff8021d280:	00000013          	nop
ffffffff8021d284:	00000013          	nop
ffffffff8021d288:	00000013          	nop
ffffffff8021d28c:	00000013          	nop
ffffffff8021d290:	00000013          	nop
ffffffff8021d294:	00000013          	nop
ffffffff8021d298:	00000013          	nop
ffffffff8021d29c:	00000013          	nop
ffffffff8021d2a0:	00000013          	nop
ffffffff8021d2a4:	00000013          	nop
ffffffff8021d2a8:	00000013          	nop
ffffffff8021d2ac:	00000013          	nop
ffffffff8021d2b0:	00000013          	nop
ffffffff8021d2b4:	00000013          	nop
ffffffff8021d2b8:	00000013          	nop
ffffffff8021d2bc:	00000013          	nop
ffffffff8021d2c0:	00000013          	nop
ffffffff8021d2c4:	00000013          	nop
ffffffff8021d2c8:	00000013          	nop
ffffffff8021d2cc:	00000013          	nop
ffffffff8021d2d0:	00000013          	nop
ffffffff8021d2d4:	00000013          	nop
ffffffff8021d2d8:	00000013          	nop
ffffffff8021d2dc:	00000013          	nop
ffffffff8021d2e0:	00000013          	nop
ffffffff8021d2e4:	00000013          	nop
ffffffff8021d2e8:	00000013          	nop
ffffffff8021d2ec:	00000013          	nop
ffffffff8021d2f0:	00000013          	nop
ffffffff8021d2f4:	00000013          	nop
ffffffff8021d2f8:	00000013          	nop
ffffffff8021d2fc:	00000013          	nop
ffffffff8021d300:	00000013          	nop
ffffffff8021d304:	00000013          	nop
ffffffff8021d308:	00000013          	nop
ffffffff8021d30c:	00000013          	nop
ffffffff8021d310:	00000013          	nop
ffffffff8021d314:	00000013          	nop
ffffffff8021d318:	00000013          	nop
ffffffff8021d31c:	00000013          	nop
ffffffff8021d320:	00000013          	nop
ffffffff8021d324:	00000013          	nop
ffffffff8021d328:	00000013          	nop
ffffffff8021d32c:	00000013          	nop
ffffffff8021d330:	00000013          	nop
ffffffff8021d334:	00000013          	nop
ffffffff8021d338:	00000013          	nop
ffffffff8021d33c:	00000013          	nop
ffffffff8021d340:	00000013          	nop
ffffffff8021d344:	00000013          	nop
ffffffff8021d348:	00000013          	nop
ffffffff8021d34c:	00000013          	nop
ffffffff8021d350:	00000013          	nop
ffffffff8021d354:	00000013          	nop
ffffffff8021d358:	00000013          	nop
ffffffff8021d35c:	00000013          	nop
ffffffff8021d360:	00000013          	nop
ffffffff8021d364:	00000013          	nop
ffffffff8021d368:	00000013          	nop
ffffffff8021d36c:	00000013          	nop
ffffffff8021d370:	00000013          	nop
ffffffff8021d374:	00000013          	nop
ffffffff8021d378:	00000013          	nop
ffffffff8021d37c:	00000013          	nop
ffffffff8021d380:	00000013          	nop
ffffffff8021d384:	00000013          	nop
ffffffff8021d388:	00000013          	nop
ffffffff8021d38c:	00000013          	nop
ffffffff8021d390:	00000013          	nop
ffffffff8021d394:	00000013          	nop
ffffffff8021d398:	00000013          	nop
ffffffff8021d39c:	00000013          	nop
ffffffff8021d3a0:	00000013          	nop
ffffffff8021d3a4:	00000013          	nop
ffffffff8021d3a8:	00000013          	nop
ffffffff8021d3ac:	00000013          	nop
ffffffff8021d3b0:	00000013          	nop
ffffffff8021d3b4:	00000013          	nop
ffffffff8021d3b8:	00000013          	nop
ffffffff8021d3bc:	00000013          	nop
ffffffff8021d3c0:	00000013          	nop
ffffffff8021d3c4:	00000013          	nop
ffffffff8021d3c8:	00000013          	nop
ffffffff8021d3cc:	00000013          	nop
ffffffff8021d3d0:	00000013          	nop
ffffffff8021d3d4:	00000013          	nop
ffffffff8021d3d8:	00000013          	nop
ffffffff8021d3dc:	00000013          	nop
ffffffff8021d3e0:	00000013          	nop
ffffffff8021d3e4:	00000013          	nop
ffffffff8021d3e8:	00000013          	nop
ffffffff8021d3ec:	00000013          	nop
ffffffff8021d3f0:	00000013          	nop
ffffffff8021d3f4:	00000013          	nop
ffffffff8021d3f8:	00000013          	nop
ffffffff8021d3fc:	00000013          	nop
ffffffff8021d400:	00000013          	nop
ffffffff8021d404:	00000013          	nop
ffffffff8021d408:	00000013          	nop
ffffffff8021d40c:	00000013          	nop
ffffffff8021d410:	00000013          	nop
ffffffff8021d414:	00000013          	nop
ffffffff8021d418:	00000013          	nop
ffffffff8021d41c:	00000013          	nop
ffffffff8021d420:	00000013          	nop
ffffffff8021d424:	00000013          	nop
ffffffff8021d428:	00000013          	nop
ffffffff8021d42c:	00000013          	nop
ffffffff8021d430:	00000013          	nop
ffffffff8021d434:	00000013          	nop
ffffffff8021d438:	00000013          	nop
ffffffff8021d43c:	00000013          	nop
ffffffff8021d440:	00000013          	nop
ffffffff8021d444:	00000013          	nop
ffffffff8021d448:	00000013          	nop
ffffffff8021d44c:	00000013          	nop
ffffffff8021d450:	00000013          	nop
ffffffff8021d454:	00000013          	nop
ffffffff8021d458:	00000013          	nop
ffffffff8021d45c:	00000013          	nop
ffffffff8021d460:	00000013          	nop
ffffffff8021d464:	00000013          	nop
ffffffff8021d468:	00000013          	nop
ffffffff8021d46c:	00000013          	nop
ffffffff8021d470:	00000013          	nop
ffffffff8021d474:	00000013          	nop
ffffffff8021d478:	00000013          	nop
ffffffff8021d47c:	00000013          	nop
ffffffff8021d480:	00000013          	nop
ffffffff8021d484:	00000013          	nop
ffffffff8021d488:	00000013          	nop
ffffffff8021d48c:	00000013          	nop
ffffffff8021d490:	00000013          	nop
ffffffff8021d494:	00000013          	nop
ffffffff8021d498:	00000013          	nop
ffffffff8021d49c:	00000013          	nop
ffffffff8021d4a0:	00000013          	nop
ffffffff8021d4a4:	00000013          	nop
ffffffff8021d4a8:	00000013          	nop
ffffffff8021d4ac:	00000013          	nop
ffffffff8021d4b0:	00000013          	nop
ffffffff8021d4b4:	00000013          	nop
ffffffff8021d4b8:	00000013          	nop
ffffffff8021d4bc:	00000013          	nop
ffffffff8021d4c0:	00000013          	nop
ffffffff8021d4c4:	00000013          	nop
ffffffff8021d4c8:	00000013          	nop
ffffffff8021d4cc:	00000013          	nop
ffffffff8021d4d0:	00000013          	nop
ffffffff8021d4d4:	00000013          	nop
ffffffff8021d4d8:	00000013          	nop
ffffffff8021d4dc:	00000013          	nop
ffffffff8021d4e0:	00000013          	nop
ffffffff8021d4e4:	00000013          	nop
ffffffff8021d4e8:	00000013          	nop
ffffffff8021d4ec:	00000013          	nop
ffffffff8021d4f0:	00000013          	nop
ffffffff8021d4f4:	00000013          	nop
ffffffff8021d4f8:	00000013          	nop
ffffffff8021d4fc:	00000013          	nop
ffffffff8021d500:	00000013          	nop
ffffffff8021d504:	00000013          	nop
ffffffff8021d508:	00000013          	nop
ffffffff8021d50c:	00000013          	nop
ffffffff8021d510:	00000013          	nop
ffffffff8021d514:	00000013          	nop
ffffffff8021d518:	00000013          	nop
ffffffff8021d51c:	00000013          	nop
ffffffff8021d520:	00000013          	nop
ffffffff8021d524:	00000013          	nop
ffffffff8021d528:	00000013          	nop
ffffffff8021d52c:	00000013          	nop
ffffffff8021d530:	00000013          	nop
ffffffff8021d534:	00000013          	nop
ffffffff8021d538:	00000013          	nop
ffffffff8021d53c:	00000013          	nop
ffffffff8021d540:	00000013          	nop
ffffffff8021d544:	00000013          	nop
ffffffff8021d548:	00000013          	nop
ffffffff8021d54c:	00000013          	nop
ffffffff8021d550:	00000013          	nop
ffffffff8021d554:	00000013          	nop
ffffffff8021d558:	00000013          	nop
ffffffff8021d55c:	00000013          	nop
ffffffff8021d560:	00000013          	nop
ffffffff8021d564:	00000013          	nop
ffffffff8021d568:	00000013          	nop
ffffffff8021d56c:	00000013          	nop
ffffffff8021d570:	00000013          	nop
ffffffff8021d574:	00000013          	nop
ffffffff8021d578:	00000013          	nop
ffffffff8021d57c:	00000013          	nop
ffffffff8021d580:	00000013          	nop
ffffffff8021d584:	00000013          	nop
ffffffff8021d588:	00000013          	nop
ffffffff8021d58c:	00000013          	nop
ffffffff8021d590:	00000013          	nop
ffffffff8021d594:	00000013          	nop
ffffffff8021d598:	00000013          	nop
ffffffff8021d59c:	00000013          	nop
ffffffff8021d5a0:	00000013          	nop
ffffffff8021d5a4:	00000013          	nop
ffffffff8021d5a8:	00000013          	nop
ffffffff8021d5ac:	00000013          	nop
ffffffff8021d5b0:	00000013          	nop
ffffffff8021d5b4:	00000013          	nop
ffffffff8021d5b8:	00000013          	nop
ffffffff8021d5bc:	00000013          	nop
ffffffff8021d5c0:	00000013          	nop
ffffffff8021d5c4:	00000013          	nop
ffffffff8021d5c8:	00000013          	nop
ffffffff8021d5cc:	00000013          	nop
ffffffff8021d5d0:	00000013          	nop
ffffffff8021d5d4:	00000013          	nop
ffffffff8021d5d8:	00000013          	nop
ffffffff8021d5dc:	00000013          	nop
ffffffff8021d5e0:	00000013          	nop
ffffffff8021d5e4:	00000013          	nop
ffffffff8021d5e8:	00000013          	nop
ffffffff8021d5ec:	00000013          	nop
ffffffff8021d5f0:	00000013          	nop
ffffffff8021d5f4:	00000013          	nop
ffffffff8021d5f8:	00000013          	nop
ffffffff8021d5fc:	00000013          	nop
ffffffff8021d600:	00000013          	nop
ffffffff8021d604:	00000013          	nop
ffffffff8021d608:	00000013          	nop
ffffffff8021d60c:	00000013          	nop
ffffffff8021d610:	00000013          	nop
ffffffff8021d614:	00000013          	nop
ffffffff8021d618:	00000013          	nop
ffffffff8021d61c:	00000013          	nop
ffffffff8021d620:	00000013          	nop
ffffffff8021d624:	00000013          	nop
ffffffff8021d628:	00000013          	nop
ffffffff8021d62c:	00000013          	nop
ffffffff8021d630:	00000013          	nop
ffffffff8021d634:	00000013          	nop
ffffffff8021d638:	00000013          	nop
ffffffff8021d63c:	00000013          	nop
ffffffff8021d640:	00000013          	nop
ffffffff8021d644:	00000013          	nop
ffffffff8021d648:	00000013          	nop
ffffffff8021d64c:	00000013          	nop
ffffffff8021d650:	00000013          	nop
ffffffff8021d654:	00000013          	nop
ffffffff8021d658:	00000013          	nop
ffffffff8021d65c:	00000013          	nop
ffffffff8021d660:	00000013          	nop
ffffffff8021d664:	00000013          	nop
ffffffff8021d668:	00000013          	nop
ffffffff8021d66c:	00000013          	nop
ffffffff8021d670:	00000013          	nop
ffffffff8021d674:	00000013          	nop
ffffffff8021d678:	00000013          	nop
ffffffff8021d67c:	00000013          	nop
ffffffff8021d680:	00000013          	nop
ffffffff8021d684:	00000013          	nop
ffffffff8021d688:	00000013          	nop
ffffffff8021d68c:	00000013          	nop
ffffffff8021d690:	00000013          	nop
ffffffff8021d694:	00000013          	nop
ffffffff8021d698:	00000013          	nop
ffffffff8021d69c:	00000013          	nop
ffffffff8021d6a0:	00000013          	nop
ffffffff8021d6a4:	00000013          	nop
ffffffff8021d6a8:	00000013          	nop
ffffffff8021d6ac:	00000013          	nop
ffffffff8021d6b0:	00000013          	nop
ffffffff8021d6b4:	00000013          	nop
ffffffff8021d6b8:	00000013          	nop
ffffffff8021d6bc:	00000013          	nop
ffffffff8021d6c0:	00000013          	nop
ffffffff8021d6c4:	00000013          	nop
ffffffff8021d6c8:	00000013          	nop
ffffffff8021d6cc:	00000013          	nop
ffffffff8021d6d0:	00000013          	nop
ffffffff8021d6d4:	00000013          	nop
ffffffff8021d6d8:	00000013          	nop
ffffffff8021d6dc:	00000013          	nop
ffffffff8021d6e0:	00000013          	nop
ffffffff8021d6e4:	00000013          	nop
ffffffff8021d6e8:	00000013          	nop
ffffffff8021d6ec:	00000013          	nop
ffffffff8021d6f0:	00000013          	nop
ffffffff8021d6f4:	00000013          	nop
ffffffff8021d6f8:	00000013          	nop
ffffffff8021d6fc:	00000013          	nop
ffffffff8021d700:	00000013          	nop
ffffffff8021d704:	00000013          	nop
ffffffff8021d708:	00000013          	nop
ffffffff8021d70c:	00000013          	nop
ffffffff8021d710:	00000013          	nop
ffffffff8021d714:	00000013          	nop
ffffffff8021d718:	00000013          	nop
ffffffff8021d71c:	00000013          	nop
ffffffff8021d720:	00000013          	nop
ffffffff8021d724:	00000013          	nop
ffffffff8021d728:	00000013          	nop
ffffffff8021d72c:	00000013          	nop
ffffffff8021d730:	00000013          	nop
ffffffff8021d734:	00000013          	nop
ffffffff8021d738:	00000013          	nop
ffffffff8021d73c:	00000013          	nop
ffffffff8021d740:	00000013          	nop
ffffffff8021d744:	00000013          	nop
ffffffff8021d748:	00000013          	nop
ffffffff8021d74c:	00000013          	nop
ffffffff8021d750:	00000013          	nop
ffffffff8021d754:	00000013          	nop
ffffffff8021d758:	00000013          	nop
ffffffff8021d75c:	00000013          	nop
ffffffff8021d760:	00000013          	nop
ffffffff8021d764:	00000013          	nop
ffffffff8021d768:	00000013          	nop
ffffffff8021d76c:	00000013          	nop
ffffffff8021d770:	00000013          	nop
ffffffff8021d774:	00000013          	nop
ffffffff8021d778:	00000013          	nop
ffffffff8021d77c:	00000013          	nop
ffffffff8021d780:	00000013          	nop
ffffffff8021d784:	00000013          	nop
ffffffff8021d788:	00000013          	nop
ffffffff8021d78c:	00000013          	nop
ffffffff8021d790:	00000013          	nop
ffffffff8021d794:	00000013          	nop
ffffffff8021d798:	00000013          	nop
ffffffff8021d79c:	00000013          	nop
ffffffff8021d7a0:	00000013          	nop
ffffffff8021d7a4:	00000013          	nop
ffffffff8021d7a8:	00000013          	nop
ffffffff8021d7ac:	00000013          	nop
ffffffff8021d7b0:	00000013          	nop
ffffffff8021d7b4:	00000013          	nop
ffffffff8021d7b8:	00000013          	nop
ffffffff8021d7bc:	00000013          	nop
ffffffff8021d7c0:	00000013          	nop
ffffffff8021d7c4:	00000013          	nop
ffffffff8021d7c8:	00000013          	nop
ffffffff8021d7cc:	00000013          	nop
ffffffff8021d7d0:	00000013          	nop
ffffffff8021d7d4:	00000013          	nop
ffffffff8021d7d8:	00000013          	nop
ffffffff8021d7dc:	00000013          	nop
ffffffff8021d7e0:	00000013          	nop
ffffffff8021d7e4:	00000013          	nop
ffffffff8021d7e8:	00000013          	nop
ffffffff8021d7ec:	00000013          	nop
ffffffff8021d7f0:	00000013          	nop
ffffffff8021d7f4:	00000013          	nop
ffffffff8021d7f8:	00000013          	nop
ffffffff8021d7fc:	00000013          	nop
ffffffff8021d800:	00000013          	nop
ffffffff8021d804:	00000013          	nop
ffffffff8021d808:	00000013          	nop
ffffffff8021d80c:	00000013          	nop
ffffffff8021d810:	00000013          	nop
ffffffff8021d814:	00000013          	nop
ffffffff8021d818:	00000013          	nop
ffffffff8021d81c:	00000013          	nop
ffffffff8021d820:	00000013          	nop
ffffffff8021d824:	00000013          	nop
ffffffff8021d828:	00000013          	nop
ffffffff8021d82c:	00000013          	nop
ffffffff8021d830:	00000013          	nop
ffffffff8021d834:	00000013          	nop
ffffffff8021d838:	00000013          	nop
ffffffff8021d83c:	00000013          	nop
ffffffff8021d840:	00000013          	nop
ffffffff8021d844:	00000013          	nop
ffffffff8021d848:	00000013          	nop
ffffffff8021d84c:	00000013          	nop
ffffffff8021d850:	00000013          	nop
ffffffff8021d854:	00000013          	nop
ffffffff8021d858:	00000013          	nop
ffffffff8021d85c:	00000013          	nop
ffffffff8021d860:	00000013          	nop
ffffffff8021d864:	00000013          	nop
ffffffff8021d868:	00000013          	nop
ffffffff8021d86c:	00000013          	nop
ffffffff8021d870:	00000013          	nop
ffffffff8021d874:	00000013          	nop
ffffffff8021d878:	00000013          	nop
ffffffff8021d87c:	00000013          	nop
ffffffff8021d880:	00000013          	nop
ffffffff8021d884:	00000013          	nop
ffffffff8021d888:	00000013          	nop
ffffffff8021d88c:	00000013          	nop
ffffffff8021d890:	00000013          	nop
ffffffff8021d894:	00000013          	nop
ffffffff8021d898:	00000013          	nop
ffffffff8021d89c:	00000013          	nop
ffffffff8021d8a0:	00000013          	nop
ffffffff8021d8a4:	00000013          	nop
ffffffff8021d8a8:	00000013          	nop
ffffffff8021d8ac:	00000013          	nop
ffffffff8021d8b0:	00000013          	nop
ffffffff8021d8b4:	00000013          	nop
ffffffff8021d8b8:	00000013          	nop
ffffffff8021d8bc:	00000013          	nop
ffffffff8021d8c0:	00000013          	nop
ffffffff8021d8c4:	00000013          	nop
ffffffff8021d8c8:	00000013          	nop
ffffffff8021d8cc:	00000013          	nop
ffffffff8021d8d0:	00000013          	nop
ffffffff8021d8d4:	00000013          	nop
ffffffff8021d8d8:	00000013          	nop
ffffffff8021d8dc:	00000013          	nop
ffffffff8021d8e0:	00000013          	nop
ffffffff8021d8e4:	00000013          	nop
ffffffff8021d8e8:	00000013          	nop
ffffffff8021d8ec:	00000013          	nop
ffffffff8021d8f0:	00000013          	nop
ffffffff8021d8f4:	00000013          	nop
ffffffff8021d8f8:	00000013          	nop
ffffffff8021d8fc:	00000013          	nop
ffffffff8021d900:	00000013          	nop
ffffffff8021d904:	00000013          	nop
ffffffff8021d908:	00000013          	nop
ffffffff8021d90c:	00000013          	nop
ffffffff8021d910:	00000013          	nop
ffffffff8021d914:	00000013          	nop
ffffffff8021d918:	00000013          	nop
ffffffff8021d91c:	00000013          	nop
ffffffff8021d920:	00000013          	nop
ffffffff8021d924:	00000013          	nop
ffffffff8021d928:	00000013          	nop
ffffffff8021d92c:	00000013          	nop
ffffffff8021d930:	00000013          	nop
ffffffff8021d934:	00000013          	nop
ffffffff8021d938:	00000013          	nop
ffffffff8021d93c:	00000013          	nop
ffffffff8021d940:	00000013          	nop
ffffffff8021d944:	00000013          	nop
ffffffff8021d948:	00000013          	nop
ffffffff8021d94c:	00000013          	nop
ffffffff8021d950:	00000013          	nop
ffffffff8021d954:	00000013          	nop
ffffffff8021d958:	00000013          	nop
ffffffff8021d95c:	00000013          	nop
ffffffff8021d960:	00000013          	nop
ffffffff8021d964:	00000013          	nop
ffffffff8021d968:	00000013          	nop
ffffffff8021d96c:	00000013          	nop
ffffffff8021d970:	00000013          	nop
ffffffff8021d974:	00000013          	nop
ffffffff8021d978:	00000013          	nop
ffffffff8021d97c:	00000013          	nop
ffffffff8021d980:	00000013          	nop
ffffffff8021d984:	00000013          	nop
ffffffff8021d988:	00000013          	nop
ffffffff8021d98c:	00000013          	nop
ffffffff8021d990:	00000013          	nop
ffffffff8021d994:	00000013          	nop
ffffffff8021d998:	00000013          	nop
ffffffff8021d99c:	00000013          	nop
ffffffff8021d9a0:	00000013          	nop
ffffffff8021d9a4:	00000013          	nop
ffffffff8021d9a8:	00000013          	nop
ffffffff8021d9ac:	00000013          	nop
ffffffff8021d9b0:	00000013          	nop
ffffffff8021d9b4:	00000013          	nop
ffffffff8021d9b8:	00000013          	nop
ffffffff8021d9bc:	00000013          	nop
ffffffff8021d9c0:	00000013          	nop
ffffffff8021d9c4:	00000013          	nop
ffffffff8021d9c8:	00000013          	nop
ffffffff8021d9cc:	00000013          	nop
ffffffff8021d9d0:	00000013          	nop
ffffffff8021d9d4:	00000013          	nop
ffffffff8021d9d8:	00000013          	nop
ffffffff8021d9dc:	00000013          	nop
ffffffff8021d9e0:	00000013          	nop
ffffffff8021d9e4:	00000013          	nop
ffffffff8021d9e8:	00000013          	nop
ffffffff8021d9ec:	00000013          	nop
ffffffff8021d9f0:	00000013          	nop
ffffffff8021d9f4:	00000013          	nop
ffffffff8021d9f8:	00000013          	nop
ffffffff8021d9fc:	00000013          	nop
ffffffff8021da00:	00000013          	nop
ffffffff8021da04:	00000013          	nop
ffffffff8021da08:	00000013          	nop
ffffffff8021da0c:	00000013          	nop
ffffffff8021da10:	00000013          	nop
ffffffff8021da14:	00000013          	nop
ffffffff8021da18:	00000013          	nop
ffffffff8021da1c:	00000013          	nop
ffffffff8021da20:	00000013          	nop
ffffffff8021da24:	00000013          	nop
ffffffff8021da28:	00000013          	nop
ffffffff8021da2c:	00000013          	nop
ffffffff8021da30:	00000013          	nop
ffffffff8021da34:	00000013          	nop
ffffffff8021da38:	00000013          	nop
ffffffff8021da3c:	00000013          	nop
ffffffff8021da40:	00000013          	nop
ffffffff8021da44:	00000013          	nop
ffffffff8021da48:	00000013          	nop
ffffffff8021da4c:	00000013          	nop
ffffffff8021da50:	00000013          	nop
ffffffff8021da54:	00000013          	nop
ffffffff8021da58:	00000013          	nop
ffffffff8021da5c:	00000013          	nop
ffffffff8021da60:	00000013          	nop
ffffffff8021da64:	00000013          	nop
ffffffff8021da68:	00000013          	nop
ffffffff8021da6c:	00000013          	nop
ffffffff8021da70:	00000013          	nop
ffffffff8021da74:	00000013          	nop
ffffffff8021da78:	00000013          	nop
ffffffff8021da7c:	00000013          	nop
ffffffff8021da80:	00000013          	nop
ffffffff8021da84:	00000013          	nop
ffffffff8021da88:	00000013          	nop
ffffffff8021da8c:	00000013          	nop
ffffffff8021da90:	00000013          	nop
ffffffff8021da94:	00000013          	nop
ffffffff8021da98:	00000013          	nop
ffffffff8021da9c:	00000013          	nop
ffffffff8021daa0:	00000013          	nop
ffffffff8021daa4:	00000013          	nop
ffffffff8021daa8:	00000013          	nop
ffffffff8021daac:	00000013          	nop
ffffffff8021dab0:	00000013          	nop
ffffffff8021dab4:	00000013          	nop
ffffffff8021dab8:	00000013          	nop
ffffffff8021dabc:	00000013          	nop
ffffffff8021dac0:	00000013          	nop
ffffffff8021dac4:	00000013          	nop
ffffffff8021dac8:	00000013          	nop
ffffffff8021dacc:	00000013          	nop
ffffffff8021dad0:	00000013          	nop
ffffffff8021dad4:	00000013          	nop
ffffffff8021dad8:	00000013          	nop
ffffffff8021dadc:	00000013          	nop
ffffffff8021dae0:	00000013          	nop
ffffffff8021dae4:	00000013          	nop
ffffffff8021dae8:	00000013          	nop
ffffffff8021daec:	00000013          	nop
ffffffff8021daf0:	00000013          	nop
ffffffff8021daf4:	00000013          	nop
ffffffff8021daf8:	00000013          	nop
ffffffff8021dafc:	00000013          	nop
ffffffff8021db00:	00000013          	nop
ffffffff8021db04:	00000013          	nop
ffffffff8021db08:	00000013          	nop
ffffffff8021db0c:	00000013          	nop
ffffffff8021db10:	00000013          	nop
ffffffff8021db14:	00000013          	nop
ffffffff8021db18:	00000013          	nop
ffffffff8021db1c:	00000013          	nop
ffffffff8021db20:	00000013          	nop
ffffffff8021db24:	00000013          	nop
ffffffff8021db28:	00000013          	nop
ffffffff8021db2c:	00000013          	nop
ffffffff8021db30:	00000013          	nop
ffffffff8021db34:	00000013          	nop
ffffffff8021db38:	00000013          	nop
ffffffff8021db3c:	00000013          	nop
ffffffff8021db40:	00000013          	nop
ffffffff8021db44:	00000013          	nop
ffffffff8021db48:	00000013          	nop
ffffffff8021db4c:	00000013          	nop
ffffffff8021db50:	00000013          	nop
ffffffff8021db54:	00000013          	nop
ffffffff8021db58:	00000013          	nop
ffffffff8021db5c:	00000013          	nop
ffffffff8021db60:	00000013          	nop
ffffffff8021db64:	00000013          	nop
ffffffff8021db68:	00000013          	nop
ffffffff8021db6c:	00000013          	nop
ffffffff8021db70:	00000013          	nop
ffffffff8021db74:	00000013          	nop
ffffffff8021db78:	00000013          	nop
ffffffff8021db7c:	00000013          	nop
ffffffff8021db80:	00000013          	nop
ffffffff8021db84:	00000013          	nop
ffffffff8021db88:	00000013          	nop
ffffffff8021db8c:	00000013          	nop
ffffffff8021db90:	00000013          	nop
ffffffff8021db94:	00000013          	nop
ffffffff8021db98:	00000013          	nop
ffffffff8021db9c:	00000013          	nop
ffffffff8021dba0:	00000013          	nop
ffffffff8021dba4:	00000013          	nop
ffffffff8021dba8:	00000013          	nop
ffffffff8021dbac:	00000013          	nop
ffffffff8021dbb0:	00000013          	nop
ffffffff8021dbb4:	00000013          	nop
ffffffff8021dbb8:	00000013          	nop
ffffffff8021dbbc:	00000013          	nop
ffffffff8021dbc0:	00000013          	nop
ffffffff8021dbc4:	00000013          	nop
ffffffff8021dbc8:	00000013          	nop
ffffffff8021dbcc:	00000013          	nop
ffffffff8021dbd0:	00000013          	nop
ffffffff8021dbd4:	00000013          	nop
ffffffff8021dbd8:	00000013          	nop
ffffffff8021dbdc:	00000013          	nop
ffffffff8021dbe0:	00000013          	nop
ffffffff8021dbe4:	00000013          	nop
ffffffff8021dbe8:	00000013          	nop
ffffffff8021dbec:	00000013          	nop
ffffffff8021dbf0:	00000013          	nop
ffffffff8021dbf4:	00000013          	nop
ffffffff8021dbf8:	00000013          	nop
ffffffff8021dbfc:	00000013          	nop
ffffffff8021dc00:	00000013          	nop
ffffffff8021dc04:	00000013          	nop
ffffffff8021dc08:	00000013          	nop
ffffffff8021dc0c:	00000013          	nop
ffffffff8021dc10:	00000013          	nop
ffffffff8021dc14:	00000013          	nop
ffffffff8021dc18:	00000013          	nop
ffffffff8021dc1c:	00000013          	nop
ffffffff8021dc20:	00000013          	nop
ffffffff8021dc24:	00000013          	nop
ffffffff8021dc28:	00000013          	nop
ffffffff8021dc2c:	00000013          	nop
ffffffff8021dc30:	00000013          	nop
ffffffff8021dc34:	00000013          	nop
ffffffff8021dc38:	00000013          	nop
ffffffff8021dc3c:	00000013          	nop
ffffffff8021dc40:	00000013          	nop
ffffffff8021dc44:	00000013          	nop
ffffffff8021dc48:	00000013          	nop
ffffffff8021dc4c:	00000013          	nop
ffffffff8021dc50:	00000013          	nop
ffffffff8021dc54:	00000013          	nop
ffffffff8021dc58:	00000013          	nop
ffffffff8021dc5c:	00000013          	nop
ffffffff8021dc60:	00000013          	nop
ffffffff8021dc64:	00000013          	nop
ffffffff8021dc68:	00000013          	nop
ffffffff8021dc6c:	00000013          	nop
ffffffff8021dc70:	00000013          	nop
ffffffff8021dc74:	00000013          	nop
ffffffff8021dc78:	00000013          	nop
ffffffff8021dc7c:	00000013          	nop
ffffffff8021dc80:	00000013          	nop
ffffffff8021dc84:	00000013          	nop
ffffffff8021dc88:	00000013          	nop
ffffffff8021dc8c:	00000013          	nop
ffffffff8021dc90:	00000013          	nop
ffffffff8021dc94:	00000013          	nop
ffffffff8021dc98:	00000013          	nop
ffffffff8021dc9c:	00000013          	nop
ffffffff8021dca0:	00000013          	nop
ffffffff8021dca4:	00000013          	nop
ffffffff8021dca8:	00000013          	nop
ffffffff8021dcac:	00000013          	nop
ffffffff8021dcb0:	00000013          	nop
ffffffff8021dcb4:	00000013          	nop
ffffffff8021dcb8:	00000013          	nop
ffffffff8021dcbc:	00000013          	nop
ffffffff8021dcc0:	00000013          	nop
ffffffff8021dcc4:	00000013          	nop
ffffffff8021dcc8:	00000013          	nop
ffffffff8021dccc:	00000013          	nop
ffffffff8021dcd0:	00000013          	nop
ffffffff8021dcd4:	00000013          	nop
ffffffff8021dcd8:	00000013          	nop
ffffffff8021dcdc:	00000013          	nop
ffffffff8021dce0:	00000013          	nop
ffffffff8021dce4:	00000013          	nop
ffffffff8021dce8:	00000013          	nop
ffffffff8021dcec:	00000013          	nop
ffffffff8021dcf0:	00000013          	nop
ffffffff8021dcf4:	00000013          	nop
ffffffff8021dcf8:	00000013          	nop
ffffffff8021dcfc:	00000013          	nop
ffffffff8021dd00:	00000013          	nop
ffffffff8021dd04:	00000013          	nop
ffffffff8021dd08:	00000013          	nop
ffffffff8021dd0c:	00000013          	nop
ffffffff8021dd10:	00000013          	nop
ffffffff8021dd14:	00000013          	nop
ffffffff8021dd18:	00000013          	nop
ffffffff8021dd1c:	00000013          	nop
ffffffff8021dd20:	00000013          	nop
ffffffff8021dd24:	00000013          	nop
ffffffff8021dd28:	00000013          	nop
ffffffff8021dd2c:	00000013          	nop
ffffffff8021dd30:	00000013          	nop
ffffffff8021dd34:	00000013          	nop
ffffffff8021dd38:	00000013          	nop
ffffffff8021dd3c:	00000013          	nop
ffffffff8021dd40:	00000013          	nop
ffffffff8021dd44:	00000013          	nop
ffffffff8021dd48:	00000013          	nop
ffffffff8021dd4c:	00000013          	nop
ffffffff8021dd50:	00000013          	nop
ffffffff8021dd54:	00000013          	nop
ffffffff8021dd58:	00000013          	nop
ffffffff8021dd5c:	00000013          	nop
ffffffff8021dd60:	00000013          	nop
ffffffff8021dd64:	00000013          	nop
ffffffff8021dd68:	00000013          	nop
ffffffff8021dd6c:	00000013          	nop
ffffffff8021dd70:	00000013          	nop
ffffffff8021dd74:	00000013          	nop
ffffffff8021dd78:	00000013          	nop
ffffffff8021dd7c:	00000013          	nop
ffffffff8021dd80:	00000013          	nop
ffffffff8021dd84:	00000013          	nop
ffffffff8021dd88:	00000013          	nop
ffffffff8021dd8c:	00000013          	nop
ffffffff8021dd90:	00000013          	nop
ffffffff8021dd94:	00000013          	nop
ffffffff8021dd98:	00000013          	nop
ffffffff8021dd9c:	00000013          	nop
ffffffff8021dda0:	00000013          	nop
ffffffff8021dda4:	00000013          	nop
ffffffff8021dda8:	00000013          	nop
ffffffff8021ddac:	00000013          	nop
ffffffff8021ddb0:	00000013          	nop
ffffffff8021ddb4:	00000013          	nop
ffffffff8021ddb8:	00000013          	nop
ffffffff8021ddbc:	00000013          	nop
ffffffff8021ddc0:	00000013          	nop
ffffffff8021ddc4:	00000013          	nop
ffffffff8021ddc8:	00000013          	nop
ffffffff8021ddcc:	00000013          	nop
ffffffff8021ddd0:	00000013          	nop
ffffffff8021ddd4:	00000013          	nop
ffffffff8021ddd8:	00000013          	nop
ffffffff8021dddc:	00000013          	nop
ffffffff8021dde0:	00000013          	nop
ffffffff8021dde4:	00000013          	nop
ffffffff8021dde8:	00000013          	nop
ffffffff8021ddec:	00000013          	nop
ffffffff8021ddf0:	00000013          	nop
ffffffff8021ddf4:	00000013          	nop
ffffffff8021ddf8:	00000013          	nop
ffffffff8021ddfc:	00000013          	nop
ffffffff8021de00:	00000013          	nop
ffffffff8021de04:	00000013          	nop
ffffffff8021de08:	00000013          	nop
ffffffff8021de0c:	00000013          	nop
ffffffff8021de10:	00000013          	nop
ffffffff8021de14:	00000013          	nop
ffffffff8021de18:	00000013          	nop
ffffffff8021de1c:	00000013          	nop
ffffffff8021de20:	00000013          	nop
ffffffff8021de24:	00000013          	nop
ffffffff8021de28:	00000013          	nop
ffffffff8021de2c:	00000013          	nop
ffffffff8021de30:	00000013          	nop
ffffffff8021de34:	00000013          	nop
ffffffff8021de38:	00000013          	nop
ffffffff8021de3c:	00000013          	nop
ffffffff8021de40:	00000013          	nop
ffffffff8021de44:	00000013          	nop
ffffffff8021de48:	00000013          	nop
ffffffff8021de4c:	00000013          	nop
ffffffff8021de50:	00000013          	nop
ffffffff8021de54:	00000013          	nop
ffffffff8021de58:	00000013          	nop
ffffffff8021de5c:	00000013          	nop
ffffffff8021de60:	00000013          	nop
ffffffff8021de64:	00000013          	nop
ffffffff8021de68:	00000013          	nop
ffffffff8021de6c:	00000013          	nop
ffffffff8021de70:	00000013          	nop
ffffffff8021de74:	00000013          	nop
ffffffff8021de78:	00000013          	nop
ffffffff8021de7c:	00000013          	nop
ffffffff8021de80:	00000013          	nop
ffffffff8021de84:	00000013          	nop
ffffffff8021de88:	00000013          	nop
ffffffff8021de8c:	00000013          	nop
ffffffff8021de90:	00000013          	nop
ffffffff8021de94:	00000013          	nop
ffffffff8021de98:	00000013          	nop
ffffffff8021de9c:	00000013          	nop
ffffffff8021dea0:	00000013          	nop
ffffffff8021dea4:	00000013          	nop
ffffffff8021dea8:	00000013          	nop
ffffffff8021deac:	00000013          	nop
ffffffff8021deb0:	00000013          	nop
ffffffff8021deb4:	00000013          	nop
ffffffff8021deb8:	00000013          	nop
ffffffff8021debc:	00000013          	nop
ffffffff8021dec0:	00000013          	nop
ffffffff8021dec4:	00000013          	nop
ffffffff8021dec8:	00000013          	nop
ffffffff8021decc:	00000013          	nop
ffffffff8021ded0:	00000013          	nop
ffffffff8021ded4:	00000013          	nop
ffffffff8021ded8:	00000013          	nop
ffffffff8021dedc:	00000013          	nop
ffffffff8021dee0:	00000013          	nop
ffffffff8021dee4:	00000013          	nop
ffffffff8021dee8:	00000013          	nop
ffffffff8021deec:	00000013          	nop
ffffffff8021def0:	00000013          	nop
ffffffff8021def4:	00000013          	nop
ffffffff8021def8:	00000013          	nop
ffffffff8021defc:	00000013          	nop
ffffffff8021df00:	00000013          	nop
ffffffff8021df04:	00000013          	nop
ffffffff8021df08:	00000013          	nop
ffffffff8021df0c:	00000013          	nop
ffffffff8021df10:	00000013          	nop
ffffffff8021df14:	00000013          	nop
ffffffff8021df18:	00000013          	nop
ffffffff8021df1c:	00000013          	nop
ffffffff8021df20:	00000013          	nop
ffffffff8021df24:	00000013          	nop
ffffffff8021df28:	00000013          	nop
ffffffff8021df2c:	00000013          	nop
ffffffff8021df30:	00000013          	nop
ffffffff8021df34:	00000013          	nop
ffffffff8021df38:	00000013          	nop
ffffffff8021df3c:	00000013          	nop
ffffffff8021df40:	00000013          	nop
ffffffff8021df44:	00000013          	nop
ffffffff8021df48:	00000013          	nop
ffffffff8021df4c:	00000013          	nop
ffffffff8021df50:	00000013          	nop
ffffffff8021df54:	00000013          	nop
ffffffff8021df58:	00000013          	nop
ffffffff8021df5c:	00000013          	nop
ffffffff8021df60:	00000013          	nop
ffffffff8021df64:	00000013          	nop
ffffffff8021df68:	00000013          	nop
ffffffff8021df6c:	00000013          	nop
ffffffff8021df70:	00000013          	nop
ffffffff8021df74:	00000013          	nop
ffffffff8021df78:	00000013          	nop
ffffffff8021df7c:	00000013          	nop
ffffffff8021df80:	00000013          	nop
ffffffff8021df84:	00000013          	nop
ffffffff8021df88:	00000013          	nop
ffffffff8021df8c:	00000013          	nop
ffffffff8021df90:	00000013          	nop
ffffffff8021df94:	00000013          	nop
ffffffff8021df98:	00000013          	nop
ffffffff8021df9c:	00000013          	nop
ffffffff8021dfa0:	00000013          	nop
ffffffff8021dfa4:	00000013          	nop
ffffffff8021dfa8:	00000013          	nop
ffffffff8021dfac:	00000013          	nop
ffffffff8021dfb0:	00000013          	nop
ffffffff8021dfb4:	00000013          	nop
ffffffff8021dfb8:	00000013          	nop
ffffffff8021dfbc:	00000013          	nop
ffffffff8021dfc0:	00000013          	nop
ffffffff8021dfc4:	00000013          	nop
ffffffff8021dfc8:	00000013          	nop
ffffffff8021dfcc:	00000013          	nop
ffffffff8021dfd0:	00000013          	nop
ffffffff8021dfd4:	00000013          	nop
ffffffff8021dfd8:	00000013          	nop
ffffffff8021dfdc:	00000013          	nop
ffffffff8021dfe0:	00000013          	nop
ffffffff8021dfe4:	00000013          	nop
ffffffff8021dfe8:	00000013          	nop
ffffffff8021dfec:	00000013          	nop
ffffffff8021dff0:	00000013          	nop
ffffffff8021dff4:	00000013          	nop
ffffffff8021dff8:	00000013          	nop
ffffffff8021dffc:	00000013          	nop
ffffffff8021e000:	00000013          	nop
ffffffff8021e004:	00000013          	nop
ffffffff8021e008:	00000013          	nop
ffffffff8021e00c:	00000013          	nop
ffffffff8021e010:	00000013          	nop
ffffffff8021e014:	00000013          	nop
ffffffff8021e018:	00000013          	nop
ffffffff8021e01c:	00000013          	nop
ffffffff8021e020:	00000013          	nop
ffffffff8021e024:	00000013          	nop
ffffffff8021e028:	00000013          	nop
ffffffff8021e02c:	00000013          	nop
ffffffff8021e030:	00000013          	nop
ffffffff8021e034:	00000013          	nop
ffffffff8021e038:	00000013          	nop
ffffffff8021e03c:	00000013          	nop
ffffffff8021e040:	00000013          	nop
ffffffff8021e044:	00000013          	nop
ffffffff8021e048:	00000013          	nop
ffffffff8021e04c:	00000013          	nop
ffffffff8021e050:	00000013          	nop
ffffffff8021e054:	00000013          	nop
ffffffff8021e058:	00000013          	nop
ffffffff8021e05c:	00000013          	nop
ffffffff8021e060:	00000013          	nop
ffffffff8021e064:	00000013          	nop
ffffffff8021e068:	00000013          	nop
ffffffff8021e06c:	00000013          	nop
ffffffff8021e070:	00000013          	nop
ffffffff8021e074:	00000013          	nop
ffffffff8021e078:	00000013          	nop
ffffffff8021e07c:	00000013          	nop
ffffffff8021e080:	00000013          	nop
ffffffff8021e084:	00000013          	nop
ffffffff8021e088:	00000013          	nop
ffffffff8021e08c:	00000013          	nop
ffffffff8021e090:	00000013          	nop
ffffffff8021e094:	00000013          	nop
ffffffff8021e098:	00000013          	nop
ffffffff8021e09c:	00000013          	nop
ffffffff8021e0a0:	00000013          	nop
ffffffff8021e0a4:	00000013          	nop
ffffffff8021e0a8:	00000013          	nop
ffffffff8021e0ac:	00000013          	nop
ffffffff8021e0b0:	00000013          	nop
ffffffff8021e0b4:	00000013          	nop
ffffffff8021e0b8:	00000013          	nop
ffffffff8021e0bc:	00000013          	nop
ffffffff8021e0c0:	00000013          	nop
ffffffff8021e0c4:	00000013          	nop
ffffffff8021e0c8:	00000013          	nop
ffffffff8021e0cc:	00000013          	nop
ffffffff8021e0d0:	00000013          	nop
ffffffff8021e0d4:	00000013          	nop
ffffffff8021e0d8:	00000013          	nop
ffffffff8021e0dc:	00000013          	nop
ffffffff8021e0e0:	00000013          	nop
ffffffff8021e0e4:	00000013          	nop
ffffffff8021e0e8:	00000013          	nop
ffffffff8021e0ec:	00000013          	nop
ffffffff8021e0f0:	00000013          	nop
ffffffff8021e0f4:	00000013          	nop
ffffffff8021e0f8:	00000013          	nop
ffffffff8021e0fc:	00000013          	nop
ffffffff8021e100:	00000013          	nop
ffffffff8021e104:	00000013          	nop
ffffffff8021e108:	00000013          	nop
ffffffff8021e10c:	00000013          	nop
ffffffff8021e110:	00000013          	nop
ffffffff8021e114:	00000013          	nop
ffffffff8021e118:	00000013          	nop
ffffffff8021e11c:	00000013          	nop
ffffffff8021e120:	00000013          	nop
ffffffff8021e124:	00000013          	nop
ffffffff8021e128:	00000013          	nop
ffffffff8021e12c:	00000013          	nop
ffffffff8021e130:	00000013          	nop
ffffffff8021e134:	00000013          	nop
ffffffff8021e138:	00000013          	nop
ffffffff8021e13c:	00000013          	nop
ffffffff8021e140:	00000013          	nop
ffffffff8021e144:	00000013          	nop
ffffffff8021e148:	00000013          	nop
ffffffff8021e14c:	00000013          	nop
ffffffff8021e150:	00000013          	nop
ffffffff8021e154:	00000013          	nop
ffffffff8021e158:	00000013          	nop
ffffffff8021e15c:	00000013          	nop
ffffffff8021e160:	00000013          	nop
ffffffff8021e164:	00000013          	nop
ffffffff8021e168:	00000013          	nop
ffffffff8021e16c:	00000013          	nop
ffffffff8021e170:	00000013          	nop
ffffffff8021e174:	00000013          	nop
ffffffff8021e178:	00000013          	nop
ffffffff8021e17c:	00000013          	nop
ffffffff8021e180:	00000013          	nop
ffffffff8021e184:	00000013          	nop
ffffffff8021e188:	00000013          	nop
ffffffff8021e18c:	00000013          	nop
ffffffff8021e190:	00000013          	nop
ffffffff8021e194:	00000013          	nop
ffffffff8021e198:	00000013          	nop
ffffffff8021e19c:	00000013          	nop
ffffffff8021e1a0:	00000013          	nop
ffffffff8021e1a4:	00000013          	nop
ffffffff8021e1a8:	00000013          	nop
ffffffff8021e1ac:	00000013          	nop
ffffffff8021e1b0:	00000013          	nop
ffffffff8021e1b4:	00000013          	nop
ffffffff8021e1b8:	00000013          	nop
ffffffff8021e1bc:	00000013          	nop
ffffffff8021e1c0:	00000013          	nop
ffffffff8021e1c4:	00000013          	nop
ffffffff8021e1c8:	00000013          	nop
ffffffff8021e1cc:	00000013          	nop
ffffffff8021e1d0:	00000013          	nop
ffffffff8021e1d4:	00000013          	nop
ffffffff8021e1d8:	00000013          	nop
ffffffff8021e1dc:	00000013          	nop
ffffffff8021e1e0:	00000013          	nop
ffffffff8021e1e4:	00000013          	nop
ffffffff8021e1e8:	00000013          	nop
ffffffff8021e1ec:	00000013          	nop
ffffffff8021e1f0:	00000013          	nop
ffffffff8021e1f4:	00000013          	nop
ffffffff8021e1f8:	00000013          	nop
ffffffff8021e1fc:	00000013          	nop
ffffffff8021e200:	00000013          	nop
ffffffff8021e204:	00000013          	nop
ffffffff8021e208:	00000013          	nop
ffffffff8021e20c:	00000013          	nop
ffffffff8021e210:	00000013          	nop
ffffffff8021e214:	00000013          	nop
ffffffff8021e218:	00000013          	nop
ffffffff8021e21c:	00000013          	nop
ffffffff8021e220:	00000013          	nop
ffffffff8021e224:	00000013          	nop
ffffffff8021e228:	00000013          	nop
ffffffff8021e22c:	00000013          	nop
ffffffff8021e230:	00000013          	nop
ffffffff8021e234:	00000013          	nop
ffffffff8021e238:	00000013          	nop
ffffffff8021e23c:	00000013          	nop
ffffffff8021e240:	00000013          	nop
ffffffff8021e244:	00000013          	nop
ffffffff8021e248:	00000013          	nop
ffffffff8021e24c:	00000013          	nop
ffffffff8021e250:	00000013          	nop
ffffffff8021e254:	00000013          	nop
ffffffff8021e258:	00000013          	nop
ffffffff8021e25c:	00000013          	nop
ffffffff8021e260:	00000013          	nop
ffffffff8021e264:	00000013          	nop
ffffffff8021e268:	00000013          	nop
ffffffff8021e26c:	00000013          	nop
ffffffff8021e270:	00000013          	nop
ffffffff8021e274:	00000013          	nop
ffffffff8021e278:	00000013          	nop
ffffffff8021e27c:	00000013          	nop
ffffffff8021e280:	00000013          	nop
ffffffff8021e284:	00000013          	nop
ffffffff8021e288:	00000013          	nop
ffffffff8021e28c:	00000013          	nop
ffffffff8021e290:	00000013          	nop
ffffffff8021e294:	00000013          	nop
ffffffff8021e298:	00000013          	nop
ffffffff8021e29c:	00000013          	nop
ffffffff8021e2a0:	00000013          	nop
ffffffff8021e2a4:	00000013          	nop
ffffffff8021e2a8:	00000013          	nop
ffffffff8021e2ac:	00000013          	nop
ffffffff8021e2b0:	00000013          	nop
ffffffff8021e2b4:	00000013          	nop
ffffffff8021e2b8:	00000013          	nop
ffffffff8021e2bc:	00000013          	nop
ffffffff8021e2c0:	00000013          	nop
ffffffff8021e2c4:	00000013          	nop
ffffffff8021e2c8:	00000013          	nop
ffffffff8021e2cc:	00000013          	nop
ffffffff8021e2d0:	00000013          	nop
ffffffff8021e2d4:	00000013          	nop
ffffffff8021e2d8:	00000013          	nop
ffffffff8021e2dc:	00000013          	nop
ffffffff8021e2e0:	00000013          	nop
ffffffff8021e2e4:	00000013          	nop
ffffffff8021e2e8:	00000013          	nop
ffffffff8021e2ec:	00000013          	nop
ffffffff8021e2f0:	00000013          	nop
ffffffff8021e2f4:	00000013          	nop
ffffffff8021e2f8:	00000013          	nop
ffffffff8021e2fc:	00000013          	nop
ffffffff8021e300:	00000013          	nop
ffffffff8021e304:	00000013          	nop
ffffffff8021e308:	00000013          	nop
ffffffff8021e30c:	00000013          	nop
ffffffff8021e310:	00000013          	nop
ffffffff8021e314:	00000013          	nop
ffffffff8021e318:	00000013          	nop
ffffffff8021e31c:	00000013          	nop
ffffffff8021e320:	00000013          	nop
ffffffff8021e324:	00000013          	nop
ffffffff8021e328:	00000013          	nop
ffffffff8021e32c:	00000013          	nop
ffffffff8021e330:	00000013          	nop
ffffffff8021e334:	00000013          	nop
ffffffff8021e338:	00000013          	nop
ffffffff8021e33c:	00000013          	nop
ffffffff8021e340:	00000013          	nop
ffffffff8021e344:	00000013          	nop
ffffffff8021e348:	00000013          	nop
ffffffff8021e34c:	00000013          	nop
ffffffff8021e350:	00000013          	nop
ffffffff8021e354:	00000013          	nop
ffffffff8021e358:	00000013          	nop
ffffffff8021e35c:	00000013          	nop
ffffffff8021e360:	00000013          	nop
ffffffff8021e364:	00000013          	nop
ffffffff8021e368:	00000013          	nop
ffffffff8021e36c:	00000013          	nop
ffffffff8021e370:	00000013          	nop
ffffffff8021e374:	00000013          	nop
ffffffff8021e378:	00000013          	nop
ffffffff8021e37c:	00000013          	nop
ffffffff8021e380:	00000013          	nop
ffffffff8021e384:	00000013          	nop
ffffffff8021e388:	00000013          	nop
ffffffff8021e38c:	00000013          	nop
ffffffff8021e390:	00000013          	nop
ffffffff8021e394:	00000013          	nop
ffffffff8021e398:	00000013          	nop
ffffffff8021e39c:	00000013          	nop
ffffffff8021e3a0:	00000013          	nop
ffffffff8021e3a4:	00000013          	nop
ffffffff8021e3a8:	00000013          	nop
ffffffff8021e3ac:	00000013          	nop
ffffffff8021e3b0:	00000013          	nop
ffffffff8021e3b4:	00000013          	nop
ffffffff8021e3b8:	00000013          	nop
ffffffff8021e3bc:	00000013          	nop
ffffffff8021e3c0:	00000013          	nop
ffffffff8021e3c4:	00000013          	nop
ffffffff8021e3c8:	00000013          	nop
ffffffff8021e3cc:	00000013          	nop
ffffffff8021e3d0:	00000013          	nop
ffffffff8021e3d4:	00000013          	nop
ffffffff8021e3d8:	00000013          	nop
ffffffff8021e3dc:	00000013          	nop
ffffffff8021e3e0:	00000013          	nop
ffffffff8021e3e4:	00000013          	nop
ffffffff8021e3e8:	00000013          	nop
ffffffff8021e3ec:	00000013          	nop
ffffffff8021e3f0:	00000013          	nop
ffffffff8021e3f4:	00000013          	nop
ffffffff8021e3f8:	00000013          	nop
ffffffff8021e3fc:	00000013          	nop
ffffffff8021e400:	00000013          	nop
ffffffff8021e404:	00000013          	nop
ffffffff8021e408:	00000013          	nop
ffffffff8021e40c:	00000013          	nop
ffffffff8021e410:	00000013          	nop
ffffffff8021e414:	00000013          	nop
ffffffff8021e418:	00000013          	nop
ffffffff8021e41c:	00000013          	nop
ffffffff8021e420:	00000013          	nop
ffffffff8021e424:	00000013          	nop
ffffffff8021e428:	00000013          	nop
ffffffff8021e42c:	00000013          	nop
ffffffff8021e430:	00000013          	nop
ffffffff8021e434:	00000013          	nop
ffffffff8021e438:	00000013          	nop
ffffffff8021e43c:	00000013          	nop
ffffffff8021e440:	00000013          	nop
ffffffff8021e444:	00000013          	nop
ffffffff8021e448:	00000013          	nop
ffffffff8021e44c:	00000013          	nop
ffffffff8021e450:	00000013          	nop
ffffffff8021e454:	00000013          	nop
ffffffff8021e458:	00000013          	nop
ffffffff8021e45c:	00000013          	nop
ffffffff8021e460:	00000013          	nop
ffffffff8021e464:	00000013          	nop
ffffffff8021e468:	00000013          	nop
ffffffff8021e46c:	00000013          	nop
ffffffff8021e470:	00000013          	nop
ffffffff8021e474:	00000013          	nop
ffffffff8021e478:	00000013          	nop
ffffffff8021e47c:	00000013          	nop
ffffffff8021e480:	00000013          	nop
ffffffff8021e484:	00000013          	nop
ffffffff8021e488:	00000013          	nop
ffffffff8021e48c:	00000013          	nop
ffffffff8021e490:	00000013          	nop
ffffffff8021e494:	00000013          	nop
ffffffff8021e498:	00000013          	nop
ffffffff8021e49c:	00000013          	nop
ffffffff8021e4a0:	00000013          	nop
ffffffff8021e4a4:	00000013          	nop
ffffffff8021e4a8:	00000013          	nop
ffffffff8021e4ac:	00000013          	nop
ffffffff8021e4b0:	00000013          	nop
ffffffff8021e4b4:	00000013          	nop
ffffffff8021e4b8:	00000013          	nop
ffffffff8021e4bc:	00000013          	nop
ffffffff8021e4c0:	00000013          	nop
ffffffff8021e4c4:	00000013          	nop
ffffffff8021e4c8:	00000013          	nop
ffffffff8021e4cc:	00000013          	nop
ffffffff8021e4d0:	00000013          	nop
ffffffff8021e4d4:	00000013          	nop
ffffffff8021e4d8:	00000013          	nop
ffffffff8021e4dc:	00000013          	nop
ffffffff8021e4e0:	00000013          	nop
ffffffff8021e4e4:	00000013          	nop
ffffffff8021e4e8:	00000013          	nop
ffffffff8021e4ec:	00000013          	nop
ffffffff8021e4f0:	00000013          	nop
ffffffff8021e4f4:	00000013          	nop
ffffffff8021e4f8:	00000013          	nop
ffffffff8021e4fc:	00000013          	nop
ffffffff8021e500:	00000013          	nop
ffffffff8021e504:	00000013          	nop
ffffffff8021e508:	00000013          	nop
ffffffff8021e50c:	00000013          	nop
ffffffff8021e510:	00000013          	nop
ffffffff8021e514:	00000013          	nop
ffffffff8021e518:	00000013          	nop
ffffffff8021e51c:	00000013          	nop
ffffffff8021e520:	00000013          	nop
ffffffff8021e524:	00000013          	nop
ffffffff8021e528:	00000013          	nop
ffffffff8021e52c:	00000013          	nop
ffffffff8021e530:	00000013          	nop
ffffffff8021e534:	00000013          	nop
ffffffff8021e538:	00000013          	nop
ffffffff8021e53c:	00000013          	nop
ffffffff8021e540:	00000013          	nop
ffffffff8021e544:	00000013          	nop
ffffffff8021e548:	00000013          	nop
ffffffff8021e54c:	00000013          	nop
ffffffff8021e550:	00000013          	nop
ffffffff8021e554:	00000013          	nop
ffffffff8021e558:	00000013          	nop
ffffffff8021e55c:	00000013          	nop
ffffffff8021e560:	00000013          	nop
ffffffff8021e564:	00000013          	nop
ffffffff8021e568:	00000013          	nop
ffffffff8021e56c:	00000013          	nop
ffffffff8021e570:	00000013          	nop
ffffffff8021e574:	00000013          	nop
ffffffff8021e578:	00000013          	nop
ffffffff8021e57c:	00000013          	nop
ffffffff8021e580:	00000013          	nop
ffffffff8021e584:	00000013          	nop
ffffffff8021e588:	00000013          	nop
ffffffff8021e58c:	00000013          	nop
ffffffff8021e590:	00000013          	nop
ffffffff8021e594:	00000013          	nop
ffffffff8021e598:	00000013          	nop
ffffffff8021e59c:	00000013          	nop
ffffffff8021e5a0:	00000013          	nop
ffffffff8021e5a4:	00000013          	nop
ffffffff8021e5a8:	00000013          	nop
ffffffff8021e5ac:	00000013          	nop
ffffffff8021e5b0:	00000013          	nop
ffffffff8021e5b4:	00000013          	nop
ffffffff8021e5b8:	00000013          	nop
ffffffff8021e5bc:	00000013          	nop
ffffffff8021e5c0:	00000013          	nop
ffffffff8021e5c4:	00000013          	nop
ffffffff8021e5c8:	00000013          	nop
ffffffff8021e5cc:	00000013          	nop
ffffffff8021e5d0:	00000013          	nop
ffffffff8021e5d4:	00000013          	nop
ffffffff8021e5d8:	00000013          	nop
ffffffff8021e5dc:	00000013          	nop
ffffffff8021e5e0:	00000013          	nop
ffffffff8021e5e4:	00000013          	nop
ffffffff8021e5e8:	00000013          	nop
ffffffff8021e5ec:	00000013          	nop
ffffffff8021e5f0:	00000013          	nop
ffffffff8021e5f4:	00000013          	nop
ffffffff8021e5f8:	00000013          	nop
ffffffff8021e5fc:	00000013          	nop
ffffffff8021e600:	00000013          	nop
ffffffff8021e604:	00000013          	nop
ffffffff8021e608:	00000013          	nop
ffffffff8021e60c:	00000013          	nop
ffffffff8021e610:	00000013          	nop
ffffffff8021e614:	00000013          	nop
ffffffff8021e618:	00000013          	nop
ffffffff8021e61c:	00000013          	nop
ffffffff8021e620:	00000013          	nop
ffffffff8021e624:	00000013          	nop
ffffffff8021e628:	00000013          	nop
ffffffff8021e62c:	00000013          	nop
ffffffff8021e630:	00000013          	nop
ffffffff8021e634:	00000013          	nop
ffffffff8021e638:	00000013          	nop
ffffffff8021e63c:	00000013          	nop
ffffffff8021e640:	00000013          	nop
ffffffff8021e644:	00000013          	nop
ffffffff8021e648:	00000013          	nop
ffffffff8021e64c:	00000013          	nop
ffffffff8021e650:	00000013          	nop
ffffffff8021e654:	00000013          	nop
ffffffff8021e658:	00000013          	nop
ffffffff8021e65c:	00000013          	nop
ffffffff8021e660:	00000013          	nop
ffffffff8021e664:	00000013          	nop
ffffffff8021e668:	00000013          	nop
ffffffff8021e66c:	00000013          	nop
ffffffff8021e670:	00000013          	nop
ffffffff8021e674:	00000013          	nop
ffffffff8021e678:	00000013          	nop
ffffffff8021e67c:	00000013          	nop
ffffffff8021e680:	00000013          	nop
ffffffff8021e684:	00000013          	nop
ffffffff8021e688:	00000013          	nop
ffffffff8021e68c:	00000013          	nop
ffffffff8021e690:	00000013          	nop
ffffffff8021e694:	00000013          	nop
ffffffff8021e698:	00000013          	nop
ffffffff8021e69c:	00000013          	nop
ffffffff8021e6a0:	00000013          	nop
ffffffff8021e6a4:	00000013          	nop
ffffffff8021e6a8:	00000013          	nop
ffffffff8021e6ac:	00000013          	nop
ffffffff8021e6b0:	00000013          	nop
ffffffff8021e6b4:	00000013          	nop
ffffffff8021e6b8:	00000013          	nop
ffffffff8021e6bc:	00000013          	nop
ffffffff8021e6c0:	00000013          	nop
ffffffff8021e6c4:	00000013          	nop
ffffffff8021e6c8:	00000013          	nop
ffffffff8021e6cc:	00000013          	nop
ffffffff8021e6d0:	00000013          	nop
ffffffff8021e6d4:	00000013          	nop
ffffffff8021e6d8:	00000013          	nop
ffffffff8021e6dc:	00000013          	nop
ffffffff8021e6e0:	00000013          	nop
ffffffff8021e6e4:	00000013          	nop
ffffffff8021e6e8:	00000013          	nop
ffffffff8021e6ec:	00000013          	nop
ffffffff8021e6f0:	00000013          	nop
ffffffff8021e6f4:	00000013          	nop
ffffffff8021e6f8:	00000013          	nop
ffffffff8021e6fc:	00000013          	nop
ffffffff8021e700:	00000013          	nop
ffffffff8021e704:	00000013          	nop
ffffffff8021e708:	00000013          	nop
ffffffff8021e70c:	00000013          	nop
ffffffff8021e710:	00000013          	nop
ffffffff8021e714:	00000013          	nop
ffffffff8021e718:	00000013          	nop
ffffffff8021e71c:	00000013          	nop
ffffffff8021e720:	00000013          	nop
ffffffff8021e724:	00000013          	nop
ffffffff8021e728:	00000013          	nop
ffffffff8021e72c:	00000013          	nop
ffffffff8021e730:	00000013          	nop
ffffffff8021e734:	00000013          	nop
ffffffff8021e738:	00000013          	nop
ffffffff8021e73c:	00000013          	nop
ffffffff8021e740:	00000013          	nop
ffffffff8021e744:	00000013          	nop
ffffffff8021e748:	00000013          	nop
ffffffff8021e74c:	00000013          	nop
ffffffff8021e750:	00000013          	nop
ffffffff8021e754:	00000013          	nop
ffffffff8021e758:	00000013          	nop
ffffffff8021e75c:	00000013          	nop
ffffffff8021e760:	00000013          	nop
ffffffff8021e764:	00000013          	nop
ffffffff8021e768:	00000013          	nop
ffffffff8021e76c:	00000013          	nop
ffffffff8021e770:	00000013          	nop
ffffffff8021e774:	00000013          	nop
ffffffff8021e778:	00000013          	nop
ffffffff8021e77c:	00000013          	nop
ffffffff8021e780:	00000013          	nop
ffffffff8021e784:	00000013          	nop
ffffffff8021e788:	00000013          	nop
ffffffff8021e78c:	00000013          	nop
ffffffff8021e790:	00000013          	nop
ffffffff8021e794:	00000013          	nop
ffffffff8021e798:	00000013          	nop
ffffffff8021e79c:	00000013          	nop
ffffffff8021e7a0:	00000013          	nop
ffffffff8021e7a4:	00000013          	nop
ffffffff8021e7a8:	00000013          	nop
ffffffff8021e7ac:	00000013          	nop
ffffffff8021e7b0:	00000013          	nop
ffffffff8021e7b4:	00000013          	nop
ffffffff8021e7b8:	00000013          	nop
ffffffff8021e7bc:	00000013          	nop
ffffffff8021e7c0:	00000013          	nop
ffffffff8021e7c4:	00000013          	nop
ffffffff8021e7c8:	00000013          	nop
ffffffff8021e7cc:	00000013          	nop
ffffffff8021e7d0:	00000013          	nop
ffffffff8021e7d4:	00000013          	nop
ffffffff8021e7d8:	00000013          	nop
ffffffff8021e7dc:	00000013          	nop
ffffffff8021e7e0:	00000013          	nop
ffffffff8021e7e4:	00000013          	nop
ffffffff8021e7e8:	00000013          	nop
ffffffff8021e7ec:	00000013          	nop
ffffffff8021e7f0:	00000013          	nop
ffffffff8021e7f4:	00000013          	nop
ffffffff8021e7f8:	00000013          	nop
ffffffff8021e7fc:	00000013          	nop
ffffffff8021e800:	00000013          	nop
ffffffff8021e804:	00000013          	nop
ffffffff8021e808:	00000013          	nop
ffffffff8021e80c:	00000013          	nop
ffffffff8021e810:	00000013          	nop
ffffffff8021e814:	00000013          	nop
ffffffff8021e818:	00000013          	nop
ffffffff8021e81c:	00000013          	nop
ffffffff8021e820:	00000013          	nop
ffffffff8021e824:	00000013          	nop
ffffffff8021e828:	00000013          	nop
ffffffff8021e82c:	00000013          	nop
ffffffff8021e830:	00000013          	nop
ffffffff8021e834:	00000013          	nop
ffffffff8021e838:	00000013          	nop
ffffffff8021e83c:	00000013          	nop
ffffffff8021e840:	00000013          	nop
ffffffff8021e844:	00000013          	nop
ffffffff8021e848:	00000013          	nop
ffffffff8021e84c:	00000013          	nop
ffffffff8021e850:	00000013          	nop
ffffffff8021e854:	00000013          	nop
ffffffff8021e858:	00000013          	nop
ffffffff8021e85c:	00000013          	nop
ffffffff8021e860:	00000013          	nop
ffffffff8021e864:	00000013          	nop
ffffffff8021e868:	00000013          	nop
ffffffff8021e86c:	00000013          	nop
ffffffff8021e870:	00000013          	nop
ffffffff8021e874:	00000013          	nop
ffffffff8021e878:	00000013          	nop
ffffffff8021e87c:	00000013          	nop
ffffffff8021e880:	00000013          	nop
ffffffff8021e884:	00000013          	nop
ffffffff8021e888:	00000013          	nop
ffffffff8021e88c:	00000013          	nop
ffffffff8021e890:	00000013          	nop
ffffffff8021e894:	00000013          	nop
ffffffff8021e898:	00000013          	nop
ffffffff8021e89c:	00000013          	nop
ffffffff8021e8a0:	00000013          	nop
ffffffff8021e8a4:	00000013          	nop
ffffffff8021e8a8:	00000013          	nop
ffffffff8021e8ac:	00000013          	nop
ffffffff8021e8b0:	00000013          	nop
ffffffff8021e8b4:	00000013          	nop
ffffffff8021e8b8:	00000013          	nop
ffffffff8021e8bc:	00000013          	nop
ffffffff8021e8c0:	00000013          	nop
ffffffff8021e8c4:	00000013          	nop
ffffffff8021e8c8:	00000013          	nop
ffffffff8021e8cc:	00000013          	nop
ffffffff8021e8d0:	00000013          	nop
ffffffff8021e8d4:	00000013          	nop
ffffffff8021e8d8:	00000013          	nop
ffffffff8021e8dc:	00000013          	nop
ffffffff8021e8e0:	00000013          	nop
ffffffff8021e8e4:	00000013          	nop
ffffffff8021e8e8:	00000013          	nop
ffffffff8021e8ec:	00000013          	nop
ffffffff8021e8f0:	00000013          	nop
ffffffff8021e8f4:	00000013          	nop
ffffffff8021e8f8:	00000013          	nop
ffffffff8021e8fc:	00000013          	nop
ffffffff8021e900:	00000013          	nop
ffffffff8021e904:	00000013          	nop
ffffffff8021e908:	00000013          	nop
ffffffff8021e90c:	00000013          	nop
ffffffff8021e910:	00000013          	nop
ffffffff8021e914:	00000013          	nop
ffffffff8021e918:	00000013          	nop
ffffffff8021e91c:	00000013          	nop
ffffffff8021e920:	00000013          	nop
ffffffff8021e924:	00000013          	nop
ffffffff8021e928:	00000013          	nop
ffffffff8021e92c:	00000013          	nop
ffffffff8021e930:	00000013          	nop
ffffffff8021e934:	00000013          	nop
ffffffff8021e938:	00000013          	nop
ffffffff8021e93c:	00000013          	nop
ffffffff8021e940:	00000013          	nop
ffffffff8021e944:	00000013          	nop
ffffffff8021e948:	00000013          	nop
ffffffff8021e94c:	00000013          	nop
ffffffff8021e950:	00000013          	nop
ffffffff8021e954:	00000013          	nop
ffffffff8021e958:	00000013          	nop
ffffffff8021e95c:	00000013          	nop
ffffffff8021e960:	00000013          	nop
ffffffff8021e964:	00000013          	nop
ffffffff8021e968:	00000013          	nop
ffffffff8021e96c:	00000013          	nop
ffffffff8021e970:	00000013          	nop
ffffffff8021e974:	00000013          	nop
ffffffff8021e978:	00000013          	nop
ffffffff8021e97c:	00000013          	nop
ffffffff8021e980:	00000013          	nop
ffffffff8021e984:	00000013          	nop
ffffffff8021e988:	00000013          	nop
ffffffff8021e98c:	00000013          	nop
ffffffff8021e990:	00000013          	nop
ffffffff8021e994:	00000013          	nop
ffffffff8021e998:	00000013          	nop
ffffffff8021e99c:	00000013          	nop
ffffffff8021e9a0:	00000013          	nop
ffffffff8021e9a4:	00000013          	nop
ffffffff8021e9a8:	00000013          	nop
ffffffff8021e9ac:	00000013          	nop
ffffffff8021e9b0:	00000013          	nop
ffffffff8021e9b4:	00000013          	nop
ffffffff8021e9b8:	00000013          	nop
ffffffff8021e9bc:	00000013          	nop
ffffffff8021e9c0:	00000013          	nop
ffffffff8021e9c4:	00000013          	nop
ffffffff8021e9c8:	00000013          	nop
ffffffff8021e9cc:	00000013          	nop
ffffffff8021e9d0:	00000013          	nop
ffffffff8021e9d4:	00000013          	nop
ffffffff8021e9d8:	00000013          	nop
ffffffff8021e9dc:	00000013          	nop
ffffffff8021e9e0:	00000013          	nop
ffffffff8021e9e4:	00000013          	nop
ffffffff8021e9e8:	00000013          	nop
ffffffff8021e9ec:	00000013          	nop
ffffffff8021e9f0:	00000013          	nop
ffffffff8021e9f4:	00000013          	nop
ffffffff8021e9f8:	00000013          	nop
ffffffff8021e9fc:	00000013          	nop
ffffffff8021ea00:	00000013          	nop
ffffffff8021ea04:	00000013          	nop
ffffffff8021ea08:	00000013          	nop
ffffffff8021ea0c:	00000013          	nop
ffffffff8021ea10:	00000013          	nop
ffffffff8021ea14:	00000013          	nop
ffffffff8021ea18:	00000013          	nop
ffffffff8021ea1c:	00000013          	nop
ffffffff8021ea20:	00000013          	nop
ffffffff8021ea24:	00000013          	nop
ffffffff8021ea28:	00000013          	nop
ffffffff8021ea2c:	00000013          	nop
ffffffff8021ea30:	00000013          	nop
ffffffff8021ea34:	00000013          	nop
ffffffff8021ea38:	00000013          	nop
ffffffff8021ea3c:	00000013          	nop
ffffffff8021ea40:	00000013          	nop
ffffffff8021ea44:	00000013          	nop
ffffffff8021ea48:	00000013          	nop
ffffffff8021ea4c:	00000013          	nop
ffffffff8021ea50:	00000013          	nop
ffffffff8021ea54:	00000013          	nop
ffffffff8021ea58:	00000013          	nop
ffffffff8021ea5c:	00000013          	nop
ffffffff8021ea60:	00000013          	nop
ffffffff8021ea64:	00000013          	nop
ffffffff8021ea68:	00000013          	nop
ffffffff8021ea6c:	00000013          	nop
ffffffff8021ea70:	00000013          	nop
ffffffff8021ea74:	00000013          	nop
ffffffff8021ea78:	00000013          	nop
ffffffff8021ea7c:	00000013          	nop
ffffffff8021ea80:	00000013          	nop
ffffffff8021ea84:	00000013          	nop
ffffffff8021ea88:	00000013          	nop
ffffffff8021ea8c:	00000013          	nop
ffffffff8021ea90:	00000013          	nop
ffffffff8021ea94:	00000013          	nop
ffffffff8021ea98:	00000013          	nop
ffffffff8021ea9c:	00000013          	nop
ffffffff8021eaa0:	00000013          	nop
ffffffff8021eaa4:	00000013          	nop
ffffffff8021eaa8:	00000013          	nop
ffffffff8021eaac:	00000013          	nop
ffffffff8021eab0:	00000013          	nop
ffffffff8021eab4:	00000013          	nop
ffffffff8021eab8:	00000013          	nop
ffffffff8021eabc:	00000013          	nop
ffffffff8021eac0:	00000013          	nop
ffffffff8021eac4:	00000013          	nop
ffffffff8021eac8:	00000013          	nop
ffffffff8021eacc:	00000013          	nop
ffffffff8021ead0:	00000013          	nop
ffffffff8021ead4:	00000013          	nop
ffffffff8021ead8:	00000013          	nop
ffffffff8021eadc:	00000013          	nop
ffffffff8021eae0:	00000013          	nop
ffffffff8021eae4:	00000013          	nop
ffffffff8021eae8:	00000013          	nop
ffffffff8021eaec:	00000013          	nop
ffffffff8021eaf0:	00000013          	nop
ffffffff8021eaf4:	00000013          	nop
ffffffff8021eaf8:	00000013          	nop
ffffffff8021eafc:	00000013          	nop
ffffffff8021eb00:	00000013          	nop
ffffffff8021eb04:	00000013          	nop
ffffffff8021eb08:	00000013          	nop
ffffffff8021eb0c:	00000013          	nop
ffffffff8021eb10:	00000013          	nop
ffffffff8021eb14:	00000013          	nop
ffffffff8021eb18:	00000013          	nop
ffffffff8021eb1c:	00000013          	nop
ffffffff8021eb20:	00000013          	nop
ffffffff8021eb24:	00000013          	nop
ffffffff8021eb28:	00000013          	nop
ffffffff8021eb2c:	00000013          	nop
ffffffff8021eb30:	00000013          	nop
ffffffff8021eb34:	00000013          	nop
ffffffff8021eb38:	00000013          	nop
ffffffff8021eb3c:	00000013          	nop
ffffffff8021eb40:	00000013          	nop
ffffffff8021eb44:	00000013          	nop
ffffffff8021eb48:	00000013          	nop
ffffffff8021eb4c:	00000013          	nop
ffffffff8021eb50:	00000013          	nop
ffffffff8021eb54:	00000013          	nop
ffffffff8021eb58:	00000013          	nop
ffffffff8021eb5c:	00000013          	nop
ffffffff8021eb60:	00000013          	nop
ffffffff8021eb64:	00000013          	nop
ffffffff8021eb68:	00000013          	nop
ffffffff8021eb6c:	00000013          	nop
ffffffff8021eb70:	00000013          	nop
ffffffff8021eb74:	00000013          	nop
ffffffff8021eb78:	00000013          	nop
ffffffff8021eb7c:	00000013          	nop
ffffffff8021eb80:	00000013          	nop
ffffffff8021eb84:	00000013          	nop
ffffffff8021eb88:	00000013          	nop
ffffffff8021eb8c:	00000013          	nop
ffffffff8021eb90:	00000013          	nop
ffffffff8021eb94:	00000013          	nop
ffffffff8021eb98:	00000013          	nop
ffffffff8021eb9c:	00000013          	nop
ffffffff8021eba0:	00000013          	nop
ffffffff8021eba4:	00000013          	nop
ffffffff8021eba8:	00000013          	nop
ffffffff8021ebac:	00000013          	nop
ffffffff8021ebb0:	00000013          	nop
ffffffff8021ebb4:	00000013          	nop
ffffffff8021ebb8:	00000013          	nop
ffffffff8021ebbc:	00000013          	nop
ffffffff8021ebc0:	00000013          	nop
ffffffff8021ebc4:	00000013          	nop
ffffffff8021ebc8:	00000013          	nop
ffffffff8021ebcc:	00000013          	nop
ffffffff8021ebd0:	00000013          	nop
ffffffff8021ebd4:	00000013          	nop
ffffffff8021ebd8:	00000013          	nop
ffffffff8021ebdc:	00000013          	nop
ffffffff8021ebe0:	00000013          	nop
ffffffff8021ebe4:	00000013          	nop
ffffffff8021ebe8:	00000013          	nop
ffffffff8021ebec:	00000013          	nop
ffffffff8021ebf0:	00000013          	nop
ffffffff8021ebf4:	00000013          	nop
ffffffff8021ebf8:	00000013          	nop
ffffffff8021ebfc:	00000013          	nop
ffffffff8021ec00:	00000013          	nop
ffffffff8021ec04:	00000013          	nop
ffffffff8021ec08:	00000013          	nop
ffffffff8021ec0c:	00000013          	nop
ffffffff8021ec10:	00000013          	nop
ffffffff8021ec14:	00000013          	nop
ffffffff8021ec18:	00000013          	nop
ffffffff8021ec1c:	00000013          	nop
ffffffff8021ec20:	00000013          	nop
ffffffff8021ec24:	00000013          	nop
ffffffff8021ec28:	00000013          	nop
ffffffff8021ec2c:	00000013          	nop
ffffffff8021ec30:	00000013          	nop
ffffffff8021ec34:	00000013          	nop
ffffffff8021ec38:	00000013          	nop
ffffffff8021ec3c:	00000013          	nop
ffffffff8021ec40:	00000013          	nop
ffffffff8021ec44:	00000013          	nop
ffffffff8021ec48:	00000013          	nop
ffffffff8021ec4c:	00000013          	nop
ffffffff8021ec50:	00000013          	nop
ffffffff8021ec54:	00000013          	nop
ffffffff8021ec58:	00000013          	nop
ffffffff8021ec5c:	00000013          	nop
ffffffff8021ec60:	00000013          	nop
ffffffff8021ec64:	00000013          	nop
ffffffff8021ec68:	00000013          	nop
ffffffff8021ec6c:	00000013          	nop
ffffffff8021ec70:	00000013          	nop
ffffffff8021ec74:	00000013          	nop
ffffffff8021ec78:	00000013          	nop
ffffffff8021ec7c:	00000013          	nop
ffffffff8021ec80:	00000013          	nop
ffffffff8021ec84:	00000013          	nop
ffffffff8021ec88:	00000013          	nop
ffffffff8021ec8c:	00000013          	nop
ffffffff8021ec90:	00000013          	nop
ffffffff8021ec94:	00000013          	nop
ffffffff8021ec98:	00000013          	nop
ffffffff8021ec9c:	00000013          	nop
ffffffff8021eca0:	00000013          	nop
ffffffff8021eca4:	00000013          	nop
ffffffff8021eca8:	00000013          	nop
ffffffff8021ecac:	00000013          	nop
ffffffff8021ecb0:	00000013          	nop
ffffffff8021ecb4:	00000013          	nop
ffffffff8021ecb8:	00000013          	nop
ffffffff8021ecbc:	00000013          	nop
ffffffff8021ecc0:	00000013          	nop
ffffffff8021ecc4:	00000013          	nop
ffffffff8021ecc8:	00000013          	nop
ffffffff8021eccc:	00000013          	nop
ffffffff8021ecd0:	00000013          	nop
ffffffff8021ecd4:	00000013          	nop
ffffffff8021ecd8:	00000013          	nop
ffffffff8021ecdc:	00000013          	nop
ffffffff8021ece0:	00000013          	nop
ffffffff8021ece4:	00000013          	nop
ffffffff8021ece8:	00000013          	nop
ffffffff8021ecec:	00000013          	nop
ffffffff8021ecf0:	00000013          	nop
ffffffff8021ecf4:	00000013          	nop
ffffffff8021ecf8:	00000013          	nop
ffffffff8021ecfc:	00000013          	nop
ffffffff8021ed00:	00000013          	nop
ffffffff8021ed04:	00000013          	nop
ffffffff8021ed08:	00000013          	nop
ffffffff8021ed0c:	00000013          	nop
ffffffff8021ed10:	00000013          	nop
ffffffff8021ed14:	00000013          	nop
ffffffff8021ed18:	00000013          	nop
ffffffff8021ed1c:	00000013          	nop
ffffffff8021ed20:	00000013          	nop
ffffffff8021ed24:	00000013          	nop
ffffffff8021ed28:	00000013          	nop
ffffffff8021ed2c:	00000013          	nop
ffffffff8021ed30:	00000013          	nop
ffffffff8021ed34:	00000013          	nop
ffffffff8021ed38:	00000013          	nop
ffffffff8021ed3c:	00000013          	nop
ffffffff8021ed40:	00000013          	nop
ffffffff8021ed44:	00000013          	nop
ffffffff8021ed48:	00000013          	nop
ffffffff8021ed4c:	00000013          	nop
ffffffff8021ed50:	00000013          	nop
ffffffff8021ed54:	00000013          	nop
ffffffff8021ed58:	00000013          	nop
ffffffff8021ed5c:	00000013          	nop
ffffffff8021ed60:	00000013          	nop
ffffffff8021ed64:	00000013          	nop
ffffffff8021ed68:	00000013          	nop
ffffffff8021ed6c:	00000013          	nop
ffffffff8021ed70:	00000013          	nop
ffffffff8021ed74:	00000013          	nop
ffffffff8021ed78:	00000013          	nop
ffffffff8021ed7c:	00000013          	nop
ffffffff8021ed80:	00000013          	nop
ffffffff8021ed84:	00000013          	nop
ffffffff8021ed88:	00000013          	nop
ffffffff8021ed8c:	00000013          	nop
ffffffff8021ed90:	00000013          	nop
ffffffff8021ed94:	00000013          	nop
ffffffff8021ed98:	00000013          	nop
ffffffff8021ed9c:	00000013          	nop
ffffffff8021eda0:	00000013          	nop
ffffffff8021eda4:	00000013          	nop
ffffffff8021eda8:	00000013          	nop
ffffffff8021edac:	00000013          	nop
ffffffff8021edb0:	00000013          	nop
ffffffff8021edb4:	00000013          	nop
ffffffff8021edb8:	00000013          	nop
ffffffff8021edbc:	00000013          	nop
ffffffff8021edc0:	00000013          	nop
ffffffff8021edc4:	00000013          	nop
ffffffff8021edc8:	00000013          	nop
ffffffff8021edcc:	00000013          	nop
ffffffff8021edd0:	00000013          	nop
ffffffff8021edd4:	00000013          	nop
ffffffff8021edd8:	00000013          	nop
ffffffff8021eddc:	00000013          	nop
ffffffff8021ede0:	00000013          	nop
ffffffff8021ede4:	00000013          	nop
ffffffff8021ede8:	00000013          	nop
ffffffff8021edec:	00000013          	nop
ffffffff8021edf0:	00000013          	nop
ffffffff8021edf4:	00000013          	nop
ffffffff8021edf8:	00000013          	nop
ffffffff8021edfc:	00000013          	nop
ffffffff8021ee00:	00000013          	nop
ffffffff8021ee04:	00000013          	nop
ffffffff8021ee08:	00000013          	nop
ffffffff8021ee0c:	00000013          	nop
ffffffff8021ee10:	00000013          	nop
ffffffff8021ee14:	00000013          	nop
ffffffff8021ee18:	00000013          	nop
ffffffff8021ee1c:	00000013          	nop
ffffffff8021ee20:	00000013          	nop
ffffffff8021ee24:	00000013          	nop
ffffffff8021ee28:	00000013          	nop
ffffffff8021ee2c:	00000013          	nop
ffffffff8021ee30:	00000013          	nop
ffffffff8021ee34:	00000013          	nop
ffffffff8021ee38:	00000013          	nop
ffffffff8021ee3c:	00000013          	nop
ffffffff8021ee40:	00000013          	nop
ffffffff8021ee44:	00000013          	nop
ffffffff8021ee48:	00000013          	nop
ffffffff8021ee4c:	00000013          	nop
ffffffff8021ee50:	00000013          	nop
ffffffff8021ee54:	00000013          	nop
ffffffff8021ee58:	00000013          	nop
ffffffff8021ee5c:	00000013          	nop
ffffffff8021ee60:	00000013          	nop
ffffffff8021ee64:	00000013          	nop
ffffffff8021ee68:	00000013          	nop
ffffffff8021ee6c:	00000013          	nop
ffffffff8021ee70:	00000013          	nop
ffffffff8021ee74:	00000013          	nop
ffffffff8021ee78:	00000013          	nop
ffffffff8021ee7c:	00000013          	nop
ffffffff8021ee80:	00000013          	nop
ffffffff8021ee84:	00000013          	nop
ffffffff8021ee88:	00000013          	nop
ffffffff8021ee8c:	00000013          	nop
ffffffff8021ee90:	00000013          	nop
ffffffff8021ee94:	00000013          	nop
ffffffff8021ee98:	00000013          	nop
ffffffff8021ee9c:	00000013          	nop
ffffffff8021eea0:	00000013          	nop
ffffffff8021eea4:	00000013          	nop
ffffffff8021eea8:	00000013          	nop
ffffffff8021eeac:	00000013          	nop
ffffffff8021eeb0:	00000013          	nop
ffffffff8021eeb4:	00000013          	nop
ffffffff8021eeb8:	00000013          	nop
ffffffff8021eebc:	00000013          	nop
ffffffff8021eec0:	00000013          	nop
ffffffff8021eec4:	00000013          	nop
ffffffff8021eec8:	00000013          	nop
ffffffff8021eecc:	00000013          	nop
ffffffff8021eed0:	00000013          	nop
ffffffff8021eed4:	00000013          	nop
ffffffff8021eed8:	00000013          	nop
ffffffff8021eedc:	00000013          	nop
ffffffff8021eee0:	00000013          	nop
ffffffff8021eee4:	00000013          	nop
ffffffff8021eee8:	00000013          	nop
ffffffff8021eeec:	00000013          	nop
ffffffff8021eef0:	00000013          	nop
ffffffff8021eef4:	00000013          	nop
ffffffff8021eef8:	00000013          	nop
ffffffff8021eefc:	00000013          	nop
ffffffff8021ef00:	00000013          	nop
ffffffff8021ef04:	00000013          	nop
ffffffff8021ef08:	00000013          	nop
ffffffff8021ef0c:	00000013          	nop
ffffffff8021ef10:	00000013          	nop
ffffffff8021ef14:	00000013          	nop
ffffffff8021ef18:	00000013          	nop
ffffffff8021ef1c:	00000013          	nop
ffffffff8021ef20:	00000013          	nop
ffffffff8021ef24:	00000013          	nop
ffffffff8021ef28:	00000013          	nop
ffffffff8021ef2c:	00000013          	nop
ffffffff8021ef30:	00000013          	nop
ffffffff8021ef34:	00000013          	nop
ffffffff8021ef38:	00000013          	nop
ffffffff8021ef3c:	00000013          	nop
ffffffff8021ef40:	00000013          	nop
ffffffff8021ef44:	00000013          	nop
ffffffff8021ef48:	00000013          	nop
ffffffff8021ef4c:	00000013          	nop
ffffffff8021ef50:	00000013          	nop
ffffffff8021ef54:	00000013          	nop
ffffffff8021ef58:	00000013          	nop
ffffffff8021ef5c:	00000013          	nop
ffffffff8021ef60:	00000013          	nop
ffffffff8021ef64:	00000013          	nop
ffffffff8021ef68:	00000013          	nop
ffffffff8021ef6c:	00000013          	nop
ffffffff8021ef70:	00000013          	nop
ffffffff8021ef74:	00000013          	nop
ffffffff8021ef78:	00000013          	nop
ffffffff8021ef7c:	00000013          	nop
ffffffff8021ef80:	00000013          	nop
ffffffff8021ef84:	00000013          	nop
ffffffff8021ef88:	00000013          	nop
ffffffff8021ef8c:	00000013          	nop
ffffffff8021ef90:	00000013          	nop
ffffffff8021ef94:	00000013          	nop
ffffffff8021ef98:	00000013          	nop
ffffffff8021ef9c:	00000013          	nop
ffffffff8021efa0:	00000013          	nop
ffffffff8021efa4:	00000013          	nop
ffffffff8021efa8:	00000013          	nop
ffffffff8021efac:	00000013          	nop
ffffffff8021efb0:	00000013          	nop
ffffffff8021efb4:	00000013          	nop
ffffffff8021efb8:	00000013          	nop
ffffffff8021efbc:	00000013          	nop
ffffffff8021efc0:	00000013          	nop
ffffffff8021efc4:	00000013          	nop
ffffffff8021efc8:	00000013          	nop
ffffffff8021efcc:	00000013          	nop
ffffffff8021efd0:	00000013          	nop
ffffffff8021efd4:	00000013          	nop
ffffffff8021efd8:	00000013          	nop
ffffffff8021efdc:	00000013          	nop
ffffffff8021efe0:	00000013          	nop
ffffffff8021efe4:	00000013          	nop
ffffffff8021efe8:	00000013          	nop
ffffffff8021efec:	00000013          	nop
ffffffff8021eff0:	00000013          	nop
ffffffff8021eff4:	00000013          	nop
ffffffff8021eff8:	00000013          	nop
ffffffff8021effc:	00000013          	nop
ffffffff8021f000:	00000013          	nop
ffffffff8021f004:	00000013          	nop
ffffffff8021f008:	00000013          	nop
ffffffff8021f00c:	00000013          	nop
ffffffff8021f010:	00000013          	nop
ffffffff8021f014:	00000013          	nop
ffffffff8021f018:	00000013          	nop
ffffffff8021f01c:	00000013          	nop
ffffffff8021f020:	00000013          	nop
ffffffff8021f024:	00000013          	nop
ffffffff8021f028:	00000013          	nop
ffffffff8021f02c:	00000013          	nop
ffffffff8021f030:	00000013          	nop
ffffffff8021f034:	00000013          	nop
ffffffff8021f038:	00000013          	nop
ffffffff8021f03c:	00000013          	nop
ffffffff8021f040:	00000013          	nop
ffffffff8021f044:	00000013          	nop
ffffffff8021f048:	00000013          	nop
ffffffff8021f04c:	00000013          	nop
ffffffff8021f050:	00000013          	nop
ffffffff8021f054:	00000013          	nop
ffffffff8021f058:	00000013          	nop
ffffffff8021f05c:	00000013          	nop
ffffffff8021f060:	00000013          	nop
ffffffff8021f064:	00000013          	nop
ffffffff8021f068:	00000013          	nop
ffffffff8021f06c:	00000013          	nop
ffffffff8021f070:	00000013          	nop
ffffffff8021f074:	00000013          	nop
ffffffff8021f078:	00000013          	nop
ffffffff8021f07c:	00000013          	nop
ffffffff8021f080:	00000013          	nop
ffffffff8021f084:	00000013          	nop
ffffffff8021f088:	00000013          	nop
ffffffff8021f08c:	00000013          	nop
ffffffff8021f090:	00000013          	nop
ffffffff8021f094:	00000013          	nop
ffffffff8021f098:	00000013          	nop
ffffffff8021f09c:	00000013          	nop
ffffffff8021f0a0:	00000013          	nop
ffffffff8021f0a4:	00000013          	nop
ffffffff8021f0a8:	00000013          	nop
ffffffff8021f0ac:	00000013          	nop
ffffffff8021f0b0:	00000013          	nop
ffffffff8021f0b4:	00000013          	nop
ffffffff8021f0b8:	00000013          	nop
ffffffff8021f0bc:	00000013          	nop
ffffffff8021f0c0:	00000013          	nop
ffffffff8021f0c4:	00000013          	nop
ffffffff8021f0c8:	00000013          	nop
ffffffff8021f0cc:	00000013          	nop
ffffffff8021f0d0:	00000013          	nop
ffffffff8021f0d4:	00000013          	nop
ffffffff8021f0d8:	00000013          	nop
ffffffff8021f0dc:	00000013          	nop
ffffffff8021f0e0:	00000013          	nop
ffffffff8021f0e4:	00000013          	nop
ffffffff8021f0e8:	00000013          	nop
ffffffff8021f0ec:	00000013          	nop
ffffffff8021f0f0:	00000013          	nop
ffffffff8021f0f4:	00000013          	nop
ffffffff8021f0f8:	00000013          	nop
ffffffff8021f0fc:	00000013          	nop
ffffffff8021f100:	00000013          	nop
ffffffff8021f104:	00000013          	nop
ffffffff8021f108:	00000013          	nop
ffffffff8021f10c:	00000013          	nop
ffffffff8021f110:	00000013          	nop
ffffffff8021f114:	00000013          	nop
ffffffff8021f118:	00000013          	nop
ffffffff8021f11c:	00000013          	nop
ffffffff8021f120:	00000013          	nop
ffffffff8021f124:	00000013          	nop
ffffffff8021f128:	00000013          	nop
ffffffff8021f12c:	00000013          	nop
ffffffff8021f130:	00000013          	nop
ffffffff8021f134:	00000013          	nop
ffffffff8021f138:	00000013          	nop
ffffffff8021f13c:	00000013          	nop
ffffffff8021f140:	00000013          	nop
ffffffff8021f144:	00000013          	nop
ffffffff8021f148:	00000013          	nop
ffffffff8021f14c:	00000013          	nop
ffffffff8021f150:	00000013          	nop
ffffffff8021f154:	00000013          	nop
ffffffff8021f158:	00000013          	nop
ffffffff8021f15c:	00000013          	nop
ffffffff8021f160:	00000013          	nop
ffffffff8021f164:	00000013          	nop
ffffffff8021f168:	00000013          	nop
ffffffff8021f16c:	00000013          	nop
ffffffff8021f170:	00000013          	nop
ffffffff8021f174:	00000013          	nop
ffffffff8021f178:	00000013          	nop
ffffffff8021f17c:	00000013          	nop
ffffffff8021f180:	00000013          	nop
ffffffff8021f184:	00000013          	nop
ffffffff8021f188:	00000013          	nop
ffffffff8021f18c:	00000013          	nop
ffffffff8021f190:	00000013          	nop
ffffffff8021f194:	00000013          	nop
ffffffff8021f198:	00000013          	nop
ffffffff8021f19c:	00000013          	nop
ffffffff8021f1a0:	00000013          	nop
ffffffff8021f1a4:	00000013          	nop
ffffffff8021f1a8:	00000013          	nop
ffffffff8021f1ac:	00000013          	nop
ffffffff8021f1b0:	00000013          	nop
ffffffff8021f1b4:	00000013          	nop
ffffffff8021f1b8:	00000013          	nop
ffffffff8021f1bc:	00000013          	nop
ffffffff8021f1c0:	00000013          	nop
ffffffff8021f1c4:	00000013          	nop
ffffffff8021f1c8:	00000013          	nop
ffffffff8021f1cc:	00000013          	nop
ffffffff8021f1d0:	00000013          	nop
ffffffff8021f1d4:	00000013          	nop
ffffffff8021f1d8:	00000013          	nop
ffffffff8021f1dc:	00000013          	nop
ffffffff8021f1e0:	00000013          	nop
ffffffff8021f1e4:	00000013          	nop
ffffffff8021f1e8:	00000013          	nop
ffffffff8021f1ec:	00000013          	nop
ffffffff8021f1f0:	00000013          	nop
ffffffff8021f1f4:	00000013          	nop
ffffffff8021f1f8:	00000013          	nop
ffffffff8021f1fc:	00000013          	nop
ffffffff8021f200:	00000013          	nop
ffffffff8021f204:	00000013          	nop
ffffffff8021f208:	00000013          	nop
ffffffff8021f20c:	00000013          	nop
ffffffff8021f210:	00000013          	nop
ffffffff8021f214:	00000013          	nop
ffffffff8021f218:	00000013          	nop
ffffffff8021f21c:	00000013          	nop
ffffffff8021f220:	00000013          	nop
ffffffff8021f224:	00000013          	nop
ffffffff8021f228:	00000013          	nop
ffffffff8021f22c:	00000013          	nop
ffffffff8021f230:	00000013          	nop
ffffffff8021f234:	00000013          	nop
ffffffff8021f238:	00000013          	nop
ffffffff8021f23c:	00000013          	nop
ffffffff8021f240:	00000013          	nop
ffffffff8021f244:	00000013          	nop
ffffffff8021f248:	00000013          	nop
ffffffff8021f24c:	00000013          	nop
ffffffff8021f250:	00000013          	nop
ffffffff8021f254:	00000013          	nop
ffffffff8021f258:	00000013          	nop
ffffffff8021f25c:	00000013          	nop
ffffffff8021f260:	00000013          	nop
ffffffff8021f264:	00000013          	nop
ffffffff8021f268:	00000013          	nop
ffffffff8021f26c:	00000013          	nop
ffffffff8021f270:	00000013          	nop
ffffffff8021f274:	00000013          	nop
ffffffff8021f278:	00000013          	nop
ffffffff8021f27c:	00000013          	nop
ffffffff8021f280:	00000013          	nop
ffffffff8021f284:	00000013          	nop
ffffffff8021f288:	00000013          	nop
ffffffff8021f28c:	00000013          	nop
ffffffff8021f290:	00000013          	nop
ffffffff8021f294:	00000013          	nop
ffffffff8021f298:	00000013          	nop
ffffffff8021f29c:	00000013          	nop
ffffffff8021f2a0:	00000013          	nop
ffffffff8021f2a4:	00000013          	nop
ffffffff8021f2a8:	00000013          	nop
ffffffff8021f2ac:	00000013          	nop
ffffffff8021f2b0:	00000013          	nop
ffffffff8021f2b4:	00000013          	nop
ffffffff8021f2b8:	00000013          	nop
ffffffff8021f2bc:	00000013          	nop
ffffffff8021f2c0:	00000013          	nop
ffffffff8021f2c4:	00000013          	nop
ffffffff8021f2c8:	00000013          	nop
ffffffff8021f2cc:	00000013          	nop
ffffffff8021f2d0:	00000013          	nop
ffffffff8021f2d4:	00000013          	nop
ffffffff8021f2d8:	00000013          	nop
ffffffff8021f2dc:	00000013          	nop
ffffffff8021f2e0:	00000013          	nop
ffffffff8021f2e4:	00000013          	nop
ffffffff8021f2e8:	00000013          	nop
ffffffff8021f2ec:	00000013          	nop
ffffffff8021f2f0:	00000013          	nop
ffffffff8021f2f4:	00000013          	nop
ffffffff8021f2f8:	00000013          	nop
ffffffff8021f2fc:	00000013          	nop
ffffffff8021f300:	00000013          	nop
ffffffff8021f304:	00000013          	nop
ffffffff8021f308:	00000013          	nop
ffffffff8021f30c:	00000013          	nop
ffffffff8021f310:	00000013          	nop
ffffffff8021f314:	00000013          	nop
ffffffff8021f318:	00000013          	nop
ffffffff8021f31c:	00000013          	nop
ffffffff8021f320:	00000013          	nop
ffffffff8021f324:	00000013          	nop
ffffffff8021f328:	00000013          	nop
ffffffff8021f32c:	00000013          	nop
ffffffff8021f330:	00000013          	nop
ffffffff8021f334:	00000013          	nop
ffffffff8021f338:	00000013          	nop
ffffffff8021f33c:	00000013          	nop
ffffffff8021f340:	00000013          	nop
ffffffff8021f344:	00000013          	nop
ffffffff8021f348:	00000013          	nop
ffffffff8021f34c:	00000013          	nop
ffffffff8021f350:	00000013          	nop
ffffffff8021f354:	00000013          	nop
ffffffff8021f358:	00000013          	nop
ffffffff8021f35c:	00000013          	nop
ffffffff8021f360:	00000013          	nop
ffffffff8021f364:	00000013          	nop
ffffffff8021f368:	00000013          	nop
ffffffff8021f36c:	00000013          	nop
ffffffff8021f370:	00000013          	nop
ffffffff8021f374:	00000013          	nop
ffffffff8021f378:	00000013          	nop
ffffffff8021f37c:	00000013          	nop
ffffffff8021f380:	00000013          	nop
ffffffff8021f384:	00000013          	nop
ffffffff8021f388:	00000013          	nop
ffffffff8021f38c:	00000013          	nop
ffffffff8021f390:	00000013          	nop
ffffffff8021f394:	00000013          	nop
ffffffff8021f398:	00000013          	nop
ffffffff8021f39c:	00000013          	nop
ffffffff8021f3a0:	00000013          	nop
ffffffff8021f3a4:	00000013          	nop
ffffffff8021f3a8:	00000013          	nop
ffffffff8021f3ac:	00000013          	nop
ffffffff8021f3b0:	00000013          	nop
ffffffff8021f3b4:	00000013          	nop
ffffffff8021f3b8:	00000013          	nop
ffffffff8021f3bc:	00000013          	nop
ffffffff8021f3c0:	00000013          	nop
ffffffff8021f3c4:	00000013          	nop
ffffffff8021f3c8:	00000013          	nop
ffffffff8021f3cc:	00000013          	nop
ffffffff8021f3d0:	00000013          	nop
ffffffff8021f3d4:	00000013          	nop
ffffffff8021f3d8:	00000013          	nop
ffffffff8021f3dc:	00000013          	nop
ffffffff8021f3e0:	00000013          	nop
ffffffff8021f3e4:	00000013          	nop
ffffffff8021f3e8:	00000013          	nop
ffffffff8021f3ec:	00000013          	nop
ffffffff8021f3f0:	00000013          	nop
ffffffff8021f3f4:	00000013          	nop
ffffffff8021f3f8:	00000013          	nop
ffffffff8021f3fc:	00000013          	nop
ffffffff8021f400:	00000013          	nop
ffffffff8021f404:	00000013          	nop
ffffffff8021f408:	00000013          	nop
ffffffff8021f40c:	00000013          	nop
ffffffff8021f410:	00000013          	nop
ffffffff8021f414:	00000013          	nop
ffffffff8021f418:	00000013          	nop
ffffffff8021f41c:	00000013          	nop
ffffffff8021f420:	00000013          	nop
ffffffff8021f424:	00000013          	nop
ffffffff8021f428:	00000013          	nop
ffffffff8021f42c:	00000013          	nop
ffffffff8021f430:	00000013          	nop
ffffffff8021f434:	00000013          	nop
ffffffff8021f438:	00000013          	nop
ffffffff8021f43c:	00000013          	nop
ffffffff8021f440:	00000013          	nop
ffffffff8021f444:	00000013          	nop
ffffffff8021f448:	00000013          	nop
ffffffff8021f44c:	00000013          	nop
ffffffff8021f450:	00000013          	nop
ffffffff8021f454:	00000013          	nop
ffffffff8021f458:	00000013          	nop
ffffffff8021f45c:	00000013          	nop
ffffffff8021f460:	00000013          	nop
ffffffff8021f464:	00000013          	nop
ffffffff8021f468:	00000013          	nop
ffffffff8021f46c:	00000013          	nop
ffffffff8021f470:	00000013          	nop
ffffffff8021f474:	00000013          	nop
ffffffff8021f478:	00000013          	nop
ffffffff8021f47c:	00000013          	nop
ffffffff8021f480:	00000013          	nop
ffffffff8021f484:	00000013          	nop
ffffffff8021f488:	00000013          	nop
ffffffff8021f48c:	00000013          	nop
ffffffff8021f490:	00000013          	nop
ffffffff8021f494:	00000013          	nop
ffffffff8021f498:	00000013          	nop
ffffffff8021f49c:	00000013          	nop
ffffffff8021f4a0:	00000013          	nop
ffffffff8021f4a4:	00000013          	nop
ffffffff8021f4a8:	00000013          	nop
ffffffff8021f4ac:	00000013          	nop
ffffffff8021f4b0:	00000013          	nop
ffffffff8021f4b4:	00000013          	nop
ffffffff8021f4b8:	00000013          	nop
ffffffff8021f4bc:	00000013          	nop
ffffffff8021f4c0:	00000013          	nop
ffffffff8021f4c4:	00000013          	nop
ffffffff8021f4c8:	00000013          	nop
ffffffff8021f4cc:	00000013          	nop
ffffffff8021f4d0:	00000013          	nop
ffffffff8021f4d4:	00000013          	nop
ffffffff8021f4d8:	00000013          	nop
ffffffff8021f4dc:	00000013          	nop
ffffffff8021f4e0:	00000013          	nop
ffffffff8021f4e4:	00000013          	nop
ffffffff8021f4e8:	00000013          	nop
ffffffff8021f4ec:	00000013          	nop
ffffffff8021f4f0:	00000013          	nop
ffffffff8021f4f4:	00000013          	nop
ffffffff8021f4f8:	00000013          	nop
ffffffff8021f4fc:	00000013          	nop
ffffffff8021f500:	00000013          	nop
ffffffff8021f504:	00000013          	nop
ffffffff8021f508:	00000013          	nop
ffffffff8021f50c:	00000013          	nop
ffffffff8021f510:	00000013          	nop
ffffffff8021f514:	00000013          	nop
ffffffff8021f518:	00000013          	nop
ffffffff8021f51c:	00000013          	nop
ffffffff8021f520:	00000013          	nop
ffffffff8021f524:	00000013          	nop
ffffffff8021f528:	00000013          	nop
ffffffff8021f52c:	00000013          	nop
ffffffff8021f530:	00000013          	nop
ffffffff8021f534:	00000013          	nop
ffffffff8021f538:	00000013          	nop
ffffffff8021f53c:	00000013          	nop
ffffffff8021f540:	00000013          	nop
ffffffff8021f544:	00000013          	nop
ffffffff8021f548:	00000013          	nop
ffffffff8021f54c:	00000013          	nop
ffffffff8021f550:	00000013          	nop
ffffffff8021f554:	00000013          	nop
ffffffff8021f558:	00000013          	nop
ffffffff8021f55c:	00000013          	nop
ffffffff8021f560:	00000013          	nop
ffffffff8021f564:	00000013          	nop
ffffffff8021f568:	00000013          	nop
ffffffff8021f56c:	00000013          	nop
ffffffff8021f570:	00000013          	nop
ffffffff8021f574:	00000013          	nop
ffffffff8021f578:	00000013          	nop
ffffffff8021f57c:	00000013          	nop
ffffffff8021f580:	00000013          	nop
ffffffff8021f584:	00000013          	nop
ffffffff8021f588:	00000013          	nop
ffffffff8021f58c:	00000013          	nop
ffffffff8021f590:	00000013          	nop
ffffffff8021f594:	00000013          	nop
ffffffff8021f598:	00000013          	nop
ffffffff8021f59c:	00000013          	nop
ffffffff8021f5a0:	00000013          	nop
ffffffff8021f5a4:	00000013          	nop
ffffffff8021f5a8:	00000013          	nop
ffffffff8021f5ac:	00000013          	nop
ffffffff8021f5b0:	00000013          	nop
ffffffff8021f5b4:	00000013          	nop
ffffffff8021f5b8:	00000013          	nop
ffffffff8021f5bc:	00000013          	nop
ffffffff8021f5c0:	00000013          	nop
ffffffff8021f5c4:	00000013          	nop
ffffffff8021f5c8:	00000013          	nop
ffffffff8021f5cc:	00000013          	nop
ffffffff8021f5d0:	00000013          	nop
ffffffff8021f5d4:	00000013          	nop
ffffffff8021f5d8:	00000013          	nop
ffffffff8021f5dc:	00000013          	nop
ffffffff8021f5e0:	00000013          	nop
ffffffff8021f5e4:	00000013          	nop
ffffffff8021f5e8:	00000013          	nop
ffffffff8021f5ec:	00000013          	nop
ffffffff8021f5f0:	00000013          	nop
ffffffff8021f5f4:	00000013          	nop
ffffffff8021f5f8:	00000013          	nop
ffffffff8021f5fc:	00000013          	nop
ffffffff8021f600:	00000013          	nop
ffffffff8021f604:	00000013          	nop
ffffffff8021f608:	00000013          	nop
ffffffff8021f60c:	00000013          	nop
ffffffff8021f610:	00000013          	nop
ffffffff8021f614:	00000013          	nop
ffffffff8021f618:	00000013          	nop
ffffffff8021f61c:	00000013          	nop
ffffffff8021f620:	00000013          	nop
ffffffff8021f624:	00000013          	nop
ffffffff8021f628:	00000013          	nop
ffffffff8021f62c:	00000013          	nop
ffffffff8021f630:	00000013          	nop
ffffffff8021f634:	00000013          	nop
ffffffff8021f638:	00000013          	nop
ffffffff8021f63c:	00000013          	nop
ffffffff8021f640:	00000013          	nop
ffffffff8021f644:	00000013          	nop
ffffffff8021f648:	00000013          	nop
ffffffff8021f64c:	00000013          	nop
ffffffff8021f650:	00000013          	nop
ffffffff8021f654:	00000013          	nop
ffffffff8021f658:	00000013          	nop
ffffffff8021f65c:	00000013          	nop
ffffffff8021f660:	00000013          	nop
ffffffff8021f664:	00000013          	nop
ffffffff8021f668:	00000013          	nop
ffffffff8021f66c:	00000013          	nop
ffffffff8021f670:	00000013          	nop
ffffffff8021f674:	00000013          	nop
ffffffff8021f678:	00000013          	nop
ffffffff8021f67c:	00000013          	nop
ffffffff8021f680:	00000013          	nop
ffffffff8021f684:	00000013          	nop
ffffffff8021f688:	00000013          	nop
ffffffff8021f68c:	00000013          	nop
ffffffff8021f690:	00000013          	nop
ffffffff8021f694:	00000013          	nop
ffffffff8021f698:	00000013          	nop
ffffffff8021f69c:	00000013          	nop
ffffffff8021f6a0:	00000013          	nop
ffffffff8021f6a4:	00000013          	nop
ffffffff8021f6a8:	00000013          	nop
ffffffff8021f6ac:	00000013          	nop
ffffffff8021f6b0:	00000013          	nop
ffffffff8021f6b4:	00000013          	nop
ffffffff8021f6b8:	00000013          	nop
ffffffff8021f6bc:	00000013          	nop
ffffffff8021f6c0:	00000013          	nop
ffffffff8021f6c4:	00000013          	nop
ffffffff8021f6c8:	00000013          	nop
ffffffff8021f6cc:	00000013          	nop
ffffffff8021f6d0:	00000013          	nop
ffffffff8021f6d4:	00000013          	nop
ffffffff8021f6d8:	00000013          	nop
ffffffff8021f6dc:	00000013          	nop
ffffffff8021f6e0:	00000013          	nop
ffffffff8021f6e4:	00000013          	nop
ffffffff8021f6e8:	00000013          	nop
ffffffff8021f6ec:	00000013          	nop
ffffffff8021f6f0:	00000013          	nop
ffffffff8021f6f4:	00000013          	nop
ffffffff8021f6f8:	00000013          	nop
ffffffff8021f6fc:	00000013          	nop
ffffffff8021f700:	00000013          	nop
ffffffff8021f704:	00000013          	nop
ffffffff8021f708:	00000013          	nop
ffffffff8021f70c:	00000013          	nop
ffffffff8021f710:	00000013          	nop
ffffffff8021f714:	00000013          	nop
ffffffff8021f718:	00000013          	nop
ffffffff8021f71c:	00000013          	nop
ffffffff8021f720:	00000013          	nop
ffffffff8021f724:	00000013          	nop
ffffffff8021f728:	00000013          	nop
ffffffff8021f72c:	00000013          	nop
ffffffff8021f730:	00000013          	nop
ffffffff8021f734:	00000013          	nop
ffffffff8021f738:	00000013          	nop
ffffffff8021f73c:	00000013          	nop
ffffffff8021f740:	00000013          	nop
ffffffff8021f744:	00000013          	nop
ffffffff8021f748:	00000013          	nop
ffffffff8021f74c:	00000013          	nop
ffffffff8021f750:	00000013          	nop
ffffffff8021f754:	00000013          	nop
ffffffff8021f758:	00000013          	nop
ffffffff8021f75c:	00000013          	nop
ffffffff8021f760:	00000013          	nop
ffffffff8021f764:	00000013          	nop
ffffffff8021f768:	00000013          	nop
ffffffff8021f76c:	00000013          	nop
ffffffff8021f770:	00000013          	nop
ffffffff8021f774:	00000013          	nop
ffffffff8021f778:	00000013          	nop
ffffffff8021f77c:	00000013          	nop
ffffffff8021f780:	00000013          	nop
ffffffff8021f784:	00000013          	nop
ffffffff8021f788:	00000013          	nop
ffffffff8021f78c:	00000013          	nop
ffffffff8021f790:	00000013          	nop
ffffffff8021f794:	00000013          	nop
ffffffff8021f798:	00000013          	nop
ffffffff8021f79c:	00000013          	nop
ffffffff8021f7a0:	00000013          	nop
ffffffff8021f7a4:	00000013          	nop
ffffffff8021f7a8:	00000013          	nop
ffffffff8021f7ac:	00000013          	nop
ffffffff8021f7b0:	00000013          	nop
ffffffff8021f7b4:	00000013          	nop
ffffffff8021f7b8:	00000013          	nop
ffffffff8021f7bc:	00000013          	nop
ffffffff8021f7c0:	00000013          	nop
ffffffff8021f7c4:	00000013          	nop
ffffffff8021f7c8:	00000013          	nop
ffffffff8021f7cc:	00000013          	nop
ffffffff8021f7d0:	00000013          	nop
ffffffff8021f7d4:	00000013          	nop
ffffffff8021f7d8:	00000013          	nop
ffffffff8021f7dc:	00000013          	nop
ffffffff8021f7e0:	00000013          	nop
ffffffff8021f7e4:	00000013          	nop
ffffffff8021f7e8:	00000013          	nop
ffffffff8021f7ec:	00000013          	nop
ffffffff8021f7f0:	00000013          	nop
ffffffff8021f7f4:	00000013          	nop
ffffffff8021f7f8:	00000013          	nop
ffffffff8021f7fc:	00000013          	nop
ffffffff8021f800:	00000013          	nop
ffffffff8021f804:	00000013          	nop
ffffffff8021f808:	00000013          	nop
ffffffff8021f80c:	00000013          	nop
ffffffff8021f810:	00000013          	nop
ffffffff8021f814:	00000013          	nop
ffffffff8021f818:	00000013          	nop
ffffffff8021f81c:	00000013          	nop
ffffffff8021f820:	00000013          	nop
ffffffff8021f824:	00000013          	nop
ffffffff8021f828:	00000013          	nop
ffffffff8021f82c:	00000013          	nop
ffffffff8021f830:	00000013          	nop
ffffffff8021f834:	00000013          	nop
ffffffff8021f838:	00000013          	nop
ffffffff8021f83c:	00000013          	nop
ffffffff8021f840:	00000013          	nop
ffffffff8021f844:	00000013          	nop
ffffffff8021f848:	00000013          	nop
ffffffff8021f84c:	00000013          	nop
ffffffff8021f850:	00000013          	nop
ffffffff8021f854:	00000013          	nop
ffffffff8021f858:	00000013          	nop
ffffffff8021f85c:	00000013          	nop
ffffffff8021f860:	00000013          	nop
ffffffff8021f864:	00000013          	nop
ffffffff8021f868:	00000013          	nop
ffffffff8021f86c:	00000013          	nop
ffffffff8021f870:	00000013          	nop
ffffffff8021f874:	00000013          	nop
ffffffff8021f878:	00000013          	nop
ffffffff8021f87c:	00000013          	nop
ffffffff8021f880:	00000013          	nop
ffffffff8021f884:	00000013          	nop
ffffffff8021f888:	00000013          	nop
ffffffff8021f88c:	00000013          	nop
ffffffff8021f890:	00000013          	nop
ffffffff8021f894:	00000013          	nop
ffffffff8021f898:	00000013          	nop
ffffffff8021f89c:	00000013          	nop
ffffffff8021f8a0:	00000013          	nop
ffffffff8021f8a4:	00000013          	nop
ffffffff8021f8a8:	00000013          	nop
ffffffff8021f8ac:	00000013          	nop
ffffffff8021f8b0:	00000013          	nop
ffffffff8021f8b4:	00000013          	nop
ffffffff8021f8b8:	00000013          	nop
ffffffff8021f8bc:	00000013          	nop
ffffffff8021f8c0:	00000013          	nop
ffffffff8021f8c4:	00000013          	nop
ffffffff8021f8c8:	00000013          	nop
ffffffff8021f8cc:	00000013          	nop
ffffffff8021f8d0:	00000013          	nop
ffffffff8021f8d4:	00000013          	nop
ffffffff8021f8d8:	00000013          	nop
ffffffff8021f8dc:	00000013          	nop
ffffffff8021f8e0:	00000013          	nop
ffffffff8021f8e4:	00000013          	nop
ffffffff8021f8e8:	00000013          	nop
ffffffff8021f8ec:	00000013          	nop
ffffffff8021f8f0:	00000013          	nop
ffffffff8021f8f4:	00000013          	nop
ffffffff8021f8f8:	00000013          	nop
ffffffff8021f8fc:	00000013          	nop
ffffffff8021f900:	00000013          	nop
ffffffff8021f904:	00000013          	nop
ffffffff8021f908:	00000013          	nop
ffffffff8021f90c:	00000013          	nop
ffffffff8021f910:	00000013          	nop
ffffffff8021f914:	00000013          	nop
ffffffff8021f918:	00000013          	nop
ffffffff8021f91c:	00000013          	nop
ffffffff8021f920:	00000013          	nop
ffffffff8021f924:	00000013          	nop
ffffffff8021f928:	00000013          	nop
ffffffff8021f92c:	00000013          	nop
ffffffff8021f930:	00000013          	nop
ffffffff8021f934:	00000013          	nop
ffffffff8021f938:	00000013          	nop
ffffffff8021f93c:	00000013          	nop
ffffffff8021f940:	00000013          	nop
ffffffff8021f944:	00000013          	nop
ffffffff8021f948:	00000013          	nop
ffffffff8021f94c:	00000013          	nop
ffffffff8021f950:	00000013          	nop
ffffffff8021f954:	00000013          	nop
ffffffff8021f958:	00000013          	nop
ffffffff8021f95c:	00000013          	nop
ffffffff8021f960:	00000013          	nop
ffffffff8021f964:	00000013          	nop
ffffffff8021f968:	00000013          	nop
ffffffff8021f96c:	00000013          	nop
ffffffff8021f970:	00000013          	nop
ffffffff8021f974:	00000013          	nop
ffffffff8021f978:	00000013          	nop
ffffffff8021f97c:	00000013          	nop
ffffffff8021f980:	00000013          	nop
ffffffff8021f984:	00000013          	nop
ffffffff8021f988:	00000013          	nop
ffffffff8021f98c:	00000013          	nop
ffffffff8021f990:	00000013          	nop
ffffffff8021f994:	00000013          	nop
ffffffff8021f998:	00000013          	nop
ffffffff8021f99c:	00000013          	nop
ffffffff8021f9a0:	00000013          	nop
ffffffff8021f9a4:	00000013          	nop
ffffffff8021f9a8:	00000013          	nop
ffffffff8021f9ac:	00000013          	nop
ffffffff8021f9b0:	00000013          	nop
ffffffff8021f9b4:	00000013          	nop
ffffffff8021f9b8:	00000013          	nop
ffffffff8021f9bc:	00000013          	nop
ffffffff8021f9c0:	00000013          	nop
ffffffff8021f9c4:	00000013          	nop
ffffffff8021f9c8:	00000013          	nop
ffffffff8021f9cc:	00000013          	nop
ffffffff8021f9d0:	00000013          	nop
ffffffff8021f9d4:	00000013          	nop
ffffffff8021f9d8:	00000013          	nop
ffffffff8021f9dc:	00000013          	nop
ffffffff8021f9e0:	00000013          	nop
ffffffff8021f9e4:	00000013          	nop
ffffffff8021f9e8:	00000013          	nop
ffffffff8021f9ec:	00000013          	nop
ffffffff8021f9f0:	00000013          	nop
ffffffff8021f9f4:	00000013          	nop
ffffffff8021f9f8:	00000013          	nop
ffffffff8021f9fc:	00000013          	nop
ffffffff8021fa00:	00000013          	nop
ffffffff8021fa04:	00000013          	nop
ffffffff8021fa08:	00000013          	nop
ffffffff8021fa0c:	00000013          	nop
ffffffff8021fa10:	00000013          	nop
ffffffff8021fa14:	00000013          	nop
ffffffff8021fa18:	00000013          	nop
ffffffff8021fa1c:	00000013          	nop
ffffffff8021fa20:	00000013          	nop
ffffffff8021fa24:	00000013          	nop
ffffffff8021fa28:	00000013          	nop
ffffffff8021fa2c:	00000013          	nop
ffffffff8021fa30:	00000013          	nop
ffffffff8021fa34:	00000013          	nop
ffffffff8021fa38:	00000013          	nop
ffffffff8021fa3c:	00000013          	nop
ffffffff8021fa40:	00000013          	nop
ffffffff8021fa44:	00000013          	nop
ffffffff8021fa48:	00000013          	nop
ffffffff8021fa4c:	00000013          	nop
ffffffff8021fa50:	00000013          	nop
ffffffff8021fa54:	00000013          	nop
ffffffff8021fa58:	00000013          	nop
ffffffff8021fa5c:	00000013          	nop
ffffffff8021fa60:	00000013          	nop
ffffffff8021fa64:	00000013          	nop
ffffffff8021fa68:	00000013          	nop
ffffffff8021fa6c:	00000013          	nop
ffffffff8021fa70:	00000013          	nop
ffffffff8021fa74:	00000013          	nop
ffffffff8021fa78:	00000013          	nop
ffffffff8021fa7c:	00000013          	nop
ffffffff8021fa80:	00000013          	nop
ffffffff8021fa84:	00000013          	nop
ffffffff8021fa88:	00000013          	nop
ffffffff8021fa8c:	00000013          	nop
ffffffff8021fa90:	00000013          	nop
ffffffff8021fa94:	00000013          	nop
ffffffff8021fa98:	00000013          	nop
ffffffff8021fa9c:	00000013          	nop
ffffffff8021faa0:	00000013          	nop
ffffffff8021faa4:	00000013          	nop
ffffffff8021faa8:	00000013          	nop
ffffffff8021faac:	00000013          	nop
ffffffff8021fab0:	00000013          	nop
ffffffff8021fab4:	00000013          	nop
ffffffff8021fab8:	00000013          	nop
ffffffff8021fabc:	00000013          	nop
ffffffff8021fac0:	00000013          	nop
ffffffff8021fac4:	00000013          	nop
ffffffff8021fac8:	00000013          	nop
ffffffff8021facc:	00000013          	nop
ffffffff8021fad0:	00000013          	nop
ffffffff8021fad4:	00000013          	nop
ffffffff8021fad8:	00000013          	nop
ffffffff8021fadc:	00000013          	nop
ffffffff8021fae0:	00000013          	nop
ffffffff8021fae4:	00000013          	nop
ffffffff8021fae8:	00000013          	nop
ffffffff8021faec:	00000013          	nop
ffffffff8021faf0:	00000013          	nop
ffffffff8021faf4:	00000013          	nop
ffffffff8021faf8:	00000013          	nop
ffffffff8021fafc:	00000013          	nop
ffffffff8021fb00:	00000013          	nop
ffffffff8021fb04:	00000013          	nop
ffffffff8021fb08:	00000013          	nop
ffffffff8021fb0c:	00000013          	nop
ffffffff8021fb10:	00000013          	nop
ffffffff8021fb14:	00000013          	nop
ffffffff8021fb18:	00000013          	nop
ffffffff8021fb1c:	00000013          	nop
ffffffff8021fb20:	00000013          	nop
ffffffff8021fb24:	00000013          	nop
ffffffff8021fb28:	00000013          	nop
ffffffff8021fb2c:	00000013          	nop
ffffffff8021fb30:	00000013          	nop
ffffffff8021fb34:	00000013          	nop
ffffffff8021fb38:	00000013          	nop
ffffffff8021fb3c:	00000013          	nop
ffffffff8021fb40:	00000013          	nop
ffffffff8021fb44:	00000013          	nop
ffffffff8021fb48:	00000013          	nop
ffffffff8021fb4c:	00000013          	nop
ffffffff8021fb50:	00000013          	nop
ffffffff8021fb54:	00000013          	nop
ffffffff8021fb58:	00000013          	nop
ffffffff8021fb5c:	00000013          	nop
ffffffff8021fb60:	00000013          	nop
ffffffff8021fb64:	00000013          	nop
ffffffff8021fb68:	00000013          	nop
ffffffff8021fb6c:	00000013          	nop
ffffffff8021fb70:	00000013          	nop
ffffffff8021fb74:	00000013          	nop
ffffffff8021fb78:	00000013          	nop
ffffffff8021fb7c:	00000013          	nop
ffffffff8021fb80:	00000013          	nop
ffffffff8021fb84:	00000013          	nop
ffffffff8021fb88:	00000013          	nop
ffffffff8021fb8c:	00000013          	nop
ffffffff8021fb90:	00000013          	nop
ffffffff8021fb94:	00000013          	nop
ffffffff8021fb98:	00000013          	nop
ffffffff8021fb9c:	00000013          	nop
ffffffff8021fba0:	00000013          	nop
ffffffff8021fba4:	00000013          	nop
ffffffff8021fba8:	00000013          	nop
ffffffff8021fbac:	00000013          	nop
ffffffff8021fbb0:	00000013          	nop
ffffffff8021fbb4:	00000013          	nop
ffffffff8021fbb8:	00000013          	nop
ffffffff8021fbbc:	00000013          	nop
ffffffff8021fbc0:	00000013          	nop
ffffffff8021fbc4:	00000013          	nop
ffffffff8021fbc8:	00000013          	nop
ffffffff8021fbcc:	00000013          	nop
ffffffff8021fbd0:	00000013          	nop
ffffffff8021fbd4:	00000013          	nop
ffffffff8021fbd8:	00000013          	nop
ffffffff8021fbdc:	00000013          	nop
ffffffff8021fbe0:	00000013          	nop
ffffffff8021fbe4:	00000013          	nop
ffffffff8021fbe8:	00000013          	nop
ffffffff8021fbec:	00000013          	nop
ffffffff8021fbf0:	00000013          	nop
ffffffff8021fbf4:	00000013          	nop
ffffffff8021fbf8:	00000013          	nop
ffffffff8021fbfc:	00000013          	nop
ffffffff8021fc00:	00000013          	nop
ffffffff8021fc04:	00000013          	nop
ffffffff8021fc08:	00000013          	nop
ffffffff8021fc0c:	00000013          	nop
ffffffff8021fc10:	00000013          	nop
ffffffff8021fc14:	00000013          	nop
ffffffff8021fc18:	00000013          	nop
ffffffff8021fc1c:	00000013          	nop
ffffffff8021fc20:	00000013          	nop
ffffffff8021fc24:	00000013          	nop
ffffffff8021fc28:	00000013          	nop
ffffffff8021fc2c:	00000013          	nop
ffffffff8021fc30:	00000013          	nop
ffffffff8021fc34:	00000013          	nop
ffffffff8021fc38:	00000013          	nop
ffffffff8021fc3c:	00000013          	nop
ffffffff8021fc40:	00000013          	nop
ffffffff8021fc44:	00000013          	nop
ffffffff8021fc48:	00000013          	nop
ffffffff8021fc4c:	00000013          	nop
ffffffff8021fc50:	00000013          	nop
ffffffff8021fc54:	00000013          	nop
ffffffff8021fc58:	00000013          	nop
ffffffff8021fc5c:	00000013          	nop
ffffffff8021fc60:	00000013          	nop
ffffffff8021fc64:	00000013          	nop
ffffffff8021fc68:	00000013          	nop
ffffffff8021fc6c:	00000013          	nop
ffffffff8021fc70:	00000013          	nop
ffffffff8021fc74:	00000013          	nop
ffffffff8021fc78:	00000013          	nop
ffffffff8021fc7c:	00000013          	nop
ffffffff8021fc80:	00000013          	nop
ffffffff8021fc84:	00000013          	nop
ffffffff8021fc88:	00000013          	nop
ffffffff8021fc8c:	00000013          	nop
ffffffff8021fc90:	00000013          	nop
ffffffff8021fc94:	00000013          	nop
ffffffff8021fc98:	00000013          	nop
ffffffff8021fc9c:	00000013          	nop
ffffffff8021fca0:	00000013          	nop
ffffffff8021fca4:	00000013          	nop
ffffffff8021fca8:	00000013          	nop
ffffffff8021fcac:	00000013          	nop
ffffffff8021fcb0:	00000013          	nop
ffffffff8021fcb4:	00000013          	nop
ffffffff8021fcb8:	00000013          	nop
ffffffff8021fcbc:	00000013          	nop
ffffffff8021fcc0:	00000013          	nop
ffffffff8021fcc4:	00000013          	nop
ffffffff8021fcc8:	00000013          	nop
ffffffff8021fccc:	00000013          	nop
ffffffff8021fcd0:	00000013          	nop
ffffffff8021fcd4:	00000013          	nop
ffffffff8021fcd8:	00000013          	nop
ffffffff8021fcdc:	00000013          	nop
ffffffff8021fce0:	00000013          	nop
ffffffff8021fce4:	00000013          	nop
ffffffff8021fce8:	00000013          	nop
ffffffff8021fcec:	00000013          	nop
ffffffff8021fcf0:	00000013          	nop
ffffffff8021fcf4:	00000013          	nop
ffffffff8021fcf8:	00000013          	nop
ffffffff8021fcfc:	00000013          	nop
ffffffff8021fd00:	00000013          	nop
ffffffff8021fd04:	00000013          	nop
ffffffff8021fd08:	00000013          	nop
ffffffff8021fd0c:	00000013          	nop
ffffffff8021fd10:	00000013          	nop
ffffffff8021fd14:	00000013          	nop
ffffffff8021fd18:	00000013          	nop
ffffffff8021fd1c:	00000013          	nop
ffffffff8021fd20:	00000013          	nop
ffffffff8021fd24:	00000013          	nop
ffffffff8021fd28:	00000013          	nop
ffffffff8021fd2c:	00000013          	nop
ffffffff8021fd30:	00000013          	nop
ffffffff8021fd34:	00000013          	nop
ffffffff8021fd38:	00000013          	nop
ffffffff8021fd3c:	00000013          	nop
ffffffff8021fd40:	00000013          	nop
ffffffff8021fd44:	00000013          	nop
ffffffff8021fd48:	00000013          	nop
ffffffff8021fd4c:	00000013          	nop
ffffffff8021fd50:	00000013          	nop
ffffffff8021fd54:	00000013          	nop
ffffffff8021fd58:	00000013          	nop
ffffffff8021fd5c:	00000013          	nop
ffffffff8021fd60:	00000013          	nop
ffffffff8021fd64:	00000013          	nop
ffffffff8021fd68:	00000013          	nop
ffffffff8021fd6c:	00000013          	nop
ffffffff8021fd70:	00000013          	nop
ffffffff8021fd74:	00000013          	nop
ffffffff8021fd78:	00000013          	nop
ffffffff8021fd7c:	00000013          	nop
ffffffff8021fd80:	00000013          	nop
ffffffff8021fd84:	00000013          	nop
ffffffff8021fd88:	00000013          	nop
ffffffff8021fd8c:	00000013          	nop
ffffffff8021fd90:	00000013          	nop
ffffffff8021fd94:	00000013          	nop
ffffffff8021fd98:	00000013          	nop
ffffffff8021fd9c:	00000013          	nop
ffffffff8021fda0:	00000013          	nop
ffffffff8021fda4:	00000013          	nop
ffffffff8021fda8:	00000013          	nop
ffffffff8021fdac:	00000013          	nop
ffffffff8021fdb0:	00000013          	nop
ffffffff8021fdb4:	00000013          	nop
ffffffff8021fdb8:	00000013          	nop
ffffffff8021fdbc:	00000013          	nop
ffffffff8021fdc0:	00000013          	nop
ffffffff8021fdc4:	00000013          	nop
ffffffff8021fdc8:	00000013          	nop
ffffffff8021fdcc:	00000013          	nop
ffffffff8021fdd0:	00000013          	nop
ffffffff8021fdd4:	00000013          	nop
ffffffff8021fdd8:	00000013          	nop
ffffffff8021fddc:	00000013          	nop
ffffffff8021fde0:	00000013          	nop
ffffffff8021fde4:	00000013          	nop
ffffffff8021fde8:	00000013          	nop
ffffffff8021fdec:	00000013          	nop
ffffffff8021fdf0:	00000013          	nop
ffffffff8021fdf4:	00000013          	nop
ffffffff8021fdf8:	00000013          	nop
ffffffff8021fdfc:	00000013          	nop
ffffffff8021fe00:	00000013          	nop
ffffffff8021fe04:	00000013          	nop
ffffffff8021fe08:	00000013          	nop
ffffffff8021fe0c:	00000013          	nop
ffffffff8021fe10:	00000013          	nop
ffffffff8021fe14:	00000013          	nop
ffffffff8021fe18:	00000013          	nop
ffffffff8021fe1c:	00000013          	nop
ffffffff8021fe20:	00000013          	nop
ffffffff8021fe24:	00000013          	nop
ffffffff8021fe28:	00000013          	nop
ffffffff8021fe2c:	00000013          	nop
ffffffff8021fe30:	00000013          	nop
ffffffff8021fe34:	00000013          	nop
ffffffff8021fe38:	00000013          	nop
ffffffff8021fe3c:	00000013          	nop
ffffffff8021fe40:	00000013          	nop
ffffffff8021fe44:	00000013          	nop
ffffffff8021fe48:	00000013          	nop
ffffffff8021fe4c:	00000013          	nop
ffffffff8021fe50:	00000013          	nop
ffffffff8021fe54:	00000013          	nop
ffffffff8021fe58:	00000013          	nop
ffffffff8021fe5c:	00000013          	nop
ffffffff8021fe60:	00000013          	nop
ffffffff8021fe64:	00000013          	nop
ffffffff8021fe68:	00000013          	nop
ffffffff8021fe6c:	00000013          	nop
ffffffff8021fe70:	00000013          	nop
ffffffff8021fe74:	00000013          	nop
ffffffff8021fe78:	00000013          	nop
ffffffff8021fe7c:	00000013          	nop
ffffffff8021fe80:	00000013          	nop
ffffffff8021fe84:	00000013          	nop
ffffffff8021fe88:	00000013          	nop
ffffffff8021fe8c:	00000013          	nop
ffffffff8021fe90:	00000013          	nop
ffffffff8021fe94:	00000013          	nop
ffffffff8021fe98:	00000013          	nop
ffffffff8021fe9c:	00000013          	nop
ffffffff8021fea0:	00000013          	nop
ffffffff8021fea4:	00000013          	nop
ffffffff8021fea8:	00000013          	nop
ffffffff8021feac:	00000013          	nop
ffffffff8021feb0:	00000013          	nop
ffffffff8021feb4:	00000013          	nop
ffffffff8021feb8:	00000013          	nop
ffffffff8021febc:	00000013          	nop
ffffffff8021fec0:	00000013          	nop
ffffffff8021fec4:	00000013          	nop
ffffffff8021fec8:	00000013          	nop
ffffffff8021fecc:	00000013          	nop
ffffffff8021fed0:	00000013          	nop
ffffffff8021fed4:	00000013          	nop
ffffffff8021fed8:	00000013          	nop
ffffffff8021fedc:	00000013          	nop
ffffffff8021fee0:	00000013          	nop
ffffffff8021fee4:	00000013          	nop
ffffffff8021fee8:	00000013          	nop
ffffffff8021feec:	00000013          	nop
ffffffff8021fef0:	00000013          	nop
ffffffff8021fef4:	00000013          	nop
ffffffff8021fef8:	00000013          	nop
ffffffff8021fefc:	00000013          	nop
ffffffff8021ff00:	00000013          	nop
ffffffff8021ff04:	00000013          	nop
ffffffff8021ff08:	00000013          	nop
ffffffff8021ff0c:	00000013          	nop
ffffffff8021ff10:	00000013          	nop
ffffffff8021ff14:	00000013          	nop
ffffffff8021ff18:	00000013          	nop
ffffffff8021ff1c:	00000013          	nop
ffffffff8021ff20:	00000013          	nop
ffffffff8021ff24:	00000013          	nop
ffffffff8021ff28:	00000013          	nop
ffffffff8021ff2c:	00000013          	nop
ffffffff8021ff30:	00000013          	nop
ffffffff8021ff34:	00000013          	nop
ffffffff8021ff38:	00000013          	nop
ffffffff8021ff3c:	00000013          	nop
ffffffff8021ff40:	00000013          	nop
ffffffff8021ff44:	00000013          	nop
ffffffff8021ff48:	00000013          	nop
ffffffff8021ff4c:	00000013          	nop
ffffffff8021ff50:	00000013          	nop
ffffffff8021ff54:	00000013          	nop
ffffffff8021ff58:	00000013          	nop
ffffffff8021ff5c:	00000013          	nop
ffffffff8021ff60:	00000013          	nop
ffffffff8021ff64:	00000013          	nop
ffffffff8021ff68:	00000013          	nop
ffffffff8021ff6c:	00000013          	nop
ffffffff8021ff70:	00000013          	nop
ffffffff8021ff74:	00000013          	nop
ffffffff8021ff78:	00000013          	nop
ffffffff8021ff7c:	00000013          	nop
ffffffff8021ff80:	00000013          	nop
ffffffff8021ff84:	00000013          	nop
ffffffff8021ff88:	00000013          	nop
ffffffff8021ff8c:	00000013          	nop
ffffffff8021ff90:	00000013          	nop
ffffffff8021ff94:	00000013          	nop
ffffffff8021ff98:	00000013          	nop
ffffffff8021ff9c:	00000013          	nop
ffffffff8021ffa0:	00000013          	nop
ffffffff8021ffa4:	00000013          	nop
ffffffff8021ffa8:	00000013          	nop
ffffffff8021ffac:	00000013          	nop
ffffffff8021ffb0:	00000013          	nop
ffffffff8021ffb4:	00000013          	nop
ffffffff8021ffb8:	00000013          	nop
ffffffff8021ffbc:	00000013          	nop
ffffffff8021ffc0:	00000013          	nop
ffffffff8021ffc4:	00000013          	nop
ffffffff8021ffc8:	00000013          	nop
ffffffff8021ffcc:	00000013          	nop
ffffffff8021ffd0:	00000013          	nop
ffffffff8021ffd4:	00000013          	nop
ffffffff8021ffd8:	00000013          	nop
ffffffff8021ffdc:	00000013          	nop
ffffffff8021ffe0:	00000013          	nop
ffffffff8021ffe4:	00000013          	nop
ffffffff8021ffe8:	00000013          	nop
ffffffff8021ffec:	00000013          	nop
ffffffff8021fff0:	00000013          	nop
ffffffff8021fff4:	00000013          	nop
ffffffff8021fff8:	00000013          	nop
ffffffff8021fffc:	00000013          	nop

ffffffff80220000 <__trap_exit>:
ffffffff80220000:	10013483          	ld	s1,256(sp)
ffffffff80220004:	10813903          	ld	s2,264(sp)
ffffffff80220008:	1004f413          	andi	s0,s1,256
ffffffff8022000c:	00041663          	bnez	s0,ffffffff80220018 <_ret_to_kernel>

ffffffff80220010 <_ret_to_user>:
ffffffff80220010:	12010413          	addi	s0,sp,288
ffffffff80220014:	14041073          	csrw	sscratch,s0

ffffffff80220018 <_ret_to_kernel>:
ffffffff80220018:	10049073          	csrw	sstatus,s1
ffffffff8022001c:	14191073          	csrw	sepc,s2
ffffffff80220020:	00813083          	ld	ra,8(sp)
ffffffff80220024:	01813183          	ld	gp,24(sp)
ffffffff80220028:	02013203          	ld	tp,32(sp)
ffffffff8022002c:	02813283          	ld	t0,40(sp)
ffffffff80220030:	03013303          	ld	t1,48(sp)
ffffffff80220034:	03813383          	ld	t2,56(sp)
ffffffff80220038:	04013403          	ld	s0,64(sp)
ffffffff8022003c:	04813483          	ld	s1,72(sp)
ffffffff80220040:	05013503          	ld	a0,80(sp)
ffffffff80220044:	05813583          	ld	a1,88(sp)
ffffffff80220048:	06013603          	ld	a2,96(sp)
ffffffff8022004c:	06813683          	ld	a3,104(sp)
ffffffff80220050:	07013703          	ld	a4,112(sp)
ffffffff80220054:	07813783          	ld	a5,120(sp)
ffffffff80220058:	08013803          	ld	a6,128(sp)
ffffffff8022005c:	08813883          	ld	a7,136(sp)
ffffffff80220060:	09013903          	ld	s2,144(sp)
ffffffff80220064:	09813983          	ld	s3,152(sp)
ffffffff80220068:	0a013a03          	ld	s4,160(sp)
ffffffff8022006c:	0a813a83          	ld	s5,168(sp)
ffffffff80220070:	0b013b03          	ld	s6,176(sp)
ffffffff80220074:	0b813b83          	ld	s7,184(sp)
ffffffff80220078:	0c013c03          	ld	s8,192(sp)
ffffffff8022007c:	0c813c83          	ld	s9,200(sp)
ffffffff80220080:	0d013d03          	ld	s10,208(sp)
ffffffff80220084:	0d813d83          	ld	s11,216(sp)
ffffffff80220088:	0e013e03          	ld	t3,224(sp)
ffffffff8022008c:	0e813e83          	ld	t4,232(sp)
ffffffff80220090:	0f013f03          	ld	t5,240(sp)
ffffffff80220094:	0f813f83          	ld	t6,248(sp)
ffffffff80220098:	01013103          	ld	sp,16(sp)
ffffffff8022009c:	10200073          	sret
	...
